
/Users/xchen/Documents/Arduino/particle/msp_trees-main/target/4.0.0/argon/msp_trees-main.elf:     file format elf32-littlearm

Sections:
Idx Name          Size      VMA       LMA       File off  Algn
  0 .module_info  00000018  000b4000  000b4000  00004000  2**0
                  CONTENTS, ALLOC, LOAD, READONLY, DATA
  1 .dynalib      00000004  000b4018  000b4018  00004018  2**2
                  CONTENTS, ALLOC, LOAD, READONLY, DATA
  2 .text         00009200  000b4020  000b4020  00004020  2**3
                  CONTENTS, ALLOC, LOAD, READONLY, CODE
  3 .note.gnu.build-id 00000024  000bd220  000bd220  0000d220  2**2
                  CONTENTS, ALLOC, LOAD, READONLY, DATA
  4 .ARM.exidx    00000008  000bd244  000bd244  0000d244  2**2
                  CONTENTS, ALLOC, LOAD, READONLY, DATA
  5 .backup       00000004  2003f400  000bd24c  0000f400  2**2
                  CONTENTS, ALLOC, LOAD, DATA
  6 .data         0000007c  2003dbc0  000bd250  0001dbc0  2**2
                  CONTENTS, ALLOC, LOAD, DATA
  7 .bss          00000bb4  2003dc40  2003dc40  0002dc40  2**3
                  ALLOC
  8 .module_info_suffix 00000028  000bd2cc  000bd2cc  0002d2cc  2**0
                  CONTENTS, ALLOC, LOAD, READONLY, DATA
  9 .module_info_crc 00000004  000bd2f4  000bd2f4  0002d2f4  2**0
                  CONTENTS, ALLOC, LOAD, READONLY, DATA
 10 .debug_info   001d8382  00000000  00000000  0002d2f8  2**0
                  CONTENTS, READONLY, DEBUGGING, OCTETS
 11 .debug_abbrev 0001f31f  00000000  00000000  0020567a  2**0
                  CONTENTS, READONLY, DEBUGGING, OCTETS
 12 .debug_loc    0004e9ff  00000000  00000000  00224999  2**0
                  CONTENTS, READONLY, DEBUGGING, OCTETS
 13 .debug_aranges 00003a78  00000000  00000000  00273398  2**0
                  CONTENTS, READONLY, DEBUGGING, OCTETS
 14 .debug_ranges 0000d188  00000000  00000000  00276e10  2**0
                  CONTENTS, READONLY, DEBUGGING, OCTETS
 15 .debug_macro  0004ce79  00000000  00000000  00283f98  2**0
                  CONTENTS, READONLY, DEBUGGING, OCTETS
 16 .debug_line   00068d07  00000000  00000000  002d0e11  2**0
                  CONTENTS, READONLY, DEBUGGING, OCTETS
 17 .debug_str    00143dcc  00000000  00000000  00339b18  2**0
                  CONTENTS, READONLY, DEBUGGING, OCTETS
 18 .debug_frame  0000af30  00000000  00000000  0047d8e4  2**2
                  CONTENTS, READONLY, DEBUGGING, OCTETS

Disassembly of section .text:

000b4020 <module_user_pre_init>:
/**
 * Initializes this user module. Returns the start of the heap.
 */
void* module_user_pre_init() {

    if ( (&link_global_data_start!=&link_global_data_initial_values) && (link_global_data_size != 0))
   b4020:	4809      	ldr	r0, [pc, #36]	; (b4048 <module_user_pre_init+0x28>)
   b4022:	490a      	ldr	r1, [pc, #40]	; (b404c <module_user_pre_init+0x2c>)
   b4024:	4288      	cmp	r0, r1
void* module_user_pre_init() {
   b4026:	b508      	push	{r3, lr}
    if ( (&link_global_data_start!=&link_global_data_initial_values) && (link_global_data_size != 0))
   b4028:	d005      	beq.n	b4036 <module_user_pre_init+0x16>
   b402a:	4a09      	ldr	r2, [pc, #36]	; (b4050 <module_user_pre_init+0x30>)
   b402c:	4282      	cmp	r2, r0
   b402e:	d002      	beq.n	b4036 <module_user_pre_init+0x16>
    {
        memcpy(&link_global_data_start, &link_global_data_initial_values, link_global_data_size);
   b4030:	1a12      	subs	r2, r2, r0
   b4032:	f008 f9db 	bl	bc3ec <memcpy>
    }

    memset(&link_bss_location, 0, link_bss_size );
   b4036:	4807      	ldr	r0, [pc, #28]	; (b4054 <module_user_pre_init+0x34>)
   b4038:	4a07      	ldr	r2, [pc, #28]	; (b4058 <module_user_pre_init+0x38>)
   b403a:	2100      	movs	r1, #0
   b403c:	1a12      	subs	r2, r2, r0
   b403e:	f008 f9fd 	bl	bc43c <memset>
    return &link_global_data_start;
}
   b4042:	4801      	ldr	r0, [pc, #4]	; (b4048 <module_user_pre_init+0x28>)
   b4044:	bd08      	pop	{r3, pc}
   b4046:	bf00      	nop
   b4048:	2003dbc0 	.word	0x2003dbc0
   b404c:	000bd250 	.word	0x000bd250
   b4050:	2003dc3c 	.word	0x2003dc3c
   b4054:	2003dc40 	.word	0x2003dc40
   b4058:	2003e7f1 	.word	0x2003e7f1

000b405c <module_user_init>:
extern constructor_ptr_t link_constructors_location[];
extern constructor_ptr_t link_constructors_end;
#define link_constructors_size   ((unsigned long)&link_constructors_end  -  (unsigned long)&link_constructors_location )

void module_user_init()
{
   b405c:	b570      	push	{r4, r5, r6, lr}
    module_user_init_hook();

    // invoke constructors
    for (size_t ctor_num=0; ctor_num < link_constructors_size/sizeof(constructor_ptr_t); ctor_num++ )
   b405e:	4e07      	ldr	r6, [pc, #28]	; (b407c <module_user_init+0x20>)
   b4060:	4c07      	ldr	r4, [pc, #28]	; (b4080 <module_user_init+0x24>)
    module_user_init_hook();
   b4062:	f006 fd35 	bl	baad0 <module_user_init_hook>
    for (size_t ctor_num=0; ctor_num < link_constructors_size/sizeof(constructor_ptr_t); ctor_num++ )
   b4066:	1ba4      	subs	r4, r4, r6
   b4068:	08a4      	lsrs	r4, r4, #2
   b406a:	2500      	movs	r5, #0
   b406c:	42ac      	cmp	r4, r5
   b406e:	d100      	bne.n	b4072 <module_user_init+0x16>
    {
        link_constructors_location[ctor_num]();
    }
}
   b4070:	bd70      	pop	{r4, r5, r6, pc}
        link_constructors_location[ctor_num]();
   b4072:	f856 3b04 	ldr.w	r3, [r6], #4
   b4076:	4798      	blx	r3
    for (size_t ctor_num=0; ctor_num < link_constructors_size/sizeof(constructor_ptr_t); ctor_num++ )
   b4078:	3501      	adds	r5, #1
   b407a:	e7f7      	b.n	b406c <module_user_init+0x10>
   b407c:	000bd1f8 	.word	0x000bd1f8
   b4080:	000bd21c 	.word	0x000bd21c

000b4084 <module_user_setup>:

/**
 * Export these functions with a fuller name so they don't clash with the setup/loop wrappers in the system module.
 */
void module_user_setup() {
    setup();
   b4084:	f001 b916 	b.w	b52b4 <setup>

000b4088 <module_user_loop>:
}

void module_user_loop() {
   b4088:	b508      	push	{r3, lr}
    loop();
   b408a:	f001 f85d 	bl	b5148 <loop>
    _post_loop();
}
   b408e:	e8bd 4008 	ldmia.w	sp!, {r3, lr}
    _post_loop();
   b4092:	f006 bcd5 	b.w	baa40 <_post_loop>

000b4096 <_Znwj>:
 * Implement C++ new/delete operators using the heap
 */

void *operator new(size_t size)
{
	return malloc(size);
   b4096:	f003 bf49 	b.w	b7f2c <malloc>

000b409a <_Znaj>:
   b409a:	f003 bf47 	b.w	b7f2c <malloc>

000b409e <_ZdlPvj>:
	free(p);
}

void operator delete(void *p, size_t size)
{
	free(p);
   b409e:	f003 bf4d 	b.w	b7f3c <free>
	...

000b40a4 <__cxa_pure_virtual>:
int __wrap_printf(const char* fmt, ...) {
    return -1;
}

/* Default implementation for call made to pure virtual function. */
void __cxa_pure_virtual() {
   b40a4:	b508      	push	{r3, lr}
  PANIC(PureVirtualCall,"Call on pure virtual");
   b40a6:	4a03      	ldr	r2, [pc, #12]	; (b40b4 <__cxa_pure_virtual+0x10>)
   b40a8:	4903      	ldr	r1, [pc, #12]	; (b40b8 <__cxa_pure_virtual+0x14>)
   b40aa:	200c      	movs	r0, #12
   b40ac:	f003 fe4c 	bl	b7d48 <panic_>
  while (1);
   b40b0:	e7fe      	b.n	b40b0 <__cxa_pure_virtual+0xc>
   b40b2:	bf00      	nop
   b40b4:	000b7a09 	.word	0x000b7a09
   b40b8:	000bc7f4 	.word	0x000bc7f4

000b40bc <__cxa_guard_acquire>:

/* Provide default implemenation for __cxa_guard_acquire() and
 * __cxa_guard_release(). Note: these must be revisited if a multitasking
 * OS is ported to this platform. */
__extension__ typedef int __guard __attribute__((mode (__DI__)));
int __cxa_guard_acquire(__guard *g) {return !*(char *)(g);};
   b40bc:	7800      	ldrb	r0, [r0, #0]
   b40be:	fab0 f080 	clz	r0, r0
   b40c2:	0940      	lsrs	r0, r0, #5
   b40c4:	4770      	bx	lr

000b40c6 <__cxa_guard_release>:
void __cxa_guard_release (__guard *g) {*(char *)g = 1;};
   b40c6:	2301      	movs	r3, #1
   b40c8:	7003      	strb	r3, [r0, #0]
   b40ca:	4770      	bx	lr

000b40cc <_ZN8particle11SPISettingsD1Ev>:
  SPISettings()
  {
  }

  virtual ~SPISettings() {
  }
   b40cc:	4770      	bx	lr

000b40ce <_ZN4File9availableEv>:
  void setpos(FatPos_t* pos);
  /** \return The number of bytes available from the current position
   * to EOF for normal files.  Zero is returned for directory files.
   */
  uint32_t available() {
    return isFile() ? fileSize() - curPosition() : 0;
   b40ce:	7c03      	ldrb	r3, [r0, #16]
   b40d0:	f013 0308 	ands.w	r3, r3, #8
   b40d4:	bf1e      	ittt	ne
   b40d6:	6ac3      	ldrne	r3, [r0, #44]	; 0x2c
   b40d8:	6a40      	ldrne	r0, [r0, #36]	; 0x24
   b40da:	1a1b      	subne	r3, r3, r0
  /** \return number of bytes available from the current position to EOF
   *   or INT_MAX if more than INT_MAX bytes are available.
   */
  int available() {
    uint32_t n = FatFile::available();
    return n > INT_MAX ? INT_MAX : n;
   b40dc:	2b00      	cmp	r3, #0
  }
   b40de:	bfac      	ite	ge
   b40e0:	4618      	movge	r0, r3
   b40e2:	f06f 4000 	mvnlt.w	r0, #2147483648	; 0x80000000
   b40e6:	4770      	bx	lr

000b40e8 <_ZN7TestLib10dateTimeSDEPtS0_>:
    // Serial.println("The time is: "+ LogTimeDate); // DEBUG!
    return LogTimeDate;
}

void TestLib::dateTimeSD(uint16_t* date, uint16_t* time)
{   
   b40e8:	b530      	push	{r4, r5, lr}
	// sprintf(timestamp, "%02d:%02d:%02d %2d/%2d/%2d \n", now.hour(),now.minute(),now.second(),now.month(),now.day(),now.year()-2000);
	// Serial.println("yy");
	// Serial.println(timestamp);
	// return date using FAT_DATE macro to format fields
	// Serial.println(selfPointer->Time_Date[0]); //DEBUG!
	*date = FAT_DATE(selfPointer->Time_Date[0], selfPointer->Time_Date[1], selfPointer->Time_Date[2]);
   b40ea:	4d11      	ldr	r5, [pc, #68]	; (b4130 <_ZN7TestLib10dateTimeSDEPtS0_+0x48>)
   b40ec:	682c      	ldr	r4, [r5, #0]
 * \param[in] day [1,31]
 *
 * \return Packed date for dir_t entry.
 */
static inline uint16_t FAT_DATE(uint16_t year, uint8_t month, uint8_t day) {
  return (year - 1980) << 9 | month << 5 | day;
   b40ee:	f8d4 351c 	ldr.w	r3, [r4, #1308]	; 0x51c
   b40f2:	015b      	lsls	r3, r3, #5
   b40f4:	f403 52ff 	and.w	r2, r3, #8160	; 0x1fe0
   b40f8:	f894 3520 	ldrb.w	r3, [r4, #1312]	; 0x520
   b40fc:	4313      	orrs	r3, r2
   b40fe:	f8b4 2518 	ldrh.w	r2, [r4, #1304]	; 0x518
   b4102:	f2a2 72bc 	subw	r2, r2, #1980	; 0x7bc
   b4106:	ea43 2342 	orr.w	r3, r3, r2, lsl #9
   b410a:	8003      	strh	r3, [r0, #0]

	// return time using FAT_TIME macro to format fields
	*time = FAT_TIME(selfPointer->Time_Date[3], selfPointer->Time_Date[4], selfPointer->Time_Date[5]);
   b410c:	6828      	ldr	r0, [r5, #0]
 * \param[in] second [0,59]
 *
 * \return Packed time for dir_t entry.
 */
static inline uint16_t FAT_TIME(uint8_t hour, uint8_t minute, uint8_t second) {
  return hour << 11 | minute << 5 | second >> 1;
   b410e:	f8d0 3524 	ldr.w	r3, [r0, #1316]	; 0x524
   b4112:	f8d0 2528 	ldr.w	r2, [r0, #1320]	; 0x528
   b4116:	02db      	lsls	r3, r3, #11
   b4118:	0152      	lsls	r2, r2, #5
   b411a:	f402 52ff 	and.w	r2, r2, #8160	; 0x1fe0
   b411e:	f403 23ff 	and.w	r3, r3, #522240	; 0x7f800
   b4122:	4313      	orrs	r3, r2
   b4124:	f890 252c 	ldrb.w	r2, [r0, #1324]	; 0x52c
   b4128:	ea43 0352 	orr.w	r3, r3, r2, lsr #1
   b412c:	800b      	strh	r3, [r1, #0]
}
   b412e:	bd30      	pop	{r4, r5, pc}
   b4130:	2003dc4c 	.word	0x2003dc4c

000b4134 <_ZN4FileD1Ev>:
class File : public FatFile, public Stream {
   b4134:	4770      	bx	lr

000b4136 <_ZN8particle11SPISettingsD0Ev>:
  virtual ~SPISettings() {
   b4136:	b510      	push	{r4, lr}
  }
   b4138:	2110      	movs	r1, #16
  virtual ~SPISettings() {
   b413a:	4604      	mov	r4, r0
  }
   b413c:	f7ff ffaf 	bl	b409e <_ZdlPvj>
   b4140:	4620      	mov	r0, r4
   b4142:	bd10      	pop	{r4, pc}

000b4144 <_ZN4FileD0Ev>:
   b4144:	b510      	push	{r4, lr}
   b4146:	2134      	movs	r1, #52	; 0x34
   b4148:	4604      	mov	r4, r0
   b414a:	f7ff ffa8 	bl	b409e <_ZdlPvj>
   b414e:	4620      	mov	r0, r4
   b4150:	bd10      	pop	{r4, pc}

000b4152 <_ZN4File5writeEPKhj>:
   * include write() is called before a file has been opened, write is called
   * for a read-only file, device is full, a corrupt file system or an
   * I/O error.
   */
  size_t write(const uint8_t *buf, size_t size) {
    return FatFile::write(buf, size);
   b4152:	3010      	adds	r0, #16
   b4154:	f002 bb36 	b.w	b67c4 <_ZN7FatFile5writeEPKvj>

000b4158 <_ZN4File4readEv>:
  int read() {
   b4158:	b507      	push	{r0, r1, r2, lr}
   * \return For success read returns the next byte in the file as an int.
   * If an error occurs or end of file is reached -1 is returned.
   */
  int read() {
    uint8_t b;
    return read(&b, 1) == 1 ? b : -1;
   b415a:	2201      	movs	r2, #1
   b415c:	f10d 0107 	add.w	r1, sp, #7
   b4160:	3010      	adds	r0, #16
   b4162:	f002 f83c 	bl	b61de <_ZN7FatFile4readEPvj>
   b4166:	2801      	cmp	r0, #1
   b4168:	bf0c      	ite	eq
   b416a:	f89d 0007 	ldrbeq.w	r0, [sp, #7]
   b416e:	f04f 30ff 	movne.w	r0, #4294967295	; 0xffffffff
  }
   b4172:	b003      	add	sp, #12
   b4174:	f85d fb04 	ldr.w	pc, [sp], #4

000b4178 <_ZN4File5flushEv>:
    FatFile::sync();
   b4178:	3010      	adds	r0, #16
   b417a:	f002 b9bd 	b.w	b64f8 <_ZN7FatFile4syncEv>

000b417e <_ZN4File4peekEv>:
    return FatFile::peek();
   b417e:	3010      	adds	r0, #16
   b4180:	f002 b8db 	b.w	b633a <_ZN7FatFile4peekEv>

000b4184 <_ZN5Print5printIlLi0EEEjT_i.part.0.isra.0>:
    size_t vprintf(bool newline, const char* format, va_list args) __attribute__ ((format(printf, 3, 0)));
};

template <typename T, std::enable_if_t<!std::is_base_of<Printable, T>::value && (std::is_integral<T>::value || std::is_convertible<T, unsigned long long>::value ||
    std::is_convertible<T, long long>::value), int>>
size_t Print::print(T n, int base)
   b4184:	b570      	push	{r4, r5, r6, lr}
// FIXME: avoids 'comparison of constant '0' with boolean expression is always false'
#if __GNUC__ >= 9
#pragma GCC diagnostic push
#pragma GCC diagnostic ignored "-Wbool-compare"
#endif // __GNUC__ >= 9
        if (n < 0 && base == 10) {
   b4186:	1e0c      	subs	r4, r1, #0
size_t Print::print(T n, int base)
   b4188:	4606      	mov	r6, r0
   b418a:	4615      	mov	r5, r2
        if (n < 0 && base == 10) {
   b418c:	da0b      	bge.n	b41a6 <_ZN5Print5printIlLi0EEEjT_i.part.0.isra.0+0x22>
   b418e:	2a0a      	cmp	r2, #10
   b4190:	d109      	bne.n	b41a6 <_ZN5Print5printIlLi0EEEjT_i.part.0.isra.0+0x22>
            t = print('-');
   b4192:	212d      	movs	r1, #45	; 0x2d
   b4194:	f005 fe2c 	bl	b9df0 <_ZN5Print5printEc>
            val = -n;
   b4198:	4261      	negs	r1, r4
            val = n;
        }
#if __GNUC__ >= 9
#pragma GCC diagnostic pop
#endif // __GNUC__ >= 9
        return printNumber(val, base) + t;
   b419a:	b2ea      	uxtb	r2, r5
   b419c:	4630      	mov	r0, r6
    }
}
   b419e:	e8bd 4070 	ldmia.w	sp!, {r4, r5, r6, lr}
        return printNumber(val, base) + t;
   b41a2:	f005 be40 	b.w	b9e26 <_ZN5Print11printNumberEmh>
            val = n;
   b41a6:	4621      	mov	r1, r4
   b41a8:	e7f7      	b.n	b419a <_ZN5Print5printIlLi0EEEjT_i.part.0.isra.0+0x16>

000b41aa <_ZN13FatFileSystem5mkdirEPKcb.isra.0>:
   * \param[in] pFlag Create missing parent directories if true.
   *
   * \return The value true is returned for success and
   * the value false is returned for failure.
   */
  bool mkdir(const char* path, bool pFlag = true) {
   b41aa:	b500      	push	{lr}
   b41ac:	b08b      	sub	sp, #44	; 0x2c
   b41ae:	4613      	mov	r3, r2
  FatFile() : m_attr(FILE_ATTR_CLOSED), m_error(0) {}
   b41b0:	2200      	movs	r2, #0
   b41b2:	9201      	str	r2, [sp, #4]
    FatFile sub;
    return sub.mkdir(vwd(), path, pFlag);
   b41b4:	460a      	mov	r2, r1
   b41b6:	f200 413c 	addw	r1, r0, #1084	; 0x43c
   b41ba:	a801      	add	r0, sp, #4
   b41bc:	f002 fab0 	bl	b6720 <_ZN7FatFile5mkdirEPS_PKcb>
  }
   b41c0:	b00b      	add	sp, #44	; 0x2c
   b41c2:	f85d fb04 	ldr.w	pc, [sp], #4

000b41c6 <_ZN4File5writeEh>:
  size_t write(uint8_t b) {
   b41c6:	b507      	push	{r0, r1, r2, lr}
  /** Write a single byte.
   * \param[in] b The byte to be written.
   * \return +1 for success or -1 for failure.
   */
  int write(uint8_t b) {
    return write(&b, 1);
   b41c8:	2201      	movs	r2, #1
   b41ca:	f88d 1007 	strb.w	r1, [sp, #7]
   b41ce:	3010      	adds	r0, #16
   b41d0:	f10d 0107 	add.w	r1, sp, #7
   b41d4:	f002 faf6 	bl	b67c4 <_ZN7FatFile5writeEPKvj>
  }
   b41d8:	b003      	add	sp, #12
   b41da:	f85d fb04 	ldr.w	pc, [sp], #4

000b41de <_ZN5Print6printfEPKcz>:
    size_t printf(const char* format, ...) __attribute__ ((format(printf, 2, 3)))
   b41de:	b40e      	push	{r1, r2, r3}
   b41e0:	b503      	push	{r0, r1, lr}
   b41e2:	ab03      	add	r3, sp, #12
        auto r = this->vprintf(false, format, args);
   b41e4:	2100      	movs	r1, #0
    size_t printf(const char* format, ...) __attribute__ ((format(printf, 2, 3)))
   b41e6:	f853 2b04 	ldr.w	r2, [r3], #4
        va_start(args, format);
   b41ea:	9301      	str	r3, [sp, #4]
        auto r = this->vprintf(false, format, args);
   b41ec:	f005 ff2b 	bl	ba046 <_ZN5Print7vprintfEbPKcSt9__va_list>
    }
   b41f0:	b002      	add	sp, #8
   b41f2:	f85d eb04 	ldr.w	lr, [sp], #4
   b41f6:	b003      	add	sp, #12
   b41f8:	4770      	bx	lr
	...

000b41fc <_ZNK8particle11SPISettings7printToER5Print>:
  bool operator!=(const SPISettings& other) const
  {
    return !(other == *this);
  }

  virtual size_t printTo(Print& p) const
   b41fc:	b573      	push	{r0, r1, r4, r5, r6, lr}
   b41fe:	4604      	mov	r4, r0
   b4200:	4608      	mov	r0, r1
  {
    if (default_ && clock_ == 0)
   b4202:	7922      	ldrb	r2, [r4, #4]
   b4204:	68a3      	ldr	r3, [r4, #8]
   b4206:	b132      	cbz	r2, b4216 <_ZNK8particle11SPISettings7printToER5Print+0x1a>
   b4208:	b9a3      	cbnz	r3, b4234 <_ZNK8particle11SPISettings7printToER5Print+0x38>
      return p.print("<SPISettings default>");
   b420a:	490b      	ldr	r1, [pc, #44]	; (b4238 <_ZNK8particle11SPISettings7printToER5Print+0x3c>)
    else
      return p.printf("<SPISettings %s%u %s MODE%u>", default_ ? "default " : "", (unsigned int)clock_,
          bitOrder_ == MSBFIRST ? "MSB" : "LSB", (unsigned int)dataMode_);
  }
   b420c:	b002      	add	sp, #8
   b420e:	e8bd 4070 	ldmia.w	sp!, {r4, r5, r6, lr}
      return p.print("<SPISettings default>");
   b4212:	f005 bde9 	b.w	b9de8 <_ZN5Print5printEPKc>
      return p.printf("<SPISettings %s%u %s MODE%u>", default_ ? "default " : "", (unsigned int)clock_,
   b4216:	4a09      	ldr	r2, [pc, #36]	; (b423c <_ZNK8particle11SPISettings7printToER5Print+0x40>)
   b4218:	7b26      	ldrb	r6, [r4, #12]
   b421a:	4d09      	ldr	r5, [pc, #36]	; (b4240 <_ZNK8particle11SPISettings7printToER5Print+0x44>)
   b421c:	4909      	ldr	r1, [pc, #36]	; (b4244 <_ZNK8particle11SPISettings7printToER5Print+0x48>)
   b421e:	7b64      	ldrb	r4, [r4, #13]
   b4220:	2e01      	cmp	r6, #1
   b4222:	bf18      	it	ne
   b4224:	4629      	movne	r1, r5
   b4226:	e9cd 1400 	strd	r1, r4, [sp]
   b422a:	4907      	ldr	r1, [pc, #28]	; (b4248 <_ZNK8particle11SPISettings7printToER5Print+0x4c>)
   b422c:	f7ff ffd7 	bl	b41de <_ZN5Print6printfEPKcz>
  }
   b4230:	b002      	add	sp, #8
   b4232:	bd70      	pop	{r4, r5, r6, pc}
      return p.printf("<SPISettings %s%u %s MODE%u>", default_ ? "default " : "", (unsigned int)clock_,
   b4234:	4a05      	ldr	r2, [pc, #20]	; (b424c <_ZNK8particle11SPISettings7printToER5Print+0x50>)
   b4236:	e7ef      	b.n	b4218 <_ZNK8particle11SPISettings7printToER5Print+0x1c>
   b4238:	000bc81a 	.word	0x000bc81a
   b423c:	000bca2a 	.word	0x000bca2a
   b4240:	000bc816 	.word	0x000bc816
   b4244:	000bc812 	.word	0x000bc812
   b4248:	000bc830 	.word	0x000bc830
   b424c:	000bc809 	.word	0x000bc809

000b4250 <_ZNK5spark6Logger4infoEPKcz>:
    va_start(args, fmt);
    log(LOG_LEVEL_TRACE, fmt, args);
    va_end(args);
}

inline void spark::Logger::info(const char *fmt, ...) const {
   b4250:	b40e      	push	{r1, r2, r3}
   b4252:	b500      	push	{lr}
   b4254:	b08c      	sub	sp, #48	; 0x30
   b4256:	aa0d      	add	r2, sp, #52	; 0x34
}

inline void spark::Logger::log(LogLevel level, const char *fmt, va_list args) const {
    LogAttributes attr;
    attr.size = sizeof(LogAttributes);
    attr.flags = 0;
   b4258:	f04f 0c20 	mov.w	ip, #32
inline void spark::Logger::info(const char *fmt, ...) const {
   b425c:	f852 1b04 	ldr.w	r1, [r2], #4
    va_start(args, fmt);
   b4260:	9203      	str	r2, [sp, #12]
    log_message_v(level, name_, &attr, nullptr, fmt, args);
   b4262:	e9cd 1200 	strd	r1, r2, [sp]
    attr.flags = 0;
   b4266:	2300      	movs	r3, #0
    log_message_v(level, name_, &attr, nullptr, fmt, args);
   b4268:	6801      	ldr	r1, [r0, #0]
   b426a:	aa04      	add	r2, sp, #16
   b426c:	201e      	movs	r0, #30
    attr.flags = 0;
   b426e:	e9cd c304 	strd	ip, r3, [sp, #16]
    log_message_v(level, name_, &attr, nullptr, fmt, args);
   b4272:	f003 fd79 	bl	b7d68 <log_message_v>
}
   b4276:	b00c      	add	sp, #48	; 0x30
   b4278:	f85d eb04 	ldr.w	lr, [sp], #4
   b427c:	b003      	add	sp, #12
   b427e:	4770      	bx	lr

000b4280 <_ZNK5spark6Logger4warnEPKcz>:
inline void spark::Logger::warn(const char *fmt, ...) const {
   b4280:	b40e      	push	{r1, r2, r3}
   b4282:	b500      	push	{lr}
   b4284:	b08c      	sub	sp, #48	; 0x30
   b4286:	aa0d      	add	r2, sp, #52	; 0x34
    attr.flags = 0;
   b4288:	f04f 0c20 	mov.w	ip, #32
inline void spark::Logger::warn(const char *fmt, ...) const {
   b428c:	f852 1b04 	ldr.w	r1, [r2], #4
    va_start(args, fmt);
   b4290:	9203      	str	r2, [sp, #12]
    log_message_v(level, name_, &attr, nullptr, fmt, args);
   b4292:	e9cd 1200 	strd	r1, r2, [sp]
    attr.flags = 0;
   b4296:	2300      	movs	r3, #0
    log_message_v(level, name_, &attr, nullptr, fmt, args);
   b4298:	6801      	ldr	r1, [r0, #0]
   b429a:	aa04      	add	r2, sp, #16
   b429c:	2028      	movs	r0, #40	; 0x28
    attr.flags = 0;
   b429e:	e9cd c304 	strd	ip, r3, [sp, #16]
    log_message_v(level, name_, &attr, nullptr, fmt, args);
   b42a2:	f003 fd61 	bl	b7d68 <log_message_v>
}
   b42a6:	b00c      	add	sp, #48	; 0x30
   b42a8:	f85d eb04 	ldr.w	lr, [sp], #4
   b42ac:	b003      	add	sp, #12
   b42ae:	4770      	bx	lr

000b42b0 <_ZN7FatFile6existsEPKc>:
  bool exists(const char* path) {
   b42b0:	b500      	push	{lr}
   b42b2:	b08b      	sub	sp, #44	; 0x2c
   b42b4:	460a      	mov	r2, r1
  FatFile() : m_attr(FILE_ATTR_CLOSED), m_error(0) {}
   b42b6:	2300      	movs	r3, #0
    return file.open(this, path, O_RDONLY);
   b42b8:	4601      	mov	r1, r0
   b42ba:	a801      	add	r0, sp, #4
  FatFile() : m_attr(FILE_ATTR_CLOSED), m_error(0) {}
   b42bc:	9301      	str	r3, [sp, #4]
    return file.open(this, path, O_RDONLY);
   b42be:	f002 f958 	bl	b6572 <_ZN7FatFile4openEPS_PKci>
  }
   b42c2:	b00b      	add	sp, #44	; 0x2c
   b42c4:	f85d fb04 	ldr.w	pc, [sp], #4

000b42c8 <_ZN7FatFile6setCwdEPS_>:
    if (!dir || !dir->isDir()) {
   b42c8:	b140      	cbz	r0, b42dc <_ZN7FatFile6setCwdEPS_+0x14>
   b42ca:	7803      	ldrb	r3, [r0, #0]
   b42cc:	f013 0370 	ands.w	r3, r3, #112	; 0x70
   b42d0:	d003      	beq.n	b42da <_ZN7FatFile6setCwdEPS_+0x12>
    m_cwd = dir;
   b42d2:	4b03      	ldr	r3, [pc, #12]	; (b42e0 <_ZN7FatFile6setCwdEPS_+0x18>)
   b42d4:	6018      	str	r0, [r3, #0]
    return true;
   b42d6:	2001      	movs	r0, #1
   b42d8:	4770      	bx	lr
      return false;
   b42da:	4618      	mov	r0, r3
  }
   b42dc:	4770      	bx	lr
   b42de:	bf00      	nop
   b42e0:	2003e680 	.word	0x2003e680

000b42e4 <_ZN13FatFileSystem5chdirEPKcb.isra.0>:
  bool chdir(const char *path, bool set_cwd = false) {
   b42e4:	b5f0      	push	{r4, r5, r6, r7, lr}
   b42e6:	b08b      	sub	sp, #44	; 0x2c
  FatFile() : m_attr(FILE_ATTR_CLOSED), m_error(0) {}
   b42e8:	2300      	movs	r3, #0
   b42ea:	9301      	str	r3, [sp, #4]
    if (path[0] == '/' && path[1] == '\0') {
   b42ec:	780b      	ldrb	r3, [r1, #0]
   b42ee:	2b2f      	cmp	r3, #47	; 0x2f
  bool chdir(const char *path, bool set_cwd = false) {
   b42f0:	4604      	mov	r4, r0
   b42f2:	4617      	mov	r7, r2
  FatVolume* vol() {
    return this;
  }
  /** \return a pointer to the volume working directory. */
  FatFile* vwd() {
    return &m_vwd;
   b42f4:	f200 463c 	addw	r6, r0, #1084	; 0x43c
    if (path[0] == '/' && path[1] == '\0') {
   b42f8:	d10f      	bne.n	b431a <_ZN13FatFileSystem5chdirEPKcb.isra.0+0x36>
   b42fa:	784b      	ldrb	r3, [r1, #1]
   b42fc:	b96b      	cbnz	r3, b431a <_ZN13FatFileSystem5chdirEPKcb.isra.0+0x36>
    vwd()->close();
   b42fe:	4630      	mov	r0, r6
   b4300:	f002 f930 	bl	b6564 <_ZN7FatFile5closeEv>
    return vwd()->openRoot(this) && (set_cwd ? FatFile::setCwd(vwd()) : true);
   b4304:	4621      	mov	r1, r4
   b4306:	4630      	mov	r0, r6
   b4308:	f001 ff63 	bl	b61d2 <_ZN7FatFile8openRootEP9FatVolume>
   b430c:	b118      	cbz	r0, b4316 <_ZN13FatFileSystem5chdirEPKcb.isra.0+0x32>
    if (set_cwd) {
   b430e:	b117      	cbz	r7, b4316 <_ZN13FatFileSystem5chdirEPKcb.isra.0+0x32>
      FatFile::setCwd(vwd());
   b4310:	4630      	mov	r0, r6
   b4312:	f7ff ffd9 	bl	b42c8 <_ZN7FatFile6setCwdEPS_>
  }
   b4316:	b00b      	add	sp, #44	; 0x2c
   b4318:	bdf0      	pop	{r4, r5, r6, r7, pc}
    if (!dir.open(vwd(), path, O_RDONLY)) {
   b431a:	460a      	mov	r2, r1
   b431c:	2300      	movs	r3, #0
   b431e:	4631      	mov	r1, r6
   b4320:	a801      	add	r0, sp, #4
   b4322:	f002 f926 	bl	b6572 <_ZN7FatFile4openEPS_PKci>
   b4326:	2800      	cmp	r0, #0
   b4328:	d0f5      	beq.n	b4316 <_ZN13FatFileSystem5chdirEPKcb.isra.0+0x32>
    if (!dir.isDir()) {
   b432a:	f89d 3004 	ldrb.w	r3, [sp, #4]
   b432e:	f013 0f70 	tst.w	r3, #112	; 0x70
   b4332:	d0f0      	beq.n	b4316 <_ZN13FatFileSystem5chdirEPKcb.isra.0+0x32>
    m_vwd = dir;
   b4334:	ac01      	add	r4, sp, #4
   b4336:	cc0f      	ldmia	r4!, {r0, r1, r2, r3}
   b4338:	4635      	mov	r5, r6
   b433a:	c50f      	stmia	r5!, {r0, r1, r2, r3}
   b433c:	cc0f      	ldmia	r4!, {r0, r1, r2, r3}
   b433e:	c50f      	stmia	r5!, {r0, r1, r2, r3}
   b4340:	6823      	ldr	r3, [r4, #0]
   b4342:	602b      	str	r3, [r5, #0]
   b4344:	e7e3      	b.n	b430e <_ZN13FatFileSystem5chdirEPKcb.isra.0+0x2a>
	...

000b4348 <_ZN7TestLibC1Eb>:
TestLib::TestLib(bool displayMsg) {
   b4348:	b537      	push	{r0, r1, r2, r4, r5, lr}
   b434a:	f240 7305 	movw	r3, #1797	; 0x705
   b434e:	8003      	strh	r3, [r0, #0]
#else  // ENABLE_EXTENDED_TRANSFER_CLASS || ENABLE_SDIO_CLASS
class SdSpiCard {
#endif  // ENABLE_EXTENDED_TRANSFER_CLASS || ENABLE_SDIO_CLASS
 public:
  /** Construct an instance of SdSpiCard. */
  SdSpiCard() : m_errorCode(SD_CARD_ERROR_INIT_NOT_CALLED), m_type(0) {}
   b4350:	2264      	movs	r2, #100	; 0x64
   b4352:	2302      	movs	r3, #2
   b4354:	7083      	strb	r3, [r0, #2]
   b4356:	f880 2468 	strb.w	r2, [r0, #1128]	; 0x468
   b435a:	2308      	movs	r3, #8
  {
   b435c:	4a40      	ldr	r2, [pc, #256]	; (b4460 <_ZN7TestLibC1Eb+0x118>)
   b435e:	8083      	strh	r3, [r0, #4]
   b4360:	f8c0 2478 	str.w	r2, [r0, #1144]	; 0x478
 */
class FatVolume {
 public:
  /** Create an instance of FatVolume
   */
  FatVolume() : m_fatType(0) {}
   b4364:	2300      	movs	r3, #0
   b4366:	2201      	movs	r2, #1

template <hal_spi_interface_t Interface>
class SpiProxy {
public:
    static SPIClass& instance() {
        static SPIClass instance(Interface);
   b4368:	4d3e      	ldr	r5, [pc, #248]	; (b4464 <_ZN7TestLibC1Eb+0x11c>)
   b436a:	73c3      	strb	r3, [r0, #15]
   b436c:	f8a0 3444 	strh.w	r3, [r0, #1092]	; 0x444
   b4370:	f880 3472 	strb.w	r3, [r0, #1138]	; 0x472
   b4374:	f880 247c 	strb.w	r2, [r0, #1148]	; 0x47c
   b4378:	f8c0 3480 	str.w	r3, [r0, #1152]	; 0x480
   b437c:	f8a0 3484 	strh.w	r3, [r0, #1156]	; 0x484
   b4380:	7829      	ldrb	r1, [r5, #0]
   b4382:	f3bf 8f5b 	dmb	ish
   b4386:	4011      	ands	r1, r2
   b4388:	4604      	mov	r4, r0
   b438a:	d10b      	bne.n	b43a4 <_ZN7TestLibC1Eb+0x5c>
   b438c:	4628      	mov	r0, r5
   b438e:	9101      	str	r1, [sp, #4]
   b4390:	f7ff fe94 	bl	b40bc <__cxa_guard_acquire>
   b4394:	9901      	ldr	r1, [sp, #4]
   b4396:	b128      	cbz	r0, b43a4 <_ZN7TestLibC1Eb+0x5c>
   b4398:	4833      	ldr	r0, [pc, #204]	; (b4468 <_ZN7TestLibC1Eb+0x120>)
   b439a:	f005 fe9f 	bl	ba0dc <_ZN8SPIClassC1E19hal_spi_interface_t>
   b439e:	4628      	mov	r0, r5
   b43a0:	f7ff fe91 	bl	b40c6 <__cxa_guard_release>
#if IMPLEMENT_SPI_PORT_SELECTION || defined(DOXYGEN)
  /** Set SPI port number.
   * \param[in] spiPort Hardware SPI port.
   */
  void setPort(SPIClass* spiPort) {
    m_spi = spiPort ? spiPort : &SDCARD_SPI;
   b43a4:	4b30      	ldr	r3, [pc, #192]	; (b4468 <_ZN7TestLibC1Eb+0x120>)
   b43a6:	f8c4 3474 	str.w	r3, [r4, #1140]	; 0x474
   b43aa:	f204 408c 	addw	r0, r4, #1164	; 0x48c
   b43ae:	f001 fc4a 	bl	b5c46 <_ZN16Adafruit_MCP9600C1Ev>
public:
    // Constructor
    SystemSleepConfiguration()
            : SystemSleepConfigurationHelper(&config_),
              config_(),
              valid_(true) {
   b43b2:	2510      	movs	r5, #16
            : SystemSleepConfigurationHelper(&config_),
   b43b4:	f204 409c 	addw	r0, r4, #1180	; 0x49c
              valid_(true) {
   b43b8:	462a      	mov	r2, r5
   b43ba:	2100      	movs	r1, #0
        : config_(config) {
   b43bc:	f8c4 0498 	str.w	r0, [r4, #1176]	; 0x498
              valid_(true) {
   b43c0:	f008 f83c 	bl	bc43c <memset>
   b43c4:	2301      	movs	r3, #1
   b43c6:	f884 34ac 	strb.w	r3, [r4, #1196]	; 0x4ac
        config_.size = sizeof(hal_sleep_config_t);
        config_.version = HAL_SLEEP_VERSION;
   b43ca:	2303      	movs	r3, #3
   b43cc:	f8a4 349e 	strh.w	r3, [r4, #1182]	; 0x49e
   b43d0:	f241 2313 	movw	r3, #4627	; 0x1213
   b43d4:	f8a4 34b0 	strh.w	r3, [r4, #1200]	; 0x4b0
   b43d8:	2311      	movs	r3, #17
   b43da:	f884 34b2 	strb.w	r3, [r4, #1202]	; 0x4b2
   b43de:	4923      	ldr	r1, [pc, #140]	; (b446c <_ZN7TestLibC1Eb+0x124>)
        config_.size = sizeof(hal_sleep_config_t);
   b43e0:	f8a4 549c 	strh.w	r5, [r4, #1180]	; 0x49c
   b43e4:	f504 6097 	add.w	r0, r4, #1208	; 0x4b8
   b43e8:	f005 ffe3 	bl	ba3b2 <_ZN6StringC1EPK19__FlashStringHelper>
   b43ec:	4920      	ldr	r1, [pc, #128]	; (b4470 <_ZN7TestLibC1Eb+0x128>)
   b43ee:	f504 6099 	add.w	r0, r4, #1224	; 0x4c8
   b43f2:	f005 ffde 	bl	ba3b2 <_ZN6StringC1EPK19__FlashStringHelper>
   b43f6:	2100      	movs	r1, #0
   b43f8:	f504 609b 	add.w	r0, r4, #1240	; 0x4d8
   b43fc:	f001 fda8 	bl	b5f50 <_ZN8DateTimeC1Em>
   b4400:	4b1c      	ldr	r3, [pc, #112]	; (b4474 <_ZN7TestLibC1Eb+0x12c>)
   b4402:	f204 42de 	addw	r2, r4, #1246	; 0x4de
   b4406:	1959      	adds	r1, r3, r5
   b4408:	f853 0b04 	ldr.w	r0, [r3], #4
   b440c:	f842 0b04 	str.w	r0, [r2], #4
   b4410:	428b      	cmp	r3, r1
   b4412:	d1f9      	bne.n	b4408 <_ZN7TestLibC1Eb+0xc0>
   b4414:	2219      	movs	r2, #25
   b4416:	f8c4 24f4 	str.w	r2, [r4, #1268]	; 0x4f4
   b441a:	f504 62a0 	add.w	r2, r4, #1280	; 0x500
   b441e:	2300      	movs	r3, #0
   b4420:	4915      	ldr	r1, [pc, #84]	; (b4478 <_ZN7TestLibC1Eb+0x130>)
   b4422:	f8c4 34f0 	str.w	r3, [r4, #1264]	; 0x4f0
   b4426:	f8c4 34f8 	str.w	r3, [r4, #1272]	; 0x4f8
   b442a:	f8a4 34fc 	strh.w	r3, [r4, #1276]	; 0x4fc
   b442e:	6011      	str	r1, [r2, #0]
   b4430:	f204 5204 	addw	r2, r4, #1284	; 0x504
   b4434:	4911      	ldr	r1, [pc, #68]	; (b447c <_ZN7TestLibC1Eb+0x134>)
   b4436:	6011      	str	r1, [r2, #0]
   b4438:	4911      	ldr	r1, [pc, #68]	; (b4480 <_ZN7TestLibC1Eb+0x138>)
   b443a:	f504 62a2 	add.w	r2, r4, #1296	; 0x510
   b443e:	2000      	movs	r0, #0
   b4440:	e942 0102 	strd	r0, r1, [r2, #-8]
   b4444:	2000      	movs	r0, #0
   b4446:	2100      	movs	r1, #0
   b4448:	e9c2 0100 	strd	r0, r1, [r2]
}
   b444c:	4620      	mov	r0, r4
TestLib::TestLib(bool displayMsg) {
   b444e:	f884 3530 	strb.w	r3, [r4, #1328]	; 0x530
   b4452:	f884 3531 	strb.w	r3, [r4, #1329]	; 0x531
   b4456:	f8c4 3534 	str.w	r3, [r4, #1332]	; 0x534
}
   b445a:	b003      	add	sp, #12
   b445c:	bd30      	pop	{r4, r5, pc}
   b445e:	bf00      	nop
   b4460:	000bcb0c 	.word	0x000bcb0c
   b4464:	2003dc40 	.word	0x2003dc40
   b4468:	2003dc44 	.word	0x2003dc44
   b446c:	000bca2a 	.word	0x000bca2a
   b4470:	000bc84d 	.word	0x000bc84d
   b4474:	000bcb40 	.word	0x000bcb40
   b4478:	40533333 	.word	0x40533333
   b447c:	42480000 	.word	0x42480000
   b4480:	7ff80000 	.word	0x7ff80000

000b4484 <_ZN7TestLib7TCsetupEv>:
void TestLib::TCsetup() {
   b4484:	b530      	push	{r4, r5, lr}
   b4486:	b085      	sub	sp, #20
   b4488:	4604      	mov	r4, r0
    Serial.println("In TC Setup");
   b448a:	f006 fa1d 	bl	ba8c8 <_Z16_fetch_usbserialv>
   b448e:	495e      	ldr	r1, [pc, #376]	; (b4608 <_ZN7TestLib7TCsetupEv+0x184>)
   b4490:	f005 fcbd 	bl	b9e0e <_ZN5Print7printlnEPKc>
    if (! mcp.begin(I2C_ADDRESS)) {
   b4494:	f006 fbe4 	bl	bac60 <_Z19__fetch_global_Wirev>
   b4498:	f204 448c 	addw	r4, r4, #1164	; 0x48c
   b449c:	4602      	mov	r2, r0
   b449e:	2167      	movs	r1, #103	; 0x67
   b44a0:	4620      	mov	r0, r4
   b44a2:	f001 fbe4 	bl	b5c6e <_ZN16Adafruit_MCP96005beginEhP7TwoWire>
   b44a6:	b920      	cbnz	r0, b44b2 <_ZN7TestLib7TCsetupEv+0x2e>
        Serial.println("Thermocouple amplifier not found. Check wiring!");
   b44a8:	f006 fa0e 	bl	ba8c8 <_Z16_fetch_usbserialv>
   b44ac:	4957      	ldr	r1, [pc, #348]	; (b460c <_ZN7TestLib7TCsetupEv+0x188>)
   b44ae:	f005 fcae 	bl	b9e0e <_ZN5Print7printlnEPKc>
    Serial.println("Found MCP9600!");
   b44b2:	f006 fa09 	bl	ba8c8 <_Z16_fetch_usbserialv>
   b44b6:	4956      	ldr	r1, [pc, #344]	; (b4610 <_ZN7TestLib7TCsetupEv+0x18c>)
   b44b8:	f005 fca9 	bl	b9e0e <_ZN5Print7printlnEPKc>
    mcp.setADCresolution(MCP9600_ADCRESOLUTION_18);
   b44bc:	2100      	movs	r1, #0
   b44be:	4620      	mov	r0, r4
   b44c0:	f001 fc44 	bl	b5d4c <_ZN16Adafruit_MCP960016setADCresolutionE11_resolution>
    Serial.print("ADC resolution set to ");
   b44c4:	f006 fa00 	bl	ba8c8 <_Z16_fetch_usbserialv>
   b44c8:	4952      	ldr	r1, [pc, #328]	; (b4614 <_ZN7TestLib7TCsetupEv+0x190>)
   b44ca:	f005 fc8d 	bl	b9de8 <_ZN5Print5printEPKc>
    switch (mcp.getADCresolution()) {
   b44ce:	4620      	mov	r0, r4
   b44d0:	f001 fc4a 	bl	b5d68 <_ZN16Adafruit_MCP960016getADCresolutionEv>
   b44d4:	2803      	cmp	r0, #3
   b44d6:	d808      	bhi.n	b44ea <_ZN7TestLib7TCsetupEv+0x66>
   b44d8:	e8df f000 	tbb	[pc, r0]
   b44dc:	28242002 	.word	0x28242002
        case MCP9600_ADCRESOLUTION_18:   Serial.print("18"); break;
   b44e0:	f006 f9f2 	bl	ba8c8 <_Z16_fetch_usbserialv>
   b44e4:	494c      	ldr	r1, [pc, #304]	; (b4618 <_ZN7TestLib7TCsetupEv+0x194>)
        case MCP9600_ADCRESOLUTION_12:   Serial.print("12"); break;
   b44e6:	f005 fc7f 	bl	b9de8 <_ZN5Print5printEPKc>
    Serial.println(" bits");
   b44ea:	f006 f9ed 	bl	ba8c8 <_Z16_fetch_usbserialv>
   b44ee:	494b      	ldr	r1, [pc, #300]	; (b461c <_ZN7TestLib7TCsetupEv+0x198>)
   b44f0:	f005 fc8d 	bl	b9e0e <_ZN5Print7printlnEPKc>
    mcp.setThermocoupleType(MCP9600_TYPE_T);
   b44f4:	2102      	movs	r1, #2
   b44f6:	4620      	mov	r0, r4
   b44f8:	f001 fc70 	bl	b5ddc <_ZN16Adafruit_MCP960019setThermocoupleTypeE10_themotype>
    Serial.print("Thermocouple type set to ");
   b44fc:	f006 f9e4 	bl	ba8c8 <_Z16_fetch_usbserialv>
   b4500:	4947      	ldr	r1, [pc, #284]	; (b4620 <_ZN7TestLib7TCsetupEv+0x19c>)
   b4502:	f005 fc71 	bl	b9de8 <_ZN5Print5printEPKc>
    switch (mcp.getThermocoupleType()) {
   b4506:	4620      	mov	r0, r4
   b4508:	f001 fc51 	bl	b5dae <_ZN16Adafruit_MCP960019getThermocoupleTypeEv>
   b450c:	2807      	cmp	r0, #7
   b450e:	d816      	bhi.n	b453e <_ZN7TestLib7TCsetupEv+0xba>
   b4510:	e8df f000 	tbb	[pc, r0]
   b4514:	65615d10 	.word	0x65615d10
   b4518:	75716d69 	.word	0x75716d69
        case MCP9600_ADCRESOLUTION_16:   Serial.print("16"); break;
   b451c:	f006 f9d4 	bl	ba8c8 <_Z16_fetch_usbserialv>
   b4520:	4940      	ldr	r1, [pc, #256]	; (b4624 <_ZN7TestLib7TCsetupEv+0x1a0>)
   b4522:	e7e0      	b.n	b44e6 <_ZN7TestLib7TCsetupEv+0x62>
        case MCP9600_ADCRESOLUTION_14:   Serial.print("14"); break;
   b4524:	f006 f9d0 	bl	ba8c8 <_Z16_fetch_usbserialv>
   b4528:	493f      	ldr	r1, [pc, #252]	; (b4628 <_ZN7TestLib7TCsetupEv+0x1a4>)
   b452a:	e7dc      	b.n	b44e6 <_ZN7TestLib7TCsetupEv+0x62>
        case MCP9600_ADCRESOLUTION_12:   Serial.print("12"); break;
   b452c:	f006 f9cc 	bl	ba8c8 <_Z16_fetch_usbserialv>
   b4530:	493e      	ldr	r1, [pc, #248]	; (b462c <_ZN7TestLib7TCsetupEv+0x1a8>)
   b4532:	e7d8      	b.n	b44e6 <_ZN7TestLib7TCsetupEv+0x62>
        case MCP9600_TYPE_K:  Serial.print("K"); break;
   b4534:	f006 f9c8 	bl	ba8c8 <_Z16_fetch_usbserialv>
   b4538:	493d      	ldr	r1, [pc, #244]	; (b4630 <_ZN7TestLib7TCsetupEv+0x1ac>)
        case MCP9600_TYPE_R:  Serial.print("R"); break;
   b453a:	f005 fc55 	bl	b9de8 <_ZN5Print5printEPKc>
    Serial.println(" type");
   b453e:	f006 f9c3 	bl	ba8c8 <_Z16_fetch_usbserialv>
   b4542:	493c      	ldr	r1, [pc, #240]	; (b4634 <_ZN7TestLib7TCsetupEv+0x1b0>)
   b4544:	f005 fc63 	bl	b9e0e <_ZN5Print7printlnEPKc>
    mcp.setFilterCoefficient(3);
   b4548:	2103      	movs	r1, #3
   b454a:	4620      	mov	r0, r4
   b454c:	f001 fc74 	bl	b5e38 <_ZN16Adafruit_MCP960020setFilterCoefficientEh>
    Serial.print("Filter coefficient value set to: ");
   b4550:	f006 f9ba 	bl	ba8c8 <_Z16_fetch_usbserialv>
   b4554:	4938      	ldr	r1, [pc, #224]	; (b4638 <_ZN7TestLib7TCsetupEv+0x1b4>)
   b4556:	f005 fc47 	bl	b9de8 <_ZN5Print5printEPKc>
    Serial.println(mcp.getFilterCoefficient());
   b455a:	f006 f9b5 	bl	ba8c8 <_Z16_fetch_usbserialv>
   b455e:	4605      	mov	r5, r0
   b4560:	4620      	mov	r0, r4
   b4562:	f001 fc52 	bl	b5e0a <_ZN16Adafruit_MCP960020getFilterCoefficientEv>
        return printNumber(val, base) + t;
   b4566:	220a      	movs	r2, #10
   b4568:	4601      	mov	r1, r0
   b456a:	4628      	mov	r0, r5
   b456c:	f005 fc5b 	bl	b9e26 <_ZN5Print11printNumberEmh>
        n += println();
   b4570:	4628      	mov	r0, r5
   b4572:	f005 fc40 	bl	b9df6 <_ZN5Print7printlnEv>
    mcp.setAlertTemperature(1, 30);
   b4576:	eeb3 0a0e 	vmov.f32	s0, #62	; 0x41f00000  30.0
   b457a:	2101      	movs	r1, #1
   b457c:	4620      	mov	r0, r4
   b457e:	f001 fc93 	bl	b5ea8 <_ZN16Adafruit_MCP960019setAlertTemperatureEhf>
    Serial.print("Alert #1 temperature set to ");
   b4582:	f006 f9a1 	bl	ba8c8 <_Z16_fetch_usbserialv>
   b4586:	492d      	ldr	r1, [pc, #180]	; (b463c <_ZN7TestLib7TCsetupEv+0x1b8>)
   b4588:	f005 fc2e 	bl	b9de8 <_ZN5Print5printEPKc>
    Serial.println(mcp.getAlertTemperature(1));
   b458c:	f006 f99c 	bl	ba8c8 <_Z16_fetch_usbserialv>
   b4590:	2101      	movs	r1, #1
   b4592:	4605      	mov	r5, r0
   b4594:	4620      	mov	r0, r4
   b4596:	f001 fc67 	bl	b5e68 <_ZN16Adafruit_MCP960019getAlertTemperatureEh>
   b459a:	2102      	movs	r1, #2
   b459c:	4628      	mov	r0, r5
   b459e:	f005 fd43 	bl	ba028 <_ZN5Print7printlnEfi>
    mcp.configureAlert(1, true, true);  // alert 1 enabled, rising temp
   b45a2:	2300      	movs	r3, #0
   b45a4:	e9cd 3301 	strd	r3, r3, [sp, #4]
   b45a8:	9300      	str	r3, [sp, #0]
   b45aa:	2301      	movs	r3, #1
   b45ac:	4619      	mov	r1, r3
   b45ae:	461a      	mov	r2, r3
   b45b0:	4620      	mov	r0, r4
   b45b2:	f001 fc9d 	bl	b5ef0 <_ZN16Adafruit_MCP960014configureAlertEhbbbbb>
    mcp.enable(true);
   b45b6:	2101      	movs	r1, #1
   b45b8:	4620      	mov	r0, r4
   b45ba:	f001 fb47 	bl	b5c4c <_ZN16Adafruit_MCP96006enableEb>
    Serial.println(F("------------------------------"));
   b45be:	f006 f983 	bl	ba8c8 <_Z16_fetch_usbserialv>
   b45c2:	491f      	ldr	r1, [pc, #124]	; (b4640 <_ZN7TestLib7TCsetupEv+0x1bc>)
}
   b45c4:	b005      	add	sp, #20
   b45c6:	e8bd 4030 	ldmia.w	sp!, {r4, r5, lr}
    Serial.println(F("------------------------------"));
   b45ca:	f005 bc2a 	b.w	b9e22 <_ZN5Print7printlnEPK19__FlashStringHelper>
        case MCP9600_TYPE_J:  Serial.print("J"); break;
   b45ce:	f006 f97b 	bl	ba8c8 <_Z16_fetch_usbserialv>
   b45d2:	491c      	ldr	r1, [pc, #112]	; (b4644 <_ZN7TestLib7TCsetupEv+0x1c0>)
   b45d4:	e7b1      	b.n	b453a <_ZN7TestLib7TCsetupEv+0xb6>
        case MCP9600_TYPE_T:  Serial.print("T"); break;
   b45d6:	f006 f977 	bl	ba8c8 <_Z16_fetch_usbserialv>
   b45da:	491b      	ldr	r1, [pc, #108]	; (b4648 <_ZN7TestLib7TCsetupEv+0x1c4>)
   b45dc:	e7ad      	b.n	b453a <_ZN7TestLib7TCsetupEv+0xb6>
        case MCP9600_TYPE_N:  Serial.print("N"); break;
   b45de:	f006 f973 	bl	ba8c8 <_Z16_fetch_usbserialv>
   b45e2:	491a      	ldr	r1, [pc, #104]	; (b464c <_ZN7TestLib7TCsetupEv+0x1c8>)
   b45e4:	e7a9      	b.n	b453a <_ZN7TestLib7TCsetupEv+0xb6>
        case MCP9600_TYPE_S:  Serial.print("S"); break;
   b45e6:	f006 f96f 	bl	ba8c8 <_Z16_fetch_usbserialv>
   b45ea:	4919      	ldr	r1, [pc, #100]	; (b4650 <_ZN7TestLib7TCsetupEv+0x1cc>)
   b45ec:	e7a5      	b.n	b453a <_ZN7TestLib7TCsetupEv+0xb6>
        case MCP9600_TYPE_E:  Serial.print("E"); break;
   b45ee:	f006 f96b 	bl	ba8c8 <_Z16_fetch_usbserialv>
   b45f2:	4918      	ldr	r1, [pc, #96]	; (b4654 <_ZN7TestLib7TCsetupEv+0x1d0>)
   b45f4:	e7a1      	b.n	b453a <_ZN7TestLib7TCsetupEv+0xb6>
        case MCP9600_TYPE_B:  Serial.print("B"); break;
   b45f6:	f006 f967 	bl	ba8c8 <_Z16_fetch_usbserialv>
   b45fa:	4917      	ldr	r1, [pc, #92]	; (b4658 <_ZN7TestLib7TCsetupEv+0x1d4>)
   b45fc:	e79d      	b.n	b453a <_ZN7TestLib7TCsetupEv+0xb6>
        case MCP9600_TYPE_R:  Serial.print("R"); break;
   b45fe:	f006 f963 	bl	ba8c8 <_Z16_fetch_usbserialv>
   b4602:	4916      	ldr	r1, [pc, #88]	; (b465c <_ZN7TestLib7TCsetupEv+0x1d8>)
   b4604:	e799      	b.n	b453a <_ZN7TestLib7TCsetupEv+0xb6>
   b4606:	bf00      	nop
   b4608:	000bc861 	.word	0x000bc861
   b460c:	000bc86d 	.word	0x000bc86d
   b4610:	000bc89d 	.word	0x000bc89d
   b4614:	000bc8ac 	.word	0x000bc8ac
   b4618:	000bc8c3 	.word	0x000bc8c3
   b461c:	000bc8cf 	.word	0x000bc8cf
   b4620:	000bc8d5 	.word	0x000bc8d5
   b4624:	000bc8c6 	.word	0x000bc8c6
   b4628:	000bc8c9 	.word	0x000bc8c9
   b462c:	000bc8cc 	.word	0x000bc8cc
   b4630:	000bc8ef 	.word	0x000bc8ef
   b4634:	000bc8f9 	.word	0x000bc8f9
   b4638:	000bc8ff 	.word	0x000bc8ff
   b463c:	000bc921 	.word	0x000bc921
   b4640:	000bc93e 	.word	0x000bc93e
   b4644:	000bc8f1 	.word	0x000bc8f1
   b4648:	000bc8f3 	.word	0x000bc8f3
   b464c:	000bc8f5 	.word	0x000bc8f5
   b4650:	000bc99d 	.word	0x000bc99d
   b4654:	000bc991 	.word	0x000bc991
   b4658:	000bc818 	.word	0x000bc818
   b465c:	000bc8f7 	.word	0x000bc8f7

000b4660 <_ZN7TestLib7relayOnEb>:
	digitalWrite(RELAY_PIN, state);
   b4660:	8880      	ldrh	r0, [r0, #4]
   b4662:	f006 bab6 	b.w	babd2 <digitalWrite>

000b4666 <_ZN7TestLib9blinkGoodEv>:
void TestLib::blinkGood() {
   b4666:	b510      	push	{r4, lr}
   b4668:	4604      	mov	r4, r0
    delay(2000);
   b466a:	f44f 60fa 	mov.w	r0, #2000	; 0x7d0
   b466e:	f003 fca5 	bl	b7fbc <delay>
    digitalWrite(BlueLED, HIGH);
   b4672:	7860      	ldrb	r0, [r4, #1]
   b4674:	2101      	movs	r1, #1
   b4676:	f006 faac 	bl	babd2 <digitalWrite>
    delay(5000);
   b467a:	f241 3088 	movw	r0, #5000	; 0x1388
   b467e:	f003 fc9d 	bl	b7fbc <delay>
    digitalWrite(BlueLED, LOW);
   b4682:	7860      	ldrb	r0, [r4, #1]
   b4684:	2100      	movs	r1, #0
}
   b4686:	e8bd 4010 	ldmia.w	sp!, {r4, lr}
    digitalWrite(BlueLED, LOW);
   b468a:	f006 baa2 	b.w	babd2 <digitalWrite>
	...

000b4690 <_ZN7TestLib7getTimeEv>:
{
   b4690:	b570      	push	{r4, r5, r6, lr}
   b4692:	b096      	sub	sp, #88	; 0x58
    now = rtc.now();
   b4694:	ad09      	add	r5, sp, #36	; 0x24
{
   b4696:	4606      	mov	r6, r0
    now = rtc.now();
   b4698:	4628      	mov	r0, r5
{
   b469a:	460c      	mov	r4, r1
    now = rtc.now();
   b469c:	f001 fca9 	bl	b5ff2 <_ZN11RTC_PCF85233nowEv>
   b46a0:	e895 0003 	ldmia.w	r5, {r0, r1}
   b46a4:	4603      	mov	r3, r0
   b46a6:	f8c4 04d8 	str.w	r0, [r4, #1240]	; 0x4d8
   b46aa:	f8a4 14dc 	strh.w	r1, [r4, #1244]	; 0x4dc
    DateTime (uint16_t year, uint8_t month, uint8_t day,
                uint8_t hour = 0, uint8_t min = 0, uint8_t sec = 0);
    DateTime (const DateTime& copy);
    DateTime (const char* date, const char* time);
    DateTime (const __FlashStringHelper* date, const __FlashStringHelper* time);
    uint16_t year() const       { return 2000 + yOff; }
   b46ae:	b2c2      	uxtb	r2, r0
    sprintf(temp, "%04d/%02d/%02d %02d:%02d:%02d", now.year(), now.month(), 
   b46b0:	f3c1 2007 	ubfx	r0, r1, #8, #8
   b46b4:	b2c9      	uxtb	r1, r1
   b46b6:	9102      	str	r1, [sp, #8]
   b46b8:	0e19      	lsrs	r1, r3, #24
   b46ba:	9101      	str	r1, [sp, #4]
   b46bc:	f3c3 4107 	ubfx	r1, r3, #16, #8
   b46c0:	f502 62fa 	add.w	r2, r2, #2000	; 0x7d0
   b46c4:	f3c3 2307 	ubfx	r3, r3, #8, #8
   b46c8:	9003      	str	r0, [sp, #12]
   b46ca:	9100      	str	r1, [sp, #0]
   b46cc:	4628      	mov	r0, r5
   b46ce:	4918      	ldr	r1, [pc, #96]	; (b4730 <_ZN7TestLib7getTimeEv+0xa0>)
   b46d0:	f003 fc44 	bl	b7f5c <sprintf>
    LogTimeDate = String(temp);
   b46d4:	4629      	mov	r1, r5
   b46d6:	a805      	add	r0, sp, #20
   b46d8:	f504 6599 	add.w	r5, r4, #1224	; 0x4c8
   b46dc:	f005 fe69 	bl	ba3b2 <_ZN6StringC1EPK19__FlashStringHelper>
   b46e0:	a905      	add	r1, sp, #20
   b46e2:	4628      	mov	r0, r5
   b46e4:	f005 febb 	bl	ba45e <_ZN6StringaSEOS_>
   b46e8:	a805      	add	r0, sp, #20
   b46ea:	f005 fe17 	bl	ba31c <_ZN6StringD1Ev>
   b46ee:	f894 34d8 	ldrb.w	r3, [r4, #1240]	; 0x4d8
    Time_Date[0] = now.year();
   b46f2:	f503 63fa 	add.w	r3, r3, #2000	; 0x7d0
   b46f6:	f8c4 3518 	str.w	r3, [r4, #1304]	; 0x518
    Time_Date[1] = now.month();
   b46fa:	f894 34d9 	ldrb.w	r3, [r4, #1241]	; 0x4d9
   b46fe:	f8c4 351c 	str.w	r3, [r4, #1308]	; 0x51c
    Time_Date[2] = now.day();
   b4702:	f894 34da 	ldrb.w	r3, [r4, #1242]	; 0x4da
   b4706:	f8c4 3520 	str.w	r3, [r4, #1312]	; 0x520
    Time_Date[3] = now.hour();
   b470a:	f894 34db 	ldrb.w	r3, [r4, #1243]	; 0x4db
   b470e:	f8c4 3524 	str.w	r3, [r4, #1316]	; 0x524
    Time_Date[4] = now.minute();
   b4712:	f894 34dc 	ldrb.w	r3, [r4, #1244]	; 0x4dc
   b4716:	f8c4 3528 	str.w	r3, [r4, #1320]	; 0x528
    Time_Date[5] = now.second();
   b471a:	f894 34dd 	ldrb.w	r3, [r4, #1245]	; 0x4dd
   b471e:	f8c4 352c 	str.w	r3, [r4, #1324]	; 0x52c
    return LogTimeDate;
   b4722:	4629      	mov	r1, r5
   b4724:	4630      	mov	r0, r6
   b4726:	f005 fe8f 	bl	ba448 <_ZN6StringC1ERKS_>
}
   b472a:	4630      	mov	r0, r6
   b472c:	b016      	add	sp, #88	; 0x58
   b472e:	bd70      	pop	{r4, r5, r6, pc}
   b4730:	000bc95d 	.word	0x000bc95d

000b4734 <_ZN7TestLib9clockTestEv>:
{
   b4734:	b57f      	push	{r0, r1, r2, r3, r4, r5, r6, lr}
   b4736:	4604      	mov	r4, r0
	Serial.print("Clock: ");
   b4738:	f006 f8c6 	bl	ba8c8 <_Z16_fetch_usbserialv>
   b473c:	4929      	ldr	r1, [pc, #164]	; (b47e4 <_ZN7TestLib9clockTestEv+0xb0>)
   b473e:	f005 fb53 	bl	b9de8 <_ZN5Print5printEPKc>
	Wire.beginTransmission(0x68);
   b4742:	f006 fa8d 	bl	bac60 <_Z19__fetch_global_Wirev>
   b4746:	2168      	movs	r1, #104	; 0x68
   b4748:	f004 f88c 	bl	b8864 <_ZN7TwoWire17beginTransmissionEi>
  	Wire.write(0xFF); // DEBUG: Margay address!
   b474c:	f006 fa88 	bl	bac60 <_Z19__fetch_global_Wirev>
  bool unlock();

  inline size_t write(unsigned long n) { return write((uint8_t)n); }
  inline size_t write(long n) { return write((uint8_t)n); }
  inline size_t write(unsigned int n) { return write((uint8_t)n); }
  inline size_t write(int n) { return write((uint8_t)n); }
   b4750:	6803      	ldr	r3, [r0, #0]
   b4752:	21ff      	movs	r1, #255	; 0xff
   b4754:	689b      	ldr	r3, [r3, #8]
   b4756:	4798      	blx	r3
    Wire.write(0x0F); // DEBUG!! PCF8523_CLKOUTCONTROL
   b4758:	f006 fa82 	bl	bac60 <_Z19__fetch_global_Wirev>
   b475c:	6803      	ldr	r3, [r0, #0]
   b475e:	210f      	movs	r1, #15
   b4760:	689b      	ldr	r3, [r3, #8]
   b4762:	4798      	blx	r3
	Error = Wire.endTransmission();    
   b4764:	f006 fa7c 	bl	bac60 <_Z19__fetch_global_Wirev>
   b4768:	f004 f883 	bl	b8872 <_ZN7TwoWire15endTransmissionEv>
	if(Error == 0) {
   b476c:	4605      	mov	r5, r0
   b476e:	b9b0      	cbnz	r0, b479e <_ZN7TestLib9clockTestEv+0x6a>
		getTime(); //FIX!
   b4770:	4621      	mov	r1, r4
   b4772:	4668      	mov	r0, sp
   b4774:	f7ff ff8c 	bl	b4690 <_ZN7TestLib7getTimeEv>
   b4778:	4668      	mov	r0, sp
   b477a:	f005 fdcf 	bl	ba31c <_ZN6StringD1Ev>
	  	delay(1100);
   b477e:	f240 404c 	movw	r0, #1100	; 0x44c
    uint8_t month() const       { return m; }
    uint8_t day() const         { return d; }
    uint8_t hour() const        { return hh; }
    uint8_t minute() const      { return mm; }
    uint8_t second() const      { return ss; }
   b4782:	f894 64dd 	ldrb.w	r6, [r4, #1245]	; 0x4dd
   b4786:	f003 fc19 	bl	b7fbc <delay>
        DateTime later = rtc.now();
   b478a:	4668      	mov	r0, sp
   b478c:	f001 fc31 	bl	b5ff2 <_ZN11RTC_PCF85233nowEv>
	  	if(later.second() == TestSeconds) {
   b4790:	f89d 3005 	ldrb.w	r3, [sp, #5]
   b4794:	42b3      	cmp	r3, r6
	  		OBError = true; //If clock is not incrementing
   b4796:	bf04      	itt	eq
   b4798:	2301      	moveq	r3, #1
   b479a:	f884 34f8 	strbeq.w	r3, [r4, #1272]	; 0x4f8
	if(YearNow == 2000) {  //If value is 2000, work around Y2K bug by setting time to Jan 1st, midnight, 2049
   b479e:	f894 34d8 	ldrb.w	r3, [r4, #1240]	; 0x4d8
   b47a2:	b93b      	cbnz	r3, b47b4 <_ZN7TestLib9clockTestEv+0x80>
		TimeError = true;
   b47a4:	2301      	movs	r3, #1
   b47a6:	f884 34fa 	strb.w	r3, [r4, #1274]	; 0x4fa
		Serial.println(" PASS, BAD TIME");
   b47aa:	f006 f88d 	bl	ba8c8 <_Z16_fetch_usbserialv>
   b47ae:	490e      	ldr	r1, [pc, #56]	; (b47e8 <_ZN7TestLib9clockTestEv+0xb4>)
   b47b0:	f005 fb2d 	bl	b9e0e <_ZN5Print7printlnEPKc>
	if(Error != 0) {
   b47b4:	b14d      	cbz	r5, b47ca <_ZN7TestLib9clockTestEv+0x96>
		Serial.println(" FAIL");
   b47b6:	f006 f887 	bl	ba8c8 <_Z16_fetch_usbserialv>
   b47ba:	490c      	ldr	r1, [pc, #48]	; (b47ec <_ZN7TestLib9clockTestEv+0xb8>)
   b47bc:	f005 fb27 	bl	b9e0e <_ZN5Print7printlnEPKc>
		OBError = true;
   b47c0:	2301      	movs	r3, #1
   b47c2:	f884 34f8 	strb.w	r3, [r4, #1272]	; 0x4f8
}
   b47c6:	b004      	add	sp, #16
   b47c8:	bd70      	pop	{r4, r5, r6, pc}
	else if(Error == 0 && OscStop == false && TimeError == false) {
   b47ca:	f894 34fa 	ldrb.w	r3, [r4, #1274]	; 0x4fa
   b47ce:	2b00      	cmp	r3, #0
   b47d0:	d1f9      	bne.n	b47c6 <_ZN7TestLib9clockTestEv+0x92>
		Serial.println(" PASS");
   b47d2:	f006 f879 	bl	ba8c8 <_Z16_fetch_usbserialv>
   b47d6:	4906      	ldr	r1, [pc, #24]	; (b47f0 <_ZN7TestLib9clockTestEv+0xbc>)
}
   b47d8:	b004      	add	sp, #16
   b47da:	e8bd 4070 	ldmia.w	sp!, {r4, r5, r6, lr}
		Serial.println(" PASS");
   b47de:	f005 bb16 	b.w	b9e0e <_ZN5Print7printlnEPKc>
   b47e2:	bf00      	nop
   b47e4:	000bc97b 	.word	0x000bc97b
   b47e8:	000bc983 	.word	0x000bc983
   b47ec:	000bc993 	.word	0x000bc993
   b47f0:	000bc999 	.word	0x000bc999

000b47f4 <_ZN7TestLib7SDsetupEv>:
void TestLib::SDsetup() {
   b47f4:	b5f0      	push	{r4, r5, r6, r7, lr}
   b47f6:	ed2d 8b02 	vpush	{d8}
   b47fa:	b09f      	sub	sp, #124	; 0x7c
   b47fc:	4604      	mov	r4, r0
    getTime();
   b47fe:	4601      	mov	r1, r0
   b4800:	a811      	add	r0, sp, #68	; 0x44
   b4802:	f7ff ff45 	bl	b4690 <_ZN7TestLib7getTimeEv>
   b4806:	a811      	add	r0, sp, #68	; 0x44
   b4808:	f005 fd88 	bl	ba31c <_ZN6StringD1Ev>
    m_dateTime = dateTime;
   b480c:	4b72      	ldr	r3, [pc, #456]	; (b49d8 <_ZN7TestLib7SDsetupEv+0x1e4>)
   b480e:	4a73      	ldr	r2, [pc, #460]	; (b49dc <_ZN7TestLib7SDsetupEv+0x1e8>)
   b4810:	601a      	str	r2, [r3, #0]
	pinMode(SD_CS, INPUT);
   b4812:	2100      	movs	r1, #0
   b4814:	7820      	ldrb	r0, [r4, #0]
   b4816:	f006 f9cb 	bl	babb0 <pinMode>
	Serial.print("SD: ");
   b481a:	f006 f855 	bl	ba8c8 <_Z16_fetch_usbserialv>
   b481e:	4970      	ldr	r1, [pc, #448]	; (b49e0 <_ZN7TestLib7SDsetupEv+0x1ec>)
   b4820:	f005 fae2 	bl	b9de8 <_ZN5Print5printEPKc>
	delay(5); //DEBUG!
   b4824:	2005      	movs	r0, #5
   b4826:	f003 fbc9 	bl	b7fbc <delay>
class SPISettings : public Printable {
   b482a:	4b6e      	ldr	r3, [pc, #440]	; (b49e4 <_ZN7TestLib7SDsetupEv+0x1f0>)
   b482c:	9311      	str	r3, [sp, #68]	; 0x44
	if (!SD.begin(SD_CS)) {
   b482e:	4625      	mov	r5, r4
   b4830:	2300      	movs	r3, #0
   * \param[in] csPin SD card chip select pin.
   * \param[in] spiSettings SPI speed, mode, and bit order.
   * \return true for success else false.
   */
  bool begin(uint8_t csPin = SS, SPISettings spiSettings = SPI_FULL_SPEED) {
    return m_card.begin(&m_spi, csPin, spiSettings) &&
   b4832:	f504 668d 	add.w	r6, r4, #1128	; 0x468
   b4836:	f88d 3048 	strb.w	r3, [sp, #72]	; 0x48
   b483a:	4b6b      	ldr	r3, [pc, #428]	; (b49e8 <_ZN7TestLib7SDsetupEv+0x1f4>)
   b483c:	9313      	str	r3, [sp, #76]	; 0x4c
   b483e:	2701      	movs	r7, #1
   b4840:	f815 2b08 	ldrb.w	r2, [r5], #8
   b4844:	f8ad 7050 	strh.w	r7, [sp, #80]	; 0x50
   b4848:	ab11      	add	r3, sp, #68	; 0x44
   b484a:	f204 4174 	addw	r1, r4, #1140	; 0x474
   b484e:	4630      	mov	r0, r6
   b4850:	f002 fe7c 	bl	b754c <_ZN9SdSpiCard5beginEP14SdSpiAltDriverhN8particle11SPISettingsE>
   b4854:	2800      	cmp	r0, #0
   b4856:	f000 80a3 	beq.w	b49a0 <_ZN7TestLib7SDsetupEv+0x1ac>
    m_blockDev = blockDev;
   b485a:	60a6      	str	r6, [r4, #8]
    return &m_vwd;
   b485c:	f204 4644 	addw	r6, r4, #1092	; 0x444
    vwd()->close();
   b4860:	4630      	mov	r0, r6
   b4862:	f001 fe7f 	bl	b6564 <_ZN7FatFile5closeEv>
    return (part ? init(part) : init(1) || init(0))
   b4866:	4639      	mov	r1, r7
   b4868:	4628      	mov	r0, r5
   b486a:	f002 fd19 	bl	b72a0 <_ZN9FatVolume4initEh>
   b486e:	4601      	mov	r1, r0
   b4870:	2800      	cmp	r0, #0
   b4872:	f000 808f 	beq.w	b4994 <_ZN7TestLib7SDsetupEv+0x1a0>
            && vwd()->openRoot(this) && FatFile::setCwd(vwd());
   b4876:	4629      	mov	r1, r5
   b4878:	4630      	mov	r0, r6
   b487a:	f001 fcaa 	bl	b61d2 <_ZN7FatFile8openRootEP9FatVolume>
   b487e:	2800      	cmp	r0, #0
   b4880:	f000 808e 	beq.w	b49a0 <_ZN7TestLib7SDsetupEv+0x1ac>
   b4884:	4630      	mov	r0, r6
   b4886:	f7ff fd1f 	bl	b42c8 <_ZN7FatFile6setCwdEPS_>
   b488a:	2800      	cmp	r0, #0
   b488c:	f000 8088 	beq.w	b49a0 <_ZN7TestLib7SDsetupEv+0x1ac>
    randomSeed(analogRead(D1)); 
   b4890:	2001      	movs	r0, #1
   b4892:	f006 f9b7 	bl	bac04 <analogRead>
   b4896:	f005 fc12 	bl	ba0be <_Z10randomSeedj>
    int RandVal = random(30557); //Generate a random number between 0 and 30557 (the number of words in Hamlet)
   b489a:	f247 705d 	movw	r0, #30557	; 0x775d
   b489e:	f005 fc03 	bl	ba0a8 <_Z6randomi>
    char RandDigits[6] = {0};
   b48a2:	2700      	movs	r7, #0
    sprintf(RandDigits, "%d", RandVal); //Convert RandVal into a series of digits
   b48a4:	4602      	mov	r2, r0
   b48a6:	4951      	ldr	r1, [pc, #324]	; (b49ec <_ZN7TestLib7SDsetupEv+0x1f8>)
    char RandDigits[6] = {0};
   b48a8:	9700      	str	r7, [sp, #0]
    int RandVal = random(30557); //Generate a random number between 0 and 30557 (the number of words in Hamlet)
   b48aa:	4605      	mov	r5, r0
    sprintf(RandDigits, "%d", RandVal); //Convert RandVal into a series of digits
   b48ac:	4668      	mov	r0, sp
    char RandDigits[6] = {0};
   b48ae:	f8ad 7004 	strh.w	r7, [sp, #4]
    sprintf(RandDigits, "%d", RandVal); //Convert RandVal into a series of digits
   b48b2:	f003 fb53 	bl	b7f5c <sprintf>
  template<typename _Tp>
    inline _GLIBCXX_CONSTEXPR
    typename __gnu_cxx::__enable_if<__is_integer<_Tp>::__value,
                                    double>::__type
    log10(_Tp __x)
    { return __builtin_log10(__x); }
   b48b6:	4628      	mov	r0, r5
   b48b8:	f007 f828 	bl	bb90c <__aeabi_i2d>
   b48bc:	ec41 0b10 	vmov	d0, r0, r1
   b48c0:	f006 fbce 	bl	bb060 <log10>
    return FatFile::remove(vwd(), path);
   b48c4:	494a      	ldr	r1, [pc, #296]	; (b49f0 <_ZN7TestLib7SDsetupEv+0x1fc>)
   b48c6:	eeb0 8a40 	vmov.f32	s16, s0
   b48ca:	eef0 8a60 	vmov.f32	s17, s1
   b48ce:	4630      	mov	r0, r6
   b48d0:	f001 fe9d 	bl	b660e <_ZN7FatFile6removeEPS_PKc>
    virtual int available() = 0;
    virtual int read() = 0;
    virtual int peek() = 0;
    virtual void flush() = 0;

    Stream() {_timeout=1000;}
   b48d4:	f44f 737a 	mov.w	r3, #1000	; 0x3e8
    Print() : write_error(0) {}
   b48d8:	9705      	str	r7, [sp, #20]
   b48da:	9306      	str	r3, [sp, #24]
  FatFile() : m_attr(FILE_ATTR_CLOSED), m_error(0) {}
   b48dc:	9708      	str	r7, [sp, #32]
    tmpFile.open(vwd(), path, oflag);
   b48de:	f244 2302 	movw	r3, #16898	; 0x4202
  File() {}
   b48e2:	4f44      	ldr	r7, [pc, #272]	; (b49f4 <_ZN7TestLib7SDsetupEv+0x200>)
   b48e4:	4a42      	ldr	r2, [pc, #264]	; (b49f0 <_ZN7TestLib7SDsetupEv+0x1fc>)
   b48e6:	9704      	str	r7, [sp, #16]
   b48e8:	4631      	mov	r1, r6
   b48ea:	a808      	add	r0, sp, #32
   b48ec:	f001 fe41 	bl	b6572 <_ZN7FatFile4openEPS_PKci>
    if(DataWrite) {
   b48f0:	f89d 3020 	ldrb.w	r3, [sp, #32]
   b48f4:	b19b      	cbz	r3, b491e <_ZN7TestLib7SDsetupEv+0x12a>
size_t Print::print(T n, int base)
   b48f6:	220a      	movs	r2, #10
   b48f8:	4629      	mov	r1, r5
   b48fa:	a804      	add	r0, sp, #16
   b48fc:	f7ff fc42 	bl	b4184 <_ZN5Print5printIlLi0EEEjT_i.part.0.isra.0>
        n += println();
   b4900:	a804      	add	r0, sp, #16
   b4902:	f005 fa78 	bl	b9df6 <_ZN5Print7printlnEv>
        DataWrite.println("\nHe was a man. Take him for all in all.");
   b4906:	493c      	ldr	r1, [pc, #240]	; (b49f8 <_ZN7TestLib7SDsetupEv+0x204>)
   b4908:	a804      	add	r0, sp, #16
   b490a:	f005 fa80 	bl	b9e0e <_ZN5Print7printlnEPKc>
        DataWrite.println("I shall not look upon his like again.");
   b490e:	493b      	ldr	r1, [pc, #236]	; (b49fc <_ZN7TestLib7SDsetupEv+0x208>)
   b4910:	a804      	add	r0, sp, #16
   b4912:	f005 fa7c 	bl	b9e0e <_ZN5Print7printlnEPKc>
        DataWrite.println("-Hamlet, Act 1, Scene 2");
   b4916:	493a      	ldr	r1, [pc, #232]	; (b4a00 <_ZN7TestLib7SDsetupEv+0x20c>)
   b4918:	a804      	add	r0, sp, #16
   b491a:	f005 fa78 	bl	b9e0e <_ZN5Print7printlnEPKc>
    DataWrite.close();
   b491e:	a808      	add	r0, sp, #32
   b4920:	f001 fe20 	bl	b6564 <_ZN7FatFile5closeEv>
    char TestDigits[6] = {0};
   b4924:	2500      	movs	r5, #0
   b4926:	f44f 737a 	mov.w	r3, #1000	; 0x3e8
   b492a:	9313      	str	r3, [sp, #76]	; 0x4c
   b492c:	4a30      	ldr	r2, [pc, #192]	; (b49f0 <_ZN7TestLib7SDsetupEv+0x1fc>)
   b492e:	9502      	str	r5, [sp, #8]
   b4930:	462b      	mov	r3, r5
   b4932:	4631      	mov	r1, r6
   b4934:	a815      	add	r0, sp, #84	; 0x54
   b4936:	f8ad 500c 	strh.w	r5, [sp, #12]
    Print() : write_error(0) {}
   b493a:	9512      	str	r5, [sp, #72]	; 0x48
   b493c:	9515      	str	r5, [sp, #84]	; 0x54
   b493e:	9711      	str	r7, [sp, #68]	; 0x44
   b4940:	f001 fe17 	bl	b6572 <_ZN7FatFile4openEPS_PKci>
	  if(DataRead) {
   b4944:	f89d 3054 	ldrb.w	r3, [sp, #84]	; 0x54
   b4948:	2b00      	cmp	r3, #0
   b494a:	d03d      	beq.n	b49c8 <_ZN7TestLib7SDsetupEv+0x1d4>
    int RandLength = (int)((ceil(log10(RandVal))+1)*sizeof(char)); //Find the length of the values in the array
   b494c:	eeb0 0a48 	vmov.f32	s0, s16
   b4950:	eef0 0a68 	vmov.f32	s1, s17
   b4954:	f006 fb04 	bl	baf60 <ceil>
   b4958:	4b2a      	ldr	r3, [pc, #168]	; (b4a04 <_ZN7TestLib7SDsetupEv+0x210>)
   b495a:	ec51 0b10 	vmov	r0, r1, d0
   b495e:	2200      	movs	r2, #0
   b4960:	f006 fe88 	bl	bb674 <__adddf3>
   b4964:	f007 faec 	bl	bbf40 <__aeabi_d2iz>
    	DataRead.read(TestDigits, RandLength);
   b4968:	a902      	add	r1, sp, #8
   b496a:	4602      	mov	r2, r0
    int RandLength = (int)((ceil(log10(RandVal))+1)*sizeof(char)); //Find the length of the values in the array
   b496c:	4606      	mov	r6, r0
    	DataRead.read(TestDigits, RandLength);
   b496e:	a815      	add	r0, sp, #84	; 0x54
   b4970:	f001 fc35 	bl	b61de <_ZN7FatFile4readEPvj>
		  for(int i = 0; i < RandLength - 1; i++){ //Test random value string
   b4974:	3e01      	subs	r6, #1
   b4976:	aa02      	add	r2, sp, #8
   b4978:	466b      	mov	r3, sp
		      OBError = true;
   b497a:	2101      	movs	r1, #1
		  for(int i = 0; i < RandLength - 1; i++){ //Test random value string
   b497c:	42ae      	cmp	r6, r5
   b497e:	dd23      	ble.n	b49c8 <_ZN7TestLib7SDsetupEv+0x1d4>
		    if(TestDigits[i] != RandDigits[i]) {
   b4980:	f812 7b01 	ldrb.w	r7, [r2], #1
   b4984:	f813 0b01 	ldrb.w	r0, [r3], #1
   b4988:	4287      	cmp	r7, r0
		      OBError = true;
   b498a:	bf18      	it	ne
   b498c:	f884 14f8 	strbne.w	r1, [r4, #1272]	; 0x4f8
		  for(int i = 0; i < RandLength - 1; i++){ //Test random value string
   b4990:	3501      	adds	r5, #1
   b4992:	e7f3      	b.n	b497c <_ZN7TestLib7SDsetupEv+0x188>
    return (part ? init(part) : init(1) || init(0))
   b4994:	4628      	mov	r0, r5
   b4996:	f002 fc83 	bl	b72a0 <_ZN9FatVolume4initEh>
   b499a:	2800      	cmp	r0, #0
   b499c:	f47f af6b 	bne.w	b4876 <_ZN7TestLib7SDsetupEv+0x82>
        Log.warn(" NO CARD");
   b49a0:	4919      	ldr	r1, [pc, #100]	; (b4a08 <_ZN7TestLib7SDsetupEv+0x214>)
   b49a2:	481a      	ldr	r0, [pc, #104]	; (b4a0c <_ZN7TestLib7SDsetupEv+0x218>)
   b49a4:	f7ff fc6c 	bl	b4280 <_ZNK5spark6Logger4warnEPKcz>
  	    OBError = true;
   b49a8:	2301      	movs	r3, #1
   b49aa:	f884 34f8 	strb.w	r3, [r4, #1272]	; 0x4f8
if(SDError) Serial.println("FAIL");  //If card is inserted and still does not connect propperly, throw error
   b49ae:	f894 34fb 	ldrb.w	r3, [r4, #1275]	; 0x4fb
   b49b2:	b16b      	cbz	r3, b49d0 <_ZN7TestLib7SDsetupEv+0x1dc>
   b49b4:	f005 ff88 	bl	ba8c8 <_Z16_fetch_usbserialv>
   b49b8:	4915      	ldr	r1, [pc, #84]	; (b4a10 <_ZN7TestLib7SDsetupEv+0x21c>)
}
   b49ba:	b01f      	add	sp, #124	; 0x7c
   b49bc:	ecbd 8b02 	vpop	{d8}
   b49c0:	e8bd 40f0 	ldmia.w	sp!, {r4, r5, r6, r7, lr}
	else if(!SDError) Serial.println("PASS");  //If card is inserted AND connectects propely return success
   b49c4:	f005 ba23 	b.w	b9e0e <_ZN5Print7printlnEPKc>
	  DataRead.close();
   b49c8:	a815      	add	r0, sp, #84	; 0x54
   b49ca:	f001 fdcb 	bl	b6564 <_ZN7FatFile5closeEv>
    virtual ~Print() {}
   b49ce:	e7ee      	b.n	b49ae <_ZN7TestLib7SDsetupEv+0x1ba>
	else if(!SDError) Serial.println("PASS");  //If card is inserted AND connectects propely return success
   b49d0:	f005 ff7a 	bl	ba8c8 <_Z16_fetch_usbserialv>
   b49d4:	490f      	ldr	r1, [pc, #60]	; (b4a14 <_ZN7TestLib7SDsetupEv+0x220>)
   b49d6:	e7f0      	b.n	b49ba <_ZN7TestLib7SDsetupEv+0x1c6>
   b49d8:	2003e67c 	.word	0x2003e67c
   b49dc:	000b40e9 	.word	0x000b40e9
   b49e0:	000bc99f 	.word	0x000bc99f
   b49e4:	000bcb0c 	.word	0x000bcb0c
   b49e8:	02faf080 	.word	0x02faf080
   b49ec:	000bc9a4 	.word	0x000bc9a4
   b49f0:	000bc9a7 	.word	0x000bc9a7
   b49f4:	000bcb20 	.word	0x000bcb20
   b49f8:	000bc9bb 	.word	0x000bc9bb
   b49fc:	000bc9e3 	.word	0x000bc9e3
   b4a00:	000bca09 	.word	0x000bca09
   b4a04:	3ff00000 	.word	0x3ff00000
   b4a08:	000bc9b2 	.word	0x000bc9b2
   b4a0c:	2003e6ac 	.word	0x2003e6ac
   b4a10:	000bc994 	.word	0x000bc994
   b4a14:	000bc99a 	.word	0x000bc99a

000b4a18 <_ZN7TestLib13getBatVoltageEv>:
    LogTimeDate = getTime();
    return LogTimeDate + "," + String(BatVoltage) + ",";
}

float TestLib::getBatVoltage()
{
   b4a18:	b508      	push	{r3, lr}
	float BatVoltage = analogRead(BATT) * 0.0011224;
   b4a1a:	2021      	movs	r0, #33	; 0x21
   b4a1c:	f006 f8f2 	bl	bac04 <analogRead>
   b4a20:	f006 ff74 	bl	bb90c <__aeabi_i2d>
   b4a24:	a304      	add	r3, pc, #16	; (adr r3, b4a38 <_ZN7TestLib13getBatVoltageEv+0x20>)
   b4a26:	e9d3 2300 	ldrd	r2, r3, [r3]
   b4a2a:	f006 ffd9 	bl	bb9e0 <__aeabi_dmul>
   b4a2e:	f007 facf 	bl	bbfd0 <__aeabi_d2f>
	return BatVoltage;
}
   b4a32:	ee00 0a10 	vmov	s0, r0
   b4a36:	bd08      	pop	{r3, pc}
   b4a38:	d2c10294 	.word	0xd2c10294
   b4a3c:	3f5263af 	.word	0x3f5263af

000b4a40 <_ZN7TestLib7batTestEv>:
{
   b4a40:	b538      	push	{r3, r4, r5, lr}
   b4a42:	4604      	mov	r4, r0
	if(getBatVoltage() < BatVoltageError) BatError = true; //Set error flag if below min voltage
   b4a44:	f7ff ffe8 	bl	b4a18 <_ZN7TestLib13getBatVoltageEv>
   b4a48:	f504 63a0 	add.w	r3, r4, #1280	; 0x500
   b4a4c:	edd3 7a00 	vldr	s15, [r3]
   b4a50:	eeb4 0ae7 	vcmpe.f32	s0, s15
   b4a54:	eef1 fa10 	vmrs	APSR_nzcv, fpscr
   b4a58:	bf44      	itt	mi
   b4a5a:	2301      	movmi	r3, #1
   b4a5c:	f884 34fc 	strbmi.w	r3, [r4, #1276]	; 0x4fc
	Serial.print("Bat = ");
   b4a60:	f005 ff32 	bl	ba8c8 <_Z16_fetch_usbserialv>
   b4a64:	4909      	ldr	r1, [pc, #36]	; (b4a8c <_ZN7TestLib7batTestEv+0x4c>)
   b4a66:	f005 f9bf 	bl	b9de8 <_ZN5Print5printEPKc>
	Serial.print(getBatVoltage());
   b4a6a:	f005 ff2d 	bl	ba8c8 <_Z16_fetch_usbserialv>
   b4a6e:	4605      	mov	r5, r0
   b4a70:	4620      	mov	r0, r4
   b4a72:	f7ff ffd1 	bl	b4a18 <_ZN7TestLib13getBatVoltageEv>
   b4a76:	2102      	movs	r1, #2
   b4a78:	4628      	mov	r0, r5
   b4a7a:	f005 fabb 	bl	b9ff4 <_ZN5Print5printEfi>
	Serial.print("V\t");
   b4a7e:	f005 ff23 	bl	ba8c8 <_Z16_fetch_usbserialv>
}
   b4a82:	e8bd 4038 	ldmia.w	sp!, {r3, r4, r5, lr}
	Serial.print("V\t");
   b4a86:	4902      	ldr	r1, [pc, #8]	; (b4a90 <_ZN7TestLib7batTestEv+0x50>)
   b4a88:	f005 b9ae 	b.w	b9de8 <_ZN5Print5printEPKc>
   b4a8c:	000bca21 	.word	0x000bca21
   b4a90:	000bca28 	.word	0x000bca28

000b4a94 <_ZN7TestLib14getOnBoardValsEv>:
{   
   b4a94:	b570      	push	{r4, r5, r6, lr}
   b4a96:	4605      	mov	r5, r0
   b4a98:	b08a      	sub	sp, #40	; 0x28
    float BatVoltage = getBatVoltage(); //Get battery voltage, Include voltage divider in math
   b4a9a:	4608      	mov	r0, r1
{   
   b4a9c:	460c      	mov	r4, r1
    float BatVoltage = getBatVoltage(); //Get battery voltage, Include voltage divider in math
   b4a9e:	f7ff ffbb 	bl	b4a18 <_ZN7TestLib13getBatVoltageEv>
    LogTimeDate = getTime();
   b4aa2:	4621      	mov	r1, r4
   b4aa4:	a806      	add	r0, sp, #24
   b4aa6:	f504 6499 	add.w	r4, r4, #1224	; 0x4c8
    float BatVoltage = getBatVoltage(); //Get battery voltage, Include voltage divider in math
   b4aaa:	ed8d 0a01 	vstr	s0, [sp, #4]
    LogTimeDate = getTime();
   b4aae:	f7ff fdef 	bl	b4690 <_ZN7TestLib7getTimeEv>
   b4ab2:	a906      	add	r1, sp, #24
   b4ab4:	4620      	mov	r0, r4
   b4ab6:	f005 fcd2 	bl	ba45e <_ZN6StringaSEOS_>
    return LogTimeDate + "," + String(BatVoltage) + ",";
   b4aba:	4e13      	ldr	r6, [pc, #76]	; (b4b08 <_ZN7TestLib14getOnBoardValsEv+0x74>)
    LogTimeDate = getTime();
   b4abc:	a806      	add	r0, sp, #24
   b4abe:	f005 fc2d 	bl	ba31c <_ZN6StringD1Ev>
};

class StringSumHelper : public String
{
public:
	StringSumHelper(const String &s) : String(s) {}
   b4ac2:	4621      	mov	r1, r4
   b4ac4:	a802      	add	r0, sp, #8
   b4ac6:	f005 fcbf 	bl	ba448 <_ZN6StringC1ERKS_>
    return LogTimeDate + "," + String(BatVoltage) + ",";
   b4aca:	4631      	mov	r1, r6
   b4acc:	a802      	add	r0, sp, #8
   b4ace:	f005 fd31 	bl	ba534 <_ZplRK15StringSumHelperPKc>
   b4ad2:	ed9d 0a01 	vldr	s0, [sp, #4]
   b4ad6:	4604      	mov	r4, r0
   b4ad8:	2106      	movs	r1, #6
   b4ada:	a806      	add	r0, sp, #24
   b4adc:	f005 fcd9 	bl	ba492 <_ZN6StringC1Efi>
   b4ae0:	a906      	add	r1, sp, #24
   b4ae2:	4620      	mov	r0, r4
   b4ae4:	f005 fd1a 	bl	ba51c <_ZplRK15StringSumHelperRK6String>
   b4ae8:	4631      	mov	r1, r6
   b4aea:	f005 fd23 	bl	ba534 <_ZplRK15StringSumHelperPKc>
   b4aee:	4601      	mov	r1, r0
   b4af0:	4628      	mov	r0, r5
   b4af2:	f005 fca9 	bl	ba448 <_ZN6StringC1ERKS_>
   b4af6:	a806      	add	r0, sp, #24
   b4af8:	f005 fc10 	bl	ba31c <_ZN6StringD1Ev>
class StringSumHelper : public String
   b4afc:	a802      	add	r0, sp, #8
   b4afe:	f005 fc0d 	bl	ba31c <_ZN6StringD1Ev>
}
   b4b02:	4628      	mov	r0, r5
   b4b04:	b00a      	add	sp, #40	; 0x28
   b4b06:	bd70      	pop	{r4, r5, r6, pc}
   b4b08:	000bca2b 	.word	0x000bca2b

000b4b0c <_ZN7TestLib12getTCvoltageEv>:

double TestLib::getTCvoltage() 
{
   b4b0c:	b570      	push	{r4, r5, r6, lr}
   b4b0e:	4604      	mov	r4, r0
    Serial.print("ADC: "); Serial.print(mcp.readADC() * 2); Serial.println(" uV");
   b4b10:	f005 feda 	bl	ba8c8 <_Z16_fetch_usbserialv>
   b4b14:	4912      	ldr	r1, [pc, #72]	; (b4b60 <_ZN7TestLib12getTCvoltageEv+0x54>)
   b4b16:	f005 f967 	bl	b9de8 <_ZN5Print5printEPKc>
   b4b1a:	f005 fed5 	bl	ba8c8 <_Z16_fetch_usbserialv>
   b4b1e:	f204 458c 	addw	r5, r4, #1164	; 0x48c
   b4b22:	4606      	mov	r6, r0
   b4b24:	4628      	mov	r0, r5
   b4b26:	f001 f92d 	bl	b5d84 <_ZN16Adafruit_MCP96007readADCEv>
size_t Print::print(T n, int base)
   b4b2a:	220a      	movs	r2, #10
   b4b2c:	0041      	lsls	r1, r0, #1
   b4b2e:	4630      	mov	r0, r6
   b4b30:	f7ff fb28 	bl	b4184 <_ZN5Print5printIlLi0EEEjT_i.part.0.isra.0>
   b4b34:	f005 fec8 	bl	ba8c8 <_Z16_fetch_usbserialv>
   b4b38:	490a      	ldr	r1, [pc, #40]	; (b4b64 <_ZN7TestLib12getTCvoltageEv+0x58>)
   b4b3a:	f005 f968 	bl	b9e0e <_ZN5Print7printlnEPKc>
    if (!(mcp.readThermocouple() == NAN)) {
   b4b3e:	4628      	mov	r0, r5
   b4b40:	f001 f8e6 	bl	b5d10 <_ZN16Adafruit_MCP960016readThermocoupleEv>
        TCvoltage = mcp.readADC() * 2;
   b4b44:	4628      	mov	r0, r5
   b4b46:	f001 f91d 	bl	b5d84 <_ZN16Adafruit_MCP96007readADCEv>
   b4b4a:	0040      	lsls	r0, r0, #1
   b4b4c:	f006 fede 	bl	bb90c <__aeabi_i2d>
   b4b50:	f504 64a2 	add.w	r4, r4, #1296	; 0x510
   b4b54:	e944 0102 	strd	r0, r1, [r4, #-8]
   b4b58:	ec41 0b10 	vmov	d0, r0, r1
    }
    return TCvoltage;
}
   b4b5c:	bd70      	pop	{r4, r5, r6, pc}
   b4b5e:	bf00      	nop
   b4b60:	000bca2d 	.word	0x000bca2d
   b4b64:	000bca33 	.word	0x000bca33

000b4b68 <_ZN7TestLib9SoilsetupEv>:

void TestLib::Soilsetup() {
   b4b68:	b510      	push	{r4, lr}
   b4b6a:	4604      	mov	r4, r0
    pinMode(topPinIn, INPUT);
   b4b6c:	2100      	movs	r1, #0
   b4b6e:	f890 04b0 	ldrb.w	r0, [r0, #1200]	; 0x4b0
   b4b72:	f006 f81d 	bl	babb0 <pinMode>
    pinMode(midPinIn, INPUT);
   b4b76:	f894 04b1 	ldrb.w	r0, [r4, #1201]	; 0x4b1
   b4b7a:	2100      	movs	r1, #0
   b4b7c:	f006 f818 	bl	babb0 <pinMode>
    pinMode(botPinIn, INPUT);
   b4b80:	f894 04b2 	ldrb.w	r0, [r4, #1202]	; 0x4b2
   b4b84:	2100      	movs	r1, #0
}
   b4b86:	e8bd 4010 	ldmia.w	sp!, {r4, lr}
    pinMode(botPinIn, INPUT);
   b4b8a:	f006 b811 	b.w	babb0 <pinMode>
	...

000b4b90 <_ZN7TestLib5beginE6String>:
int TestLib::begin(String header_) {
   b4b90:	b570      	push	{r4, r5, r6, lr}
   b4b92:	4604      	mov	r4, r0
   b4b94:	b088      	sub	sp, #32
   b4b96:	460d      	mov	r5, r1
    Log.info("Beginning logger initialization");
   b4b98:	483f      	ldr	r0, [pc, #252]	; (b4c98 <_ZN7TestLib5beginE6String+0x108>)
   b4b9a:	4940      	ldr	r1, [pc, #256]	; (b4c9c <_ZN7TestLib5beginE6String+0x10c>)
   b4b9c:	f7ff fb58 	bl	b4250 <_ZNK5spark6Logger4infoEPKcz>
    pinMode(D7, OUTPUT);
   b4ba0:	2101      	movs	r1, #1
   b4ba2:	2007      	movs	r0, #7
   b4ba4:	f006 f804 	bl	babb0 <pinMode>
inline CloudDisconnectOptions::CloudDisconnectOptions(unsigned flags, system_tick_t timeout, bool graceful,
        bool clearSession) :
        flags_(flags),
        timeout_(timeout),
        graceful_(graceful),
        clearSession_(clearSession) {
   b4ba8:	2200      	movs	r2, #0
    Particle.disconnect();
   b4baa:	a804      	add	r0, sp, #16
   b4bac:	e9cd 2204 	strd	r2, r2, [sp, #16]
        bool clearSession) :
   b4bb0:	f8ad 2018 	strh.w	r2, [sp, #24]
   b4bb4:	f003 fd8a 	bl	b86cc <_ZN10CloudClass10disconnectERK22CloudDisconnectOptions>
    void on(void) {
        network_on(*this, 0, 0, NULL);
    }

    void off(void) {
        network_off(*this, 0, 0, NULL);
   b4bb8:	4839      	ldr	r0, [pc, #228]	; (b4ca0 <_ZN7TestLib5beginE6String+0x110>)
   b4bba:	2200      	movs	r2, #0
   b4bbc:	4613      	mov	r3, r2
   b4bbe:	4611      	mov	r1, r2
   b4bc0:	6840      	ldr	r0, [r0, #4]
   b4bc2:	f003 f97b 	bl	b7ebc <network_off>
    BLE.off();
   b4bc6:	f003 fb17 	bl	b81f8 <_ZN8particle14BleLocalDevice11getInstanceEv>
   b4bca:	f003 fbda 	bl	b8382 <_ZNK8particle14BleLocalDevice3offEv>
    rtc.begin();
   b4bce:	1da0      	adds	r0, r4, #6
   b4bd0:	f001 fa0d 	bl	b5fee <_ZN11RTC_PCF85235beginEv>
    inline static SleepResult sleep(const pin_t* pins, size_t pinsSize, const InterruptMode* edgeTriggerMode, size_t edgeTriggerModeSize, SleepOptionFlags flag, std::chrono::seconds s) {
        return sleep(pins, pinsSize, edgeTriggerMode, edgeTriggerModeSize, flag, s.count());
    }

    static String deviceID(void) {
        return spark_deviceID();
   b4bd4:	4668      	mov	r0, sp
   b4bd6:	f003 f931 	bl	b7e3c <spark_deviceID>
    SN = id.c_str();
   b4bda:	9b00      	ldr	r3, [sp, #0]
   b4bdc:	f8c4 34b4 	str.w	r3, [r4, #1204]	; 0x4b4
    Log.info("\n\n\nInitializing...\n");
   b4be0:	4930      	ldr	r1, [pc, #192]	; (b4ca4 <_ZN7TestLib5beginE6String+0x114>)
   b4be2:	482d      	ldr	r0, [pc, #180]	; (b4c98 <_ZN7TestLib5beginE6String+0x108>)
   b4be4:	f7ff fb34 	bl	b4250 <_ZNK5spark6Logger4infoEPKcz>
    delay(100);
   b4be8:	2064      	movs	r0, #100	; 0x64
   b4bea:	f003 f9e7 	bl	b7fbc <delay>
    getTime();
   b4bee:	4621      	mov	r1, r4
   b4bf0:	a804      	add	r0, sp, #16
   b4bf2:	f7ff fd4d 	bl	b4690 <_ZN7TestLib7getTimeEv>
   b4bf6:	a804      	add	r0, sp, #16
   b4bf8:	f005 fb90 	bl	ba31c <_ZN6StringD1Ev>
	StringSumHelper(const char *p) : String(p) {}
   b4bfc:	492a      	ldr	r1, [pc, #168]	; (b4ca8 <_ZN7TestLib5beginE6String+0x118>)
   b4bfe:	a804      	add	r0, sp, #16
   b4c00:	f005 fbd7 	bl	ba3b2 <_ZN6StringC1EPK19__FlashStringHelper>
    Log.info("\nTimestamp = "+LogTimeDate);
   b4c04:	f504 6199 	add.w	r1, r4, #1224	; 0x4c8
   b4c08:	a804      	add	r0, sp, #16
   b4c0a:	f005 fc87 	bl	ba51c <_ZplRK15StringSumHelperRK6String>
   b4c0e:	6801      	ldr	r1, [r0, #0]
   b4c10:	4821      	ldr	r0, [pc, #132]	; (b4c98 <_ZN7TestLib5beginE6String+0x108>)
   b4c12:	f7ff fb1d 	bl	b4250 <_ZNK5spark6Logger4infoEPKcz>
    Header = header_;
   b4c16:	f504 6697 	add.w	r6, r4, #1208	; 0x4b8
class StringSumHelper : public String
   b4c1a:	a804      	add	r0, sp, #16
   b4c1c:	f005 fb7e 	bl	ba31c <_ZN6StringD1Ev>
   b4c20:	4629      	mov	r1, r5
   b4c22:	4630      	mov	r0, r6
   b4c24:	f005 fc01 	bl	ba42a <_ZN6StringaSERKS_>
    Log.info(Header);
   b4c28:	f8d4 14b8 	ldr.w	r1, [r4, #1208]	; 0x4b8
   b4c2c:	481a      	ldr	r0, [pc, #104]	; (b4c98 <_ZN7TestLib5beginE6String+0x108>)
   b4c2e:	f7ff fb0f 	bl	b4250 <_ZNK5spark6Logger4infoEPKcz>
    if (Header.substring(0, 2) == "TC") {
   b4c32:	2302      	movs	r3, #2
   b4c34:	2200      	movs	r2, #0
   b4c36:	4631      	mov	r1, r6
   b4c38:	a804      	add	r0, sp, #16
   b4c3a:	f005 fcbb 	bl	ba5b4 <_ZNK6String9substringEjj>
	unsigned char operator == (const char *cstr) const {return equals(cstr);}
   b4c3e:	491b      	ldr	r1, [pc, #108]	; (b4cac <_ZN7TestLib5beginE6String+0x11c>)
   b4c40:	a804      	add	r0, sp, #16
   b4c42:	f005 fc8c 	bl	ba55e <_ZNK6String6equalsEPKc>
   b4c46:	4605      	mov	r5, r0
   b4c48:	a804      	add	r0, sp, #16
   b4c4a:	f005 fb67 	bl	ba31c <_ZN6StringD1Ev>
   b4c4e:	b1d5      	cbz	r5, b4c86 <_ZN7TestLib5beginE6String+0xf6>
        TCsetup();
   b4c50:	4620      	mov	r0, r4
   b4c52:	f7ff fc17 	bl	b4484 <_ZN7TestLib7TCsetupEv>
        pinMode(RELAY_PIN, OUTPUT); // For relay
   b4c56:	88a0      	ldrh	r0, [r4, #4]
   b4c58:	2101      	movs	r1, #1
   b4c5a:	f005 ffa9 	bl	babb0 <pinMode>
	selfPointer = this;
   b4c5e:	4b14      	ldr	r3, [pc, #80]	; (b4cb0 <_ZN7TestLib5beginE6String+0x120>)
    SDsetup();
   b4c60:	4620      	mov	r0, r4
	selfPointer = this;
   b4c62:	601c      	str	r4, [r3, #0]
    SDsetup();
   b4c64:	f7ff fdc6 	bl	b47f4 <_ZN7TestLib7SDsetupEv>
    clockTest();
   b4c68:	4620      	mov	r0, r4
   b4c6a:	f7ff fd63 	bl	b4734 <_ZN7TestLib9clockTestEv>
    batTest();
   b4c6e:	4620      	mov	r0, r4
   b4c70:	f7ff fee6 	bl	b4a40 <_ZN7TestLib7batTestEv>
    blinkGood();
   b4c74:	4620      	mov	r0, r4
   b4c76:	f7ff fcf6 	bl	b4666 <_ZN7TestLib9blinkGoodEv>
    String id = System.deviceID();
   b4c7a:	4668      	mov	r0, sp
   b4c7c:	f005 fb4e 	bl	ba31c <_ZN6StringD1Ev>
}
   b4c80:	2001      	movs	r0, #1
   b4c82:	b008      	add	sp, #32
   b4c84:	bd70      	pop	{r4, r5, r6, pc}
        Serial.println("Set up for soil moisture and rain gauge");
   b4c86:	f005 fe1f 	bl	ba8c8 <_Z16_fetch_usbserialv>
   b4c8a:	490a      	ldr	r1, [pc, #40]	; (b4cb4 <_ZN7TestLib5beginE6String+0x124>)
   b4c8c:	f005 f8bf 	bl	b9e0e <_ZN5Print7printlnEPKc>
        Soilsetup();
   b4c90:	4620      	mov	r0, r4
   b4c92:	f7ff ff69 	bl	b4b68 <_ZN7TestLib9SoilsetupEv>
   b4c96:	e7e2      	b.n	b4c5e <_ZN7TestLib5beginE6String+0xce>
   b4c98:	2003e6ac 	.word	0x2003e6ac
   b4c9c:	000bca37 	.word	0x000bca37
   b4ca0:	2003e71c 	.word	0x2003e71c
   b4ca4:	000bca57 	.word	0x000bca57
   b4ca8:	000bca6b 	.word	0x000bca6b
   b4cac:	000bca79 	.word	0x000bca79
   b4cb0:	2003dc4c 	.word	0x2003dc4c
   b4cb4:	000bca7c 	.word	0x000bca7c

000b4cb8 <_ZN7TestLib14getSoilvoltageEv>:

String TestLib::getSoilvoltage() 
{
   b4cb8:	e92d 41f0 	stmdb	sp!, {r4, r5, r6, r7, r8, lr}
   b4cbc:	4605      	mov	r5, r0
   b4cbe:	b090      	sub	sp, #64	; 0x40
    return String(topVolt) + "," + String(midVolt) + "," + String(botVolt);
}

double TestLib::getVoltage(int pinInput)
{   
    double volt = analogRead(pinInput) * (3.3 / 4096); 
   b4cc0:	f891 04b0 	ldrb.w	r0, [r1, #1200]	; 0x4b0
{
   b4cc4:	460c      	mov	r4, r1
    double volt = analogRead(pinInput) * (3.3 / 4096); 
   b4cc6:	f005 ff9d 	bl	bac04 <analogRead>
   b4cca:	4680      	mov	r8, r0
   b4ccc:	f894 04b1 	ldrb.w	r0, [r4, #1201]	; 0x4b1
   b4cd0:	f005 ff98 	bl	bac04 <analogRead>
   b4cd4:	4607      	mov	r7, r0
   b4cd6:	f894 04b2 	ldrb.w	r0, [r4, #1202]	; 0x4b2
   b4cda:	f005 ff93 	bl	bac04 <analogRead>
   b4cde:	4606      	mov	r6, r0
   b4ce0:	4640      	mov	r0, r8
   b4ce2:	f006 fe13 	bl	bb90c <__aeabi_i2d>
   b4ce6:	a330      	add	r3, pc, #192	; (adr r3, b4da8 <_ZN7TestLib14getSoilvoltageEv+0xf0>)
   b4ce8:	e9d3 2300 	ldrd	r2, r3, [r3]
   b4cec:	f006 fe78 	bl	bb9e0 <__aeabi_dmul>
    double topVolt = getVoltage(topPinIn)*1000;
   b4cf0:	4b2f      	ldr	r3, [pc, #188]	; (b4db0 <_ZN7TestLib14getSoilvoltageEv+0xf8>)
    return String(topVolt) + "," + String(midVolt) + "," + String(botVolt);
   b4cf2:	f8df 80c0 	ldr.w	r8, [pc, #192]	; b4db4 <_ZN7TestLib14getSoilvoltageEv+0xfc>
    double topVolt = getVoltage(topPinIn)*1000;
   b4cf6:	2200      	movs	r2, #0
   b4cf8:	f006 fe72 	bl	bb9e0 <__aeabi_dmul>
   b4cfc:	ec41 0b10 	vmov	d0, r0, r1
    return String(topVolt) + "," + String(midVolt) + "," + String(botVolt);
   b4d00:	2106      	movs	r1, #6
   b4d02:	4668      	mov	r0, sp
   b4d04:	f005 fbdf 	bl	ba4c6 <_ZN6StringC1Edi>
	StringSumHelper(const String &s) : String(s) {}
   b4d08:	4669      	mov	r1, sp
   b4d0a:	a804      	add	r0, sp, #16
   b4d0c:	f005 fb9c 	bl	ba448 <_ZN6StringC1ERKS_>
   b4d10:	4641      	mov	r1, r8
   b4d12:	a804      	add	r0, sp, #16
   b4d14:	f005 fc0e 	bl	ba534 <_ZplRK15StringSumHelperPKc>
   b4d18:	4604      	mov	r4, r0
    double volt = analogRead(pinInput) * (3.3 / 4096); 
   b4d1a:	4638      	mov	r0, r7
   b4d1c:	f006 fdf6 	bl	bb90c <__aeabi_i2d>
   b4d20:	a321      	add	r3, pc, #132	; (adr r3, b4da8 <_ZN7TestLib14getSoilvoltageEv+0xf0>)
   b4d22:	e9d3 2300 	ldrd	r2, r3, [r3]
   b4d26:	f006 fe5b 	bl	bb9e0 <__aeabi_dmul>
    double midVolt = getVoltage(midPinIn)*1000; 
   b4d2a:	4b21      	ldr	r3, [pc, #132]	; (b4db0 <_ZN7TestLib14getSoilvoltageEv+0xf8>)
   b4d2c:	2200      	movs	r2, #0
   b4d2e:	f006 fe57 	bl	bb9e0 <__aeabi_dmul>
   b4d32:	ec41 0b10 	vmov	d0, r0, r1
    return String(topVolt) + "," + String(midVolt) + "," + String(botVolt);
   b4d36:	2106      	movs	r1, #6
   b4d38:	a808      	add	r0, sp, #32
   b4d3a:	f005 fbc4 	bl	ba4c6 <_ZN6StringC1Edi>
   b4d3e:	a908      	add	r1, sp, #32
   b4d40:	4620      	mov	r0, r4
   b4d42:	f005 fbeb 	bl	ba51c <_ZplRK15StringSumHelperRK6String>
   b4d46:	4641      	mov	r1, r8
   b4d48:	f005 fbf4 	bl	ba534 <_ZplRK15StringSumHelperPKc>
   b4d4c:	4604      	mov	r4, r0
    double volt = analogRead(pinInput) * (3.3 / 4096); 
   b4d4e:	4630      	mov	r0, r6
   b4d50:	f006 fddc 	bl	bb90c <__aeabi_i2d>
   b4d54:	a314      	add	r3, pc, #80	; (adr r3, b4da8 <_ZN7TestLib14getSoilvoltageEv+0xf0>)
   b4d56:	e9d3 2300 	ldrd	r2, r3, [r3]
   b4d5a:	f006 fe41 	bl	bb9e0 <__aeabi_dmul>
    double botVolt = getVoltage(botPinIn)*1000;
   b4d5e:	4b14      	ldr	r3, [pc, #80]	; (b4db0 <_ZN7TestLib14getSoilvoltageEv+0xf8>)
   b4d60:	2200      	movs	r2, #0
   b4d62:	f006 fe3d 	bl	bb9e0 <__aeabi_dmul>
   b4d66:	ec41 0b10 	vmov	d0, r0, r1
    return String(topVolt) + "," + String(midVolt) + "," + String(botVolt);
   b4d6a:	2106      	movs	r1, #6
   b4d6c:	a80c      	add	r0, sp, #48	; 0x30
   b4d6e:	f005 fbaa 	bl	ba4c6 <_ZN6StringC1Edi>
   b4d72:	a90c      	add	r1, sp, #48	; 0x30
   b4d74:	4620      	mov	r0, r4
   b4d76:	f005 fbd1 	bl	ba51c <_ZplRK15StringSumHelperRK6String>
   b4d7a:	4601      	mov	r1, r0
   b4d7c:	4628      	mov	r0, r5
   b4d7e:	f005 fb63 	bl	ba448 <_ZN6StringC1ERKS_>
   b4d82:	a80c      	add	r0, sp, #48	; 0x30
   b4d84:	f005 faca 	bl	ba31c <_ZN6StringD1Ev>
   b4d88:	a808      	add	r0, sp, #32
   b4d8a:	f005 fac7 	bl	ba31c <_ZN6StringD1Ev>
class StringSumHelper : public String
   b4d8e:	a804      	add	r0, sp, #16
   b4d90:	f005 fac4 	bl	ba31c <_ZN6StringD1Ev>
   b4d94:	4668      	mov	r0, sp
   b4d96:	f005 fac1 	bl	ba31c <_ZN6StringD1Ev>
}
   b4d9a:	4628      	mov	r0, r5
   b4d9c:	b010      	add	sp, #64	; 0x40
   b4d9e:	e8bd 81f0 	ldmia.w	sp!, {r4, r5, r6, r7, r8, pc}
   b4da2:	bf00      	nop
   b4da4:	f3af 8000 	nop.w
   b4da8:	66666666 	.word	0x66666666
   b4dac:	3f4a6666 	.word	0x3f4a6666
   b4db0:	408f4000 	.word	0x408f4000
   b4db4:	000bca2b 	.word	0x000bca2b

000b4db8 <_ZN7TestLib8dirsetupEv>:
// 	if(Per < 0) return 0;  //Do not allow return of non-sensical values
// 	if(Per > 100) return 100;  //Is this appropriate? Float voltage could be higher than specified and still be correct
// 	return Per;
// }

void TestLib::dirsetup(){
   b4db8:	b5f8      	push	{r3, r4, r5, r6, r7, lr}
    return &m_vwd;
   b4dba:	f200 4744 	addw	r7, r0, #1092	; 0x444
    return vwd()->exists(path);
   b4dbe:	4919      	ldr	r1, [pc, #100]	; (b4e24 <_ZN7TestLib8dirsetupEv+0x6c>)
   b4dc0:	4604      	mov	r4, r0
    return &m_vwd;
   b4dc2:	f100 0508 	add.w	r5, r0, #8
    return vwd()->exists(path);
   b4dc6:	4638      	mov	r0, r7
   b4dc8:	f7ff fa72 	bl	b42b0 <_ZN7FatFile6existsEPKc>
    if (!SD.exists("Particle")) {
   b4dcc:	4606      	mov	r6, r0
   b4dce:	bb40      	cbnz	r0, b4e22 <_ZN7TestLib8dirsetupEv+0x6a>
        SD.mkdir("Particle");
   b4dd0:	4914      	ldr	r1, [pc, #80]	; (b4e24 <_ZN7TestLib8dirsetupEv+0x6c>)
   b4dd2:	2201      	movs	r2, #1
   b4dd4:	4628      	mov	r0, r5
   b4dd6:	f7ff f9e8 	bl	b41aa <_ZN13FatFileSystem5mkdirEPKcb.isra.0>
        SD.chdir("Particle");
   b4dda:	4632      	mov	r2, r6
   b4ddc:	4911      	ldr	r1, [pc, #68]	; (b4e24 <_ZN7TestLib8dirsetupEv+0x6c>)
   b4dde:	4628      	mov	r0, r5
   b4de0:	f7ff fa80 	bl	b42e4 <_ZN13FatFileSystem5chdirEPKcb.isra.0>
   b4de4:	f8d4 14b4 	ldr.w	r1, [r4, #1204]	; 0x4b4
   b4de8:	4638      	mov	r0, r7
   b4dea:	f7ff fa61 	bl	b42b0 <_ZN7FatFile6existsEPKc>
        if (!SD.exists(SN)) {
   b4dee:	4606      	mov	r6, r0
   b4df0:	b9b8      	cbnz	r0, b4e22 <_ZN7TestLib8dirsetupEv+0x6a>
            SD.mkdir(SN);
   b4df2:	f8d4 14b4 	ldr.w	r1, [r4, #1204]	; 0x4b4
   b4df6:	2201      	movs	r2, #1
   b4df8:	4628      	mov	r0, r5
   b4dfa:	f7ff f9d6 	bl	b41aa <_ZN13FatFileSystem5mkdirEPKcb.isra.0>
            SD.chdir(SN);
   b4dfe:	f8d4 14b4 	ldr.w	r1, [r4, #1204]	; 0x4b4
   b4e02:	4628      	mov	r0, r5
   b4e04:	4632      	mov	r2, r6
   b4e06:	f7ff fa6d 	bl	b42e4 <_ZN13FatFileSystem5chdirEPKcb.isra.0>
   b4e0a:	4907      	ldr	r1, [pc, #28]	; (b4e28 <_ZN7TestLib8dirsetupEv+0x70>)
   b4e0c:	4638      	mov	r0, r7
   b4e0e:	f7ff fa4f 	bl	b42b0 <_ZN7FatFile6existsEPKc>
            if (!SD.exists("Logs")) {
   b4e12:	b930      	cbnz	r0, b4e22 <_ZN7TestLib8dirsetupEv+0x6a>
                SD.mkdir("Logs");
   b4e14:	4628      	mov	r0, r5
   b4e16:	4904      	ldr	r1, [pc, #16]	; (b4e28 <_ZN7TestLib8dirsetupEv+0x70>)
            }
    }   
    } 
}
   b4e18:	e8bd 40f8 	ldmia.w	sp!, {r3, r4, r5, r6, r7, lr}
                SD.mkdir("Logs");
   b4e1c:	2201      	movs	r2, #1
   b4e1e:	f7ff b9c4 	b.w	b41aa <_ZN13FatFileSystem5mkdirEPKcb.isra.0>
}
   b4e22:	bdf8      	pop	{r3, r4, r5, r6, r7, pc}
   b4e24:	000bcaa4 	.word	0x000bcaa4
   b4e28:	000bcacb 	.word	0x000bcacb

000b4e2c <_ZN7TestLib6logStrE6String>:
  	// logStr("Drink. Drink. Drink. Drink. Don't Think. Drive. Kill. Get drunk a lot. And work 40 hours a week. Drink. Drink. Drink. Drink. Don't Think. Drive. Kill. Get drunk a lot. And work 40 hours a week. "); //DEBUG!
    logStr("Time [UTC], Bat [V], " + Header); //Log concatonated header (for new loggers)
}

int TestLib::logStr(String val)
{
   b4e2c:	b570      	push	{r4, r5, r6, lr}
   b4e2e:	4605      	mov	r5, r0
   b4e30:	b090      	sub	sp, #64	; 0x40
	// SD.begin(SD_CS); //DEBUG!
	// SD.chdir("/"); //Return to root to define starting state
	SD.chdir("Particle");  //Move into northern widget folder from root
   b4e32:	3008      	adds	r0, #8
   b4e34:	2200      	movs	r2, #0
{
   b4e36:	460e      	mov	r6, r1
	SD.chdir("Particle");  //Move into northern widget folder from root
   b4e38:	491a      	ldr	r1, [pc, #104]	; (b4ea4 <_ZN7TestLib6logStrE6String+0x78>)
   b4e3a:	9001      	str	r0, [sp, #4]
   b4e3c:	f7ff fa52 	bl	b42e4 <_ZN13FatFileSystem5chdirEPKcb.isra.0>
	SD.chdir(SN);  //Move into specific numbered sub folder
   b4e40:	f8d5 14b4 	ldr.w	r1, [r5, #1204]	; 0x4b4
   b4e44:	9801      	ldr	r0, [sp, #4]
   b4e46:	2200      	movs	r2, #0
   b4e48:	f7ff fa4c 	bl	b42e4 <_ZN13FatFileSystem5chdirEPKcb.isra.0>
	SD.chdir("Logs"); //Move into the logs sub-folder
   b4e4c:	4916      	ldr	r1, [pc, #88]	; (b4ea8 <_ZN7TestLib6logStrE6String+0x7c>)
   b4e4e:	9801      	ldr	r0, [sp, #4]
   b4e50:	2200      	movs	r2, #0
   b4e52:	f7ff fa47 	bl	b42e4 <_ZN13FatFileSystem5chdirEPKcb.isra.0>
   b4e56:	2400      	movs	r4, #0
   b4e58:	f44f 737a 	mov.w	r3, #1000	; 0x3e8
   b4e5c:	e9cd 4304 	strd	r4, r3, [sp, #16]
   b4e60:	4b12      	ldr	r3, [pc, #72]	; (b4eac <_ZN7TestLib6logStrE6String+0x80>)
   b4e62:	9303      	str	r3, [sp, #12]
    tmpFile.open(vwd(), path, oflag);
   b4e64:	f505 62a7 	add.w	r2, r5, #1336	; 0x538
   b4e68:	f244 2302 	movw	r3, #16898	; 0x4202
   b4e6c:	f205 4144 	addw	r1, r5, #1092	; 0x444
   b4e70:	a807      	add	r0, sp, #28
   b4e72:	9407      	str	r4, [sp, #28]
   b4e74:	f001 fb7d 	bl	b6572 <_ZN7FatFile4openEPS_PKci>
	File DataFile = SD.open(FileNameC, FILE_WRITE);

	// if the file is available, write to it:
	if (DataFile) {
   b4e78:	f89d 301c 	ldrb.w	r3, [sp, #28]
   b4e7c:	b14b      	cbz	r3, b4e92 <_ZN7TestLib6logStrE6String+0x66>
		DataFile.println(val);
   b4e7e:	6831      	ldr	r1, [r6, #0]
   b4e80:	a803      	add	r0, sp, #12
   b4e82:	f004 ffc4 	bl	b9e0e <_ZN5Print7printlnEPKc>
        DataFile.close();
   b4e86:	a807      	add	r0, sp, #28
   b4e88:	f001 fb6c 	bl	b6564 <_ZN7FatFile5closeEv>
	    return 0;
   b4e8c:	4620      	mov	r0, r4
        Serial.println("Print Error");
	    return -1;
	}

	// DataFile.close();
}
   b4e8e:	b010      	add	sp, #64	; 0x40
   b4e90:	bd70      	pop	{r4, r5, r6, pc}
        Serial.println("Print Error");
   b4e92:	f005 fd19 	bl	ba8c8 <_Z16_fetch_usbserialv>
   b4e96:	4906      	ldr	r1, [pc, #24]	; (b4eb0 <_ZN7TestLib6logStrE6String+0x84>)
   b4e98:	f004 ffb9 	bl	b9e0e <_ZN5Print7printlnEPKc>
	    return -1;
   b4e9c:	f04f 30ff 	mov.w	r0, #4294967295	; 0xffffffff
   b4ea0:	e7f5      	b.n	b4e8e <_ZN7TestLib6logStrE6String+0x62>
   b4ea2:	bf00      	nop
   b4ea4:	000bcaa4 	.word	0x000bcaa4
   b4ea8:	000bcacb 	.word	0x000bcacb
   b4eac:	000bcb20 	.word	0x000bcb20
   b4eb0:	000bcaad 	.word	0x000bcaad

000b4eb4 <_ZN7TestLib12addDataPointEPF6StringvE>:
{
   b4eb4:	b530      	push	{r4, r5, lr}
   b4eb6:	b08d      	sub	sp, #52	; 0x34
   b4eb8:	4604      	mov	r4, r0
   b4eba:	460d      	mov	r5, r1
	String data = "";
   b4ebc:	4668      	mov	r0, sp
   b4ebe:	491b      	ldr	r1, [pc, #108]	; (b4f2c <_ZN7TestLib12addDataPointEPF6StringvE+0x78>)
   b4ec0:	f005 fa77 	bl	ba3b2 <_ZN6StringC1EPK19__FlashStringHelper>
	data = (*update)(); //Run external update function
   b4ec4:	a808      	add	r0, sp, #32
   b4ec6:	47a8      	blx	r5
   b4ec8:	a908      	add	r1, sp, #32
   b4eca:	4668      	mov	r0, sp
   b4ecc:	f005 fac7 	bl	ba45e <_ZN6StringaSEOS_>
   b4ed0:	a808      	add	r0, sp, #32
   b4ed2:	f005 fa23 	bl	ba31c <_ZN6StringD1Ev>
	data = getOnBoardVals() + data; //Prepend on board readings
   b4ed6:	4621      	mov	r1, r4
   b4ed8:	a804      	add	r0, sp, #16
   b4eda:	f7ff fddb 	bl	b4a94 <_ZN7TestLib14getOnBoardValsEv>
	StringSumHelper(const String &s) : String(s) {}
   b4ede:	a904      	add	r1, sp, #16
   b4ee0:	a808      	add	r0, sp, #32
   b4ee2:	f005 fab1 	bl	ba448 <_ZN6StringC1ERKS_>
   b4ee6:	4669      	mov	r1, sp
   b4ee8:	a808      	add	r0, sp, #32
   b4eea:	f005 fb17 	bl	ba51c <_ZplRK15StringSumHelperRK6String>
   b4eee:	4601      	mov	r1, r0
   b4ef0:	4668      	mov	r0, sp
   b4ef2:	f005 fa9a 	bl	ba42a <_ZN6StringaSERKS_>
class StringSumHelper : public String
   b4ef6:	a808      	add	r0, sp, #32
   b4ef8:	f005 fa10 	bl	ba31c <_ZN6StringD1Ev>
   b4efc:	a804      	add	r0, sp, #16
   b4efe:	f005 fa0d 	bl	ba31c <_ZN6StringD1Ev>
	logStr(data);
   b4f02:	4669      	mov	r1, sp
   b4f04:	a808      	add	r0, sp, #32
   b4f06:	f005 fa9f 	bl	ba448 <_ZN6StringC1ERKS_>
   b4f0a:	a908      	add	r1, sp, #32
   b4f0c:	4620      	mov	r0, r4
   b4f0e:	f7ff ff8d 	bl	b4e2c <_ZN7TestLib6logStrE6String>
   b4f12:	a808      	add	r0, sp, #32
   b4f14:	f005 fa02 	bl	ba31c <_ZN6StringD1Ev>
    Serial.println(data);
   b4f18:	f005 fcd6 	bl	ba8c8 <_Z16_fetch_usbserialv>
   b4f1c:	9900      	ldr	r1, [sp, #0]
   b4f1e:	f004 ff76 	bl	b9e0e <_ZN5Print7printlnEPKc>
	String data = "";
   b4f22:	4668      	mov	r0, sp
   b4f24:	f005 f9fa 	bl	ba31c <_ZN6StringD1Ev>
}
   b4f28:	b00d      	add	sp, #52	; 0x34
   b4f2a:	bd30      	pop	{r4, r5, pc}
   b4f2c:	000bca2a 	.word	0x000bca2a

000b4f30 <_ZN7TestLib11initLogFileEv>:
{
   b4f30:	e92d 43f0 	stmdb	sp!, {r4, r5, r6, r7, r8, r9, lr}
   b4f34:	4604      	mov	r4, r0
   b4f36:	b095      	sub	sp, #84	; 0x54
    dirsetup();
   b4f38:	f7ff ff3e 	bl	b4db8 <_ZN7TestLib8dirsetupEv>
	SD.chdir("Particle");  //Move into northern widget folder from root
   b4f3c:	f104 0008 	add.w	r0, r4, #8
   b4f40:	4957      	ldr	r1, [pc, #348]	; (b50a0 <_ZN7TestLib11initLogFileEv+0x170>)
   b4f42:	9001      	str	r0, [sp, #4]
   b4f44:	2200      	movs	r2, #0
   b4f46:	f7ff f9cd 	bl	b42e4 <_ZN13FatFileSystem5chdirEPKcb.isra.0>
    SD.chdir(SN);  //Move into specific numbered sub folder    
   b4f4a:	f8d4 14b4 	ldr.w	r1, [r4, #1204]	; 0x4b4
   b4f4e:	9801      	ldr	r0, [sp, #4]
      sprintf(NumCharArray, "%05d", FileNum);
   b4f50:	f8df 8160 	ldr.w	r8, [pc, #352]	; b50b4 <_ZN7TestLib11initLogFileEv+0x184>
      (FileName + String(NumCharArray) + ".txt").toCharArray(FileNameC, 13);
   b4f54:	4f53      	ldr	r7, [pc, #332]	; (b50a4 <_ZN7TestLib11initLogFileEv+0x174>)
    SD.chdir(SN);  //Move into specific numbered sub folder    
   b4f56:	2200      	movs	r2, #0
   b4f58:	f7ff f9c4 	bl	b42e4 <_ZN13FatFileSystem5chdirEPKcb.isra.0>
    SD.chdir("Logs"); //Move into the logs sub-folder
   b4f5c:	2200      	movs	r2, #0
   b4f5e:	4952      	ldr	r1, [pc, #328]	; (b50a8 <_ZN7TestLib11initLogFileEv+0x178>)
   b4f60:	9801      	ldr	r0, [sp, #4]
   b4f62:	f7ff f9bf 	bl	b42e4 <_ZN13FatFileSystem5chdirEPKcb.isra.0>
    Serial.println("Supposed to be in Logs");
   b4f66:	f005 fcaf 	bl	ba8c8 <_Z16_fetch_usbserialv>
   b4f6a:	4950      	ldr	r1, [pc, #320]	; (b50ac <_ZN7TestLib11initLogFileEv+0x17c>)
   b4f6c:	f004 ff4f 	bl	b9e0e <_ZN5Print7printlnEPKc>
    String FileName = "Log";
   b4f70:	494f      	ldr	r1, [pc, #316]	; (b50b0 <_ZN7TestLib11initLogFileEv+0x180>)
   b4f72:	a804      	add	r0, sp, #16
   b4f74:	f005 fa1d 	bl	ba3b2 <_ZN6StringC1EPK19__FlashStringHelper>
    sprintf(NumCharArray, "%05d", FileNum);
   b4f78:	2201      	movs	r2, #1
   b4f7a:	494e      	ldr	r1, [pc, #312]	; (b50b4 <_ZN7TestLib11initLogFileEv+0x184>)
   b4f7c:	a802      	add	r0, sp, #8
   b4f7e:	f002 ffed 	bl	b7f5c <sprintf>
	StringSumHelper(const String &s) : String(s) {}
   b4f82:	a904      	add	r1, sp, #16
   b4f84:	a810      	add	r0, sp, #64	; 0x40
   b4f86:	f005 fa5f 	bl	ba448 <_ZN6StringC1ERKS_>
    (FileName + String(NumCharArray) + ".txt").toCharArray(FileNameC, 13);
   b4f8a:	a902      	add	r1, sp, #8
   b4f8c:	a80c      	add	r0, sp, #48	; 0x30
   b4f8e:	f005 fa10 	bl	ba3b2 <_ZN6StringC1EPK19__FlashStringHelper>
   b4f92:	a90c      	add	r1, sp, #48	; 0x30
   b4f94:	a810      	add	r0, sp, #64	; 0x40
   b4f96:	f005 fac1 	bl	ba51c <_ZplRK15StringSumHelperRK6String>
   b4f9a:	f504 65a7 	add.w	r5, r4, #1336	; 0x538
   b4f9e:	4941      	ldr	r1, [pc, #260]	; (b50a4 <_ZN7TestLib11initLogFileEv+0x174>)
   b4fa0:	f005 fac8 	bl	ba534 <_ZplRK15StringSumHelperPKc>
		{getBytes((unsigned char *)buf, bufsize, index);}
   b4fa4:	2300      	movs	r3, #0
   b4fa6:	220d      	movs	r2, #13
   b4fa8:	4629      	mov	r1, r5
   b4faa:	f005 faea 	bl	ba582 <_ZNK6String8getBytesEPhjj>
   b4fae:	a80c      	add	r0, sp, #48	; 0x30
   b4fb0:	f005 f9b4 	bl	ba31c <_ZN6StringD1Ev>
class StringSumHelper : public String
   b4fb4:	a810      	add	r0, sp, #64	; 0x40
   b4fb6:	f005 f9b1 	bl	ba31c <_ZN6StringD1Ev>
    int FileNum = 1;
   b4fba:	2601      	movs	r6, #1
    return &m_vwd;
   b4fbc:	f204 4944 	addw	r9, r4, #1092	; 0x444
    return vwd()->exists(path);
   b4fc0:	4629      	mov	r1, r5
   b4fc2:	4648      	mov	r0, r9
   b4fc4:	f7ff f974 	bl	b42b0 <_ZN7FatFile6existsEPKc>
    while(SD.exists(FileNameC)) {
   b4fc8:	b300      	cbz	r0, b500c <_ZN7TestLib11initLogFileEv+0xdc>
      FileNum += 1;
   b4fca:	3601      	adds	r6, #1
      sprintf(NumCharArray, "%05d", FileNum);
   b4fcc:	4632      	mov	r2, r6
   b4fce:	4641      	mov	r1, r8
   b4fd0:	a802      	add	r0, sp, #8
   b4fd2:	f002 ffc3 	bl	b7f5c <sprintf>
	StringSumHelper(const String &s) : String(s) {}
   b4fd6:	a904      	add	r1, sp, #16
   b4fd8:	a810      	add	r0, sp, #64	; 0x40
   b4fda:	f005 fa35 	bl	ba448 <_ZN6StringC1ERKS_>
      (FileName + String(NumCharArray) + ".txt").toCharArray(FileNameC, 13);
   b4fde:	a902      	add	r1, sp, #8
   b4fe0:	a80c      	add	r0, sp, #48	; 0x30
   b4fe2:	f005 f9e6 	bl	ba3b2 <_ZN6StringC1EPK19__FlashStringHelper>
   b4fe6:	a90c      	add	r1, sp, #48	; 0x30
   b4fe8:	a810      	add	r0, sp, #64	; 0x40
   b4fea:	f005 fa97 	bl	ba51c <_ZplRK15StringSumHelperRK6String>
   b4fee:	4639      	mov	r1, r7
   b4ff0:	f005 faa0 	bl	ba534 <_ZplRK15StringSumHelperPKc>
		{getBytes((unsigned char *)buf, bufsize, index);}
   b4ff4:	2300      	movs	r3, #0
   b4ff6:	220d      	movs	r2, #13
   b4ff8:	4629      	mov	r1, r5
   b4ffa:	f005 fac2 	bl	ba582 <_ZNK6String8getBytesEPhjj>
   b4ffe:	a80c      	add	r0, sp, #48	; 0x30
   b5000:	f005 f98c 	bl	ba31c <_ZN6StringD1Ev>
class StringSumHelper : public String
   b5004:	a810      	add	r0, sp, #64	; 0x40
   b5006:	f005 f989 	bl	ba31c <_ZN6StringD1Ev>
    while(SD.exists(FileNameC)) {
   b500a:	e7d9      	b.n	b4fc0 <_ZN7TestLib11initLogFileEv+0x90>
    Serial.print("FileNameC: ");
   b500c:	f005 fc5c 	bl	ba8c8 <_Z16_fetch_usbserialv>
   b5010:	4929      	ldr	r1, [pc, #164]	; (b50b8 <_ZN7TestLib11initLogFileEv+0x188>)
   b5012:	f004 fee9 	bl	b9de8 <_ZN5Print5printEPKc>
    Serial.println(FileNameC);
   b5016:	f005 fc57 	bl	ba8c8 <_Z16_fetch_usbserialv>
   b501a:	4629      	mov	r1, r5
   b501c:	f004 fef7 	bl	b9e0e <_ZN5Print7printlnEPKc>
	StringSumHelper(const char *p) : String(p) {}
   b5020:	4926      	ldr	r1, [pc, #152]	; (b50bc <_ZN7TestLib11initLogFileEv+0x18c>)
   b5022:	a810      	add	r0, sp, #64	; 0x40
   b5024:	f005 f9c5 	bl	ba3b2 <_ZN6StringC1EPK19__FlashStringHelper>
   b5028:	a80c      	add	r0, sp, #48	; 0x30
   b502a:	f002 ff07 	bl	b7e3c <spark_deviceID>
  	String InitData = " SN = " + System.deviceID();  //Make string of onboard characteristics
   b502e:	a90c      	add	r1, sp, #48	; 0x30
   b5030:	a810      	add	r0, sp, #64	; 0x40
   b5032:	f005 fa73 	bl	ba51c <_ZplRK15StringSumHelperRK6String>
   b5036:	4601      	mov	r1, r0
   b5038:	a808      	add	r0, sp, #32
   b503a:	f005 fa05 	bl	ba448 <_ZN6StringC1ERKS_>
   b503e:	a80c      	add	r0, sp, #48	; 0x30
   b5040:	f005 f96c 	bl	ba31c <_ZN6StringD1Ev>
class StringSumHelper : public String
   b5044:	a810      	add	r0, sp, #64	; 0x40
   b5046:	f005 f969 	bl	ba31c <_ZN6StringD1Ev>
  	logStr(InitData); //Log as first line of data
   b504a:	a908      	add	r1, sp, #32
   b504c:	a810      	add	r0, sp, #64	; 0x40
   b504e:	f005 f9fb 	bl	ba448 <_ZN6StringC1ERKS_>
   b5052:	a910      	add	r1, sp, #64	; 0x40
   b5054:	4620      	mov	r0, r4
   b5056:	f7ff fee9 	bl	b4e2c <_ZN7TestLib6logStrE6String>
   b505a:	a810      	add	r0, sp, #64	; 0x40
   b505c:	f005 f95e 	bl	ba31c <_ZN6StringD1Ev>
	StringSumHelper(const char *p) : String(p) {}
   b5060:	4917      	ldr	r1, [pc, #92]	; (b50c0 <_ZN7TestLib11initLogFileEv+0x190>)
   b5062:	a80c      	add	r0, sp, #48	; 0x30
   b5064:	f005 f9a5 	bl	ba3b2 <_ZN6StringC1EPK19__FlashStringHelper>
    logStr("Time [UTC], Bat [V], " + Header); //Log concatonated header (for new loggers)
   b5068:	f504 6197 	add.w	r1, r4, #1208	; 0x4b8
   b506c:	a80c      	add	r0, sp, #48	; 0x30
   b506e:	f005 fa55 	bl	ba51c <_ZplRK15StringSumHelperRK6String>
   b5072:	4601      	mov	r1, r0
   b5074:	a810      	add	r0, sp, #64	; 0x40
   b5076:	f005 f9e7 	bl	ba448 <_ZN6StringC1ERKS_>
   b507a:	a910      	add	r1, sp, #64	; 0x40
   b507c:	4620      	mov	r0, r4
   b507e:	f7ff fed5 	bl	b4e2c <_ZN7TestLib6logStrE6String>
   b5082:	a810      	add	r0, sp, #64	; 0x40
   b5084:	f005 f94a 	bl	ba31c <_ZN6StringD1Ev>
class StringSumHelper : public String
   b5088:	a80c      	add	r0, sp, #48	; 0x30
   b508a:	f005 f947 	bl	ba31c <_ZN6StringD1Ev>
  	String InitData = " SN = " + System.deviceID();  //Make string of onboard characteristics
   b508e:	a808      	add	r0, sp, #32
   b5090:	f005 f944 	bl	ba31c <_ZN6StringD1Ev>
    String FileName = "Log";
   b5094:	a804      	add	r0, sp, #16
   b5096:	f005 f941 	bl	ba31c <_ZN6StringD1Ev>
}
   b509a:	b015      	add	sp, #84	; 0x54
   b509c:	e8bd 83f0 	ldmia.w	sp!, {r4, r5, r6, r7, r8, r9, pc}
   b50a0:	000bcaa4 	.word	0x000bcaa4
   b50a4:	000bc9ad 	.word	0x000bc9ad
   b50a8:	000bcacb 	.word	0x000bcacb
   b50ac:	000bcab9 	.word	0x000bcab9
   b50b0:	000bcad0 	.word	0x000bcad0
   b50b4:	000bcad4 	.word	0x000bcad4
   b50b8:	000bcad9 	.word	0x000bcad9
   b50bc:	000bcae5 	.word	0x000bcae5
   b50c0:	000bcaec 	.word	0x000bcaec

000b50c4 <_ZN5spark10LogHandler5writeEPKcj>:
}
   b50c4:	4770      	bx	lr

000b50c6 <_ZN5spark16StreamLogHandler5writeEPKcj>:
    stream_->write((const uint8_t*)data, size);
   b50c6:	6a00      	ldr	r0, [r0, #32]
   b50c8:	6803      	ldr	r3, [r0, #0]
   b50ca:	68db      	ldr	r3, [r3, #12]
   b50cc:	4718      	bx	r3
	...

000b50d0 <_Z3tipv>:
    attachInterrupt(digitalPinToInterrupt(intPin), tip, FALLING);
    pinMode(intPin, INPUT_PULLUP);
}

void tip()
{ 
   b50d0:	b510      	push	{r4, lr}
  //Protect the system from rollover errors
	if((millis() - TimeLocal) > Holdoff) {
   b50d2:	4c08      	ldr	r4, [pc, #32]	; (b50f4 <_Z3tipv+0x24>)

#ifdef __cplusplus
extern "C" {
#endif

inline system_tick_t millis(void) { return HAL_Timer_Get_Milli_Seconds(); }
   b50d4:	f002 fca8 	bl	b7a28 <HAL_Timer_Get_Milli_Seconds>
   b50d8:	6823      	ldr	r3, [r4, #0]
   b50da:	1ac0      	subs	r0, r0, r3
   b50dc:	4b06      	ldr	r3, [pc, #24]	; (b50f8 <_Z3tipv+0x28>)
   b50de:	681b      	ldr	r3, [r3, #0]
   b50e0:	4298      	cmp	r0, r3
		TipCount++; //Increment global counter 
   b50e2:	bf81      	itttt	hi
   b50e4:	4a05      	ldrhi	r2, [pc, #20]	; (b50fc <_Z3tipv+0x2c>)
   b50e6:	6813      	ldrhi	r3, [r2, #0]
   b50e8:	3301      	addhi	r3, #1
   b50ea:	6013      	strhi	r3, [r2, #0]
   b50ec:	f002 fc9c 	bl	b7a28 <HAL_Timer_Get_Milli_Seconds>
    // Serial.println(TipCount); // DEBUG!
	}
	//Else do nothing
	TimeLocal = millis(); //Update the local time
   b50f0:	6020      	str	r0, [r4, #0]
}
   b50f2:	bd10      	pop	{r4, pc}
   b50f4:	2003e63c 	.word	0x2003e63c
   b50f8:	2003dbc0 	.word	0x2003dbc0
   b50fc:	2003e638 	.word	0x2003e638

000b5100 <_ZN5spark16SerialLogHandlerD1Ev>:
            StreamLogHandler(Serial, level, filters) {
        Serial.begin(baud);
        LogManager::instance()->addHandler(this);
    }

    virtual ~SerialLogHandler() {
   b5100:	4b0a      	ldr	r3, [pc, #40]	; (b512c <_ZN5spark16SerialLogHandlerD1Ev+0x2c>)
   b5102:	b510      	push	{r4, lr}
   b5104:	4604      	mov	r4, r0
   b5106:	6003      	str	r3, [r0, #0]
        LogManager::instance()->removeHandler(this);
   b5108:	f003 ff8e 	bl	b9028 <_ZN5spark10LogManager8instanceEv>
   b510c:	4621      	mov	r1, r4
   b510e:	f004 f9c6 	bl	b949e <_ZN5spark10LogManager13removeHandlerEPNS_10LogHandlerE>
        Serial.end();
   b5112:	f005 fbd9 	bl	ba8c8 <_Z16_fetch_usbserialv>
   b5116:	f005 fbcb 	bl	ba8b0 <_ZN9USBSerial3endEv>
    virtual ~LogHandler() = default;
   b511a:	4620      	mov	r0, r4
   b511c:	4b04      	ldr	r3, [pc, #16]	; (b5130 <_ZN5spark16SerialLogHandlerD1Ev+0x30>)
   b511e:	f840 3b04 	str.w	r3, [r0], #4
   b5122:	f004 f857 	bl	b91d4 <_ZN5spark6detail9LogFilterD1Ev>
    }
   b5126:	4620      	mov	r0, r4
   b5128:	bd10      	pop	{r4, pc}
   b512a:	bf00      	nop
   b512c:	000bcbc8 	.word	0x000bcbc8
   b5130:	000bcbb0 	.word	0x000bcbb0

000b5134 <_ZN5spark16SerialLogHandlerD0Ev>:
    virtual ~SerialLogHandler() {
   b5134:	b510      	push	{r4, lr}
   b5136:	4604      	mov	r4, r0
    }
   b5138:	f7ff ffe2 	bl	b5100 <_ZN5spark16SerialLogHandlerD1Ev>
   b513c:	4620      	mov	r0, r4
   b513e:	2124      	movs	r1, #36	; 0x24
   b5140:	f7fe ffad 	bl	b409e <_ZdlPvj>
   b5144:	4620      	mov	r0, r4
   b5146:	bd10      	pop	{r4, pc}

000b5148 <loop>:
void loop() {
   b5148:	b57f      	push	{r0, r1, r2, r3, r4, r5, r6, lr}
  if (Header.substring(0, 2) == "TC") { 
   b514a:	4949      	ldr	r1, [pc, #292]	; (b5270 <loop+0x128>)
   b514c:	2302      	movs	r3, #2
   b514e:	2200      	movs	r2, #0
   b5150:	4668      	mov	r0, sp
   b5152:	f005 fa2f 	bl	ba5b4 <_ZNK6String9substringEjj>
	unsigned char operator == (const char *cstr) const {return equals(cstr);}
   b5156:	4947      	ldr	r1, [pc, #284]	; (b5274 <loop+0x12c>)
   b5158:	4668      	mov	r0, sp
   b515a:	f005 fa00 	bl	ba55e <_ZNK6String6equalsEPKc>
   b515e:	4604      	mov	r4, r0
   b5160:	4668      	mov	r0, sp
   b5162:	f005 f8db 	bl	ba31c <_ZN6StringD1Ev>
   b5166:	2c00      	cmp	r4, #0
   b5168:	d040      	beq.n	b51ec <loop+0xa4>

#ifdef __cplusplus
}
#endif

static inline void delay(std::chrono::milliseconds ms) { ::delay(ms.count()); }
   b516a:	4843      	ldr	r0, [pc, #268]	; (b5278 <loop+0x130>)
   b516c:	f002 ff26 	bl	b7fbc <delay>
    MyLogger.relayOn(true);
   b5170:	4842      	ldr	r0, [pc, #264]	; (b527c <loop+0x134>)
   b5172:	2101      	movs	r1, #1
   b5174:	f7ff fa74 	bl	b4660 <_ZN7TestLib7relayOnEb>
    digitalWrite(D7, HIGH);
   b5178:	2101      	movs	r1, #1
   b517a:	2007      	movs	r0, #7
   b517c:	f005 fd29 	bl	babd2 <digitalWrite>
    delay(3*1000);
   b5180:	f640 30b8 	movw	r0, #3000	; 0xbb8
   b5184:	f002 ff1a 	bl	b7fbc <delay>
    MyLogger.addDataPoint(calc);
   b5188:	493d      	ldr	r1, [pc, #244]	; (b5280 <loop+0x138>)
   b518a:	483c      	ldr	r0, [pc, #240]	; (b527c <loop+0x134>)
   b518c:	f7ff fe92 	bl	b4eb4 <_ZN7TestLib12addDataPointEPF6StringvE>
    digitalWrite(D7, LOW);
   b5190:	2100      	movs	r1, #0
   b5192:	2007      	movs	r0, #7
   b5194:	f005 fd1d 	bl	babd2 <digitalWrite>
    MyLogger.relayOn(false);
   b5198:	2100      	movs	r1, #0
   b519a:	4838      	ldr	r0, [pc, #224]	; (b527c <loop+0x134>)
   b519c:	f7ff fa60 	bl	b4660 <_ZN7TestLib7relayOnEb>
    delay(27*1000);
   b51a0:	f646 1078 	movw	r0, #27000	; 0x6978
   b51a4:	f002 ff0a 	bl	b7fbc <delay>
    MyLogger.relayOn(true);
   b51a8:	4834      	ldr	r0, [pc, #208]	; (b527c <loop+0x134>)
   b51aa:	2101      	movs	r1, #1
   b51ac:	f7ff fa58 	bl	b4660 <_ZN7TestLib7relayOnEb>
    digitalWrite(D7, HIGH);
   b51b0:	2101      	movs	r1, #1
   b51b2:	2007      	movs	r0, #7
   b51b4:	f005 fd0d 	bl	babd2 <digitalWrite>
    delay(3*1000);
   b51b8:	f640 30b8 	movw	r0, #3000	; 0xbb8
   b51bc:	f002 fefe 	bl	b7fbc <delay>
    MyLogger.addDataPoint(calc);
   b51c0:	492f      	ldr	r1, [pc, #188]	; (b5280 <loop+0x138>)
   b51c2:	482e      	ldr	r0, [pc, #184]	; (b527c <loop+0x134>)
   b51c4:	f7ff fe76 	bl	b4eb4 <_ZN7TestLib12addDataPointEPF6StringvE>
    digitalWrite(D7, LOW);
   b51c8:	2100      	movs	r1, #0
   b51ca:	2007      	movs	r0, #7
   b51cc:	f005 fd01 	bl	babd2 <digitalWrite>
    MyLogger.relayOn(false);
   b51d0:	2100      	movs	r1, #0
   b51d2:	482a      	ldr	r0, [pc, #168]	; (b527c <loop+0x134>)
   b51d4:	f7ff fa44 	bl	b4660 <_ZN7TestLib7relayOnEb>
    delay(27*1000);
   b51d8:	f646 1078 	movw	r0, #27000	; 0x6978
   b51dc:	f002 feee 	bl	b7fbc <delay>
   b51e0:	4828      	ldr	r0, [pc, #160]	; (b5284 <loop+0x13c>)
}
   b51e2:	b004      	add	sp, #16
   b51e4:	e8bd 4070 	ldmia.w	sp!, {r4, r5, r6, lr}
   b51e8:	f002 bee8 	b.w	b7fbc <delay>
    Serial.println(millis()); // DEBUG!
   b51ec:	f005 fb6c 	bl	ba8c8 <_Z16_fetch_usbserialv>
   b51f0:	4604      	mov	r4, r0
inline system_tick_t millis(void) { return HAL_Timer_Get_Milli_Seconds(); }
   b51f2:	f002 fc19 	bl	b7a28 <HAL_Timer_Get_Milli_Seconds>
        return printNumber(val, base) + t;
   b51f6:	220a      	movs	r2, #10
   b51f8:	4601      	mov	r1, r0
   b51fa:	4620      	mov	r0, r4
   b51fc:	f004 fe13 	bl	b9e26 <_ZN5Print11printNumberEmh>
        n += println();
   b5200:	4620      	mov	r0, r4
   b5202:	f004 fdf8 	bl	b9df6 <_ZN5Print7printlnEv>
    MyLogger.relayOn(true);
   b5206:	481d      	ldr	r0, [pc, #116]	; (b527c <loop+0x134>)
      MyLogger.addDataPoint(calc);
   b5208:	4e1d      	ldr	r6, [pc, #116]	; (b5280 <loop+0x138>)
   b520a:	4d1c      	ldr	r5, [pc, #112]	; (b527c <loop+0x134>)
    MyLogger.relayOn(true);
   b520c:	2101      	movs	r1, #1
   b520e:	f7ff fa27 	bl	b4660 <_ZN7TestLib7relayOnEb>
    digitalWrite(D7, HIGH);
   b5212:	2101      	movs	r1, #1
   b5214:	2007      	movs	r0, #7
   b5216:	f005 fcdc 	bl	babd2 <digitalWrite>
   b521a:	240a      	movs	r4, #10
      delay(3*1000);
   b521c:	f640 30b8 	movw	r0, #3000	; 0xbb8
   b5220:	f002 fecc 	bl	b7fbc <delay>
      MyLogger.addDataPoint(calc);
   b5224:	4631      	mov	r1, r6
   b5226:	4628      	mov	r0, r5
   b5228:	f7ff fe44 	bl	b4eb4 <_ZN7TestLib12addDataPointEPF6StringvE>
    for (int i = 0; i < 10; i++) {
   b522c:	3c01      	subs	r4, #1
   b522e:	d1f5      	bne.n	b521c <loop+0xd4>
    digitalWrite(D7, LOW);
   b5230:	4621      	mov	r1, r4
   b5232:	2007      	movs	r0, #7
   b5234:	f005 fccd 	bl	babd2 <digitalWrite>
    MyLogger.relayOn(false);
   b5238:	4621      	mov	r1, r4
   b523a:	4810      	ldr	r0, [pc, #64]	; (b527c <loop+0x134>)
   b523c:	f7ff fa10 	bl	b4660 <_ZN7TestLib7relayOnEb>
    Serial.println(millis()); // DEBUG!
   b5240:	f005 fb42 	bl	ba8c8 <_Z16_fetch_usbserialv>
   b5244:	4604      	mov	r4, r0
   b5246:	f002 fbef 	bl	b7a28 <HAL_Timer_Get_Milli_Seconds>
        return printNumber(val, base) + t;
   b524a:	220a      	movs	r2, #10
   b524c:	4601      	mov	r1, r0
   b524e:	4620      	mov	r0, r4
   b5250:	f004 fde9 	bl	b9e26 <_ZN5Print11printNumberEmh>
        n += println();
   b5254:	4620      	mov	r0, r4
   b5256:	f004 fdce 	bl	b9df6 <_ZN5Print7printlnEv>
    System.sleep(config);
   b525a:	4668      	mov	r0, sp
   b525c:	490a      	ldr	r1, [pc, #40]	; (b5288 <loop+0x140>)
   b525e:	f005 f9f9 	bl	ba654 <_ZN11SystemClass5sleepERKN8particle24SystemSleepConfigurationE>
        if (wakeupSource_) {
   b5262:	9800      	ldr	r0, [sp, #0]
   b5264:	b108      	cbz	r0, b526a <loop+0x122>
            free(wakeupSource_);
   b5266:	f002 fe69 	bl	b7f3c <free>
}
   b526a:	b004      	add	sp, #16
   b526c:	bd70      	pop	{r4, r5, r6, pc}
   b526e:	bf00      	nop
   b5270:	2003dc50 	.word	0x2003dc50
   b5274:	000bca79 	.word	0x000bca79
   b5278:	00124f80 	.word	0x00124f80
   b527c:	2003dc60 	.word	0x2003dc60
   b5280:	000b5405 	.word	0x000b5405
   b5284:	000927c0 	.word	0x000927c0
   b5288:	2003e640 	.word	0x2003e640

000b528c <_Z7RGsetupv>:
void RGsetup() {
   b528c:	b507      	push	{r0, r1, r2, lr}
    attachInterrupt(digitalPinToInterrupt(intPin), tip, FALLING);
   b528e:	2300      	movs	r3, #0
   b5290:	2202      	movs	r2, #2
   b5292:	9300      	str	r3, [sp, #0]
   b5294:	4906      	ldr	r1, [pc, #24]	; (b52b0 <_Z7RGsetupv+0x24>)
   b5296:	f04f 33ff 	mov.w	r3, #4294967295	; 0xffffffff
   b529a:	4610      	mov	r0, r2
   b529c:	f003 faee 	bl	b887c <_Z15attachInterrupttPFvvE13InterruptModeah>
    pinMode(intPin, INPUT_PULLUP);
   b52a0:	2102      	movs	r1, #2
   b52a2:	4608      	mov	r0, r1
}
   b52a4:	b003      	add	sp, #12
   b52a6:	f85d eb04 	ldr.w	lr, [sp], #4
    pinMode(intPin, INPUT_PULLUP);
   b52aa:	f005 bc81 	b.w	babb0 <pinMode>
   b52ae:	bf00      	nop
   b52b0:	000b50d1 	.word	0x000b50d1

000b52b4 <setup>:
void setup() {
   b52b4:	b530      	push	{r4, r5, lr}
  Header = "Soil Top [mV], Soil Mid [mV], Soil Bottom [mV], Rain [in], ";
   b52b6:	493b      	ldr	r1, [pc, #236]	; (b53a4 <setup+0xf0>)
   b52b8:	483b      	ldr	r0, [pc, #236]	; (b53a8 <setup+0xf4>)
        return true;
    }

    // Setters
    SystemSleepConfiguration& mode(SystemSleepMode mode) {
        if (valid_) {
   b52ba:	4c3c      	ldr	r4, [pc, #240]	; (b53ac <setup+0xf8>)
void setup() {
   b52bc:	b085      	sub	sp, #20
  Header = "Soil Top [mV], Soil Mid [mV], Soil Bottom [mV], Rain [in], ";
   b52be:	f005 f8d6 	bl	ba46e <_ZN6StringaSEPKc>
  MyLogger.begin(Header); //Pass header info to logger
   b52c2:	4939      	ldr	r1, [pc, #228]	; (b53a8 <setup+0xf4>)
   b52c4:	4668      	mov	r0, sp
   b52c6:	f005 f8bf 	bl	ba448 <_ZN6StringC1ERKS_>
   b52ca:	4669      	mov	r1, sp
   b52cc:	4838      	ldr	r0, [pc, #224]	; (b53b0 <setup+0xfc>)
   b52ce:	f7ff fc5f 	bl	b4b90 <_ZN7TestLib5beginE6String>
   b52d2:	4668      	mov	r0, sp
   b52d4:	f005 f822 	bl	ba31c <_ZN6StringD1Ev>
  Serial.println("Finish initialization!"); // DEBUG!!
   b52d8:	f005 faf6 	bl	ba8c8 <_Z16_fetch_usbserialv>
   b52dc:	4935      	ldr	r1, [pc, #212]	; (b53b4 <setup+0x100>)
   b52de:	f004 fd96 	bl	b9e0e <_ZN5Print7printlnEPKc>
  MyLogger.initLogFile();
   b52e2:	4833      	ldr	r0, [pc, #204]	; (b53b0 <setup+0xfc>)
   b52e4:	f7ff fe24 	bl	b4f30 <_ZN7TestLib11initLogFileEv>
  pinMode(intPin, INPUT); // For rain gauge
   b52e8:	2100      	movs	r1, #0
   b52ea:	2002      	movs	r0, #2
   b52ec:	f005 fc60 	bl	babb0 <pinMode>
  MyLogger.getTime();
   b52f0:	492f      	ldr	r1, [pc, #188]	; (b53b0 <setup+0xfc>)
   b52f2:	4668      	mov	r0, sp
   b52f4:	f7ff f9cc 	bl	b4690 <_ZN7TestLib7getTimeEv>
   b52f8:	4668      	mov	r0, sp
   b52fa:	f005 f80f 	bl	ba31c <_ZN6StringD1Ev>
  RGsetup();
   b52fe:	f7ff ffc5 	bl	b528c <_Z7RGsetupv>
   b5302:	7d23      	ldrb	r3, [r4, #20]
   b5304:	2b00      	cmp	r3, #0
   b5306:	d045      	beq.n	b5394 <setup+0xe0>
            config_.mode = static_cast<hal_sleep_mode_t>(mode);
   b5308:	2301      	movs	r3, #1
   b530a:	7223      	strb	r3, [r4, #8]
        return wakeupSourceFeatured(type, config_->wakeup_sources);
   b530c:	6823      	ldr	r3, [r4, #0]
   b530e:	68db      	ldr	r3, [r3, #12]
        if (!start) {
   b5310:	b1c3      	cbz	r3, b5344 <setup+0x90>
            if (start->type == type) {
   b5312:	889a      	ldrh	r2, [r3, #4]
   b5314:	2a01      	cmp	r2, #1
   b5316:	d006      	beq.n	b5326 <setup+0x72>
            start = start->next;
   b5318:	689b      	ldr	r3, [r3, #8]
        while (start) {
   b531a:	e7f9      	b.n	b5310 <setup+0x5c>
                auto gpioWakeup = reinterpret_cast<hal_wakeup_source_gpio_t*>(wakeup);
                if (gpioWakeup->pin == pin) {
                    gpioWakeup->mode = mode;
                    return *this;
                }
                wakeup = wakeupSourceFeatured(HAL_WAKEUP_SOURCE_TYPE_GPIO, wakeup->next);
   b531c:	689b      	ldr	r3, [r3, #8]
        if (!start) {
   b531e:	b18b      	cbz	r3, b5344 <setup+0x90>
            if (start->type == type) {
   b5320:	889a      	ldrh	r2, [r3, #4]
   b5322:	2a01      	cmp	r2, #1
   b5324:	d1fa      	bne.n	b531c <setup+0x68>
                if (gpioWakeup->pin == pin) {
   b5326:	899a      	ldrh	r2, [r3, #12]
   b5328:	2a02      	cmp	r2, #2
   b532a:	d1f7      	bne.n	b531c <setup+0x68>
                    gpioWakeup->mode = mode;
   b532c:	739a      	strb	r2, [r3, #14]
        }
        return *this;
    }

    SystemSleepConfiguration& duration(system_tick_t ms) {
        if (valid_) {
   b532e:	7d23      	ldrb	r3, [r4, #20]
   b5330:	2b00      	cmp	r3, #0
   b5332:	d02f      	beq.n	b5394 <setup+0xe0>
        return wakeupSourceFeatured(type, config_->wakeup_sources);
   b5334:	6823      	ldr	r3, [r4, #0]
   b5336:	68db      	ldr	r3, [r3, #12]
        if (!start) {
   b5338:	b1cb      	cbz	r3, b536e <setup+0xba>
            if (start->type == type) {
   b533a:	889a      	ldrh	r2, [r3, #4]
   b533c:	2a04      	cmp	r2, #4
   b533e:	d02b      	beq.n	b5398 <setup+0xe4>
            start = start->next;
   b5340:	689b      	ldr	r3, [r3, #8]
        while (start) {
   b5342:	e7f9      	b.n	b5338 <setup+0x84>
            auto wakeupSource = new(std::nothrow) hal_wakeup_source_gpio_t();
   b5344:	491c      	ldr	r1, [pc, #112]	; (b53b8 <setup+0x104>)
   b5346:	2010      	movs	r0, #16
   b5348:	f005 fcee 	bl	bad28 <_ZnwjRKSt9nothrow_t>
   b534c:	4605      	mov	r5, r0
   b534e:	b330      	cbz	r0, b539e <setup+0xea>
   b5350:	2210      	movs	r2, #16
   b5352:	2100      	movs	r1, #0
   b5354:	f007 f872 	bl	bc43c <memset>
            wakeupSource->base.size = sizeof(hal_wakeup_source_gpio_t);
   b5358:	4b18      	ldr	r3, [pc, #96]	; (b53bc <setup+0x108>)
   b535a:	602b      	str	r3, [r5, #0]
            wakeupSource->base.type = HAL_WAKEUP_SOURCE_TYPE_GPIO;
   b535c:	2301      	movs	r3, #1
   b535e:	80ab      	strh	r3, [r5, #4]
            wakeupSource->base.next = config_.wakeup_sources;
   b5360:	6923      	ldr	r3, [r4, #16]
   b5362:	60ab      	str	r3, [r5, #8]
            wakeupSource->pin = pin;
   b5364:	2302      	movs	r3, #2
   b5366:	81ab      	strh	r3, [r5, #12]
            wakeupSource->mode = mode;
   b5368:	73ab      	strb	r3, [r5, #14]
            config_.wakeup_sources = reinterpret_cast<hal_wakeup_source_base_t*>(wakeupSource);
   b536a:	6125      	str	r5, [r4, #16]
   b536c:	e7df      	b.n	b532e <setup+0x7a>
            if (wakeup) {
                reinterpret_cast<hal_wakeup_source_rtc_t*>(wakeup)->ms = ms;
                return *this;
            }
            // Otherwise, configure RTC as wakeup source.
            auto wakeupSource = new(std::nothrow) hal_wakeup_source_rtc_t();
   b536e:	4912      	ldr	r1, [pc, #72]	; (b53b8 <setup+0x104>)
   b5370:	2010      	movs	r0, #16
   b5372:	f005 fcd9 	bl	bad28 <_ZnwjRKSt9nothrow_t>
   b5376:	4605      	mov	r5, r0
   b5378:	b188      	cbz	r0, b539e <setup+0xea>
   b537a:	2210      	movs	r2, #16
   b537c:	2100      	movs	r1, #0
   b537e:	f007 f85d 	bl	bc43c <memset>
            if (!wakeupSource) {
                valid_ = false;
                return *this;
            }
            wakeupSource->base.size = sizeof(hal_wakeup_source_rtc_t);
   b5382:	4b0e      	ldr	r3, [pc, #56]	; (b53bc <setup+0x108>)
   b5384:	602b      	str	r3, [r5, #0]
            wakeupSource->base.version = HAL_SLEEP_VERSION;
            wakeupSource->base.type = HAL_WAKEUP_SOURCE_TYPE_RTC;
   b5386:	2304      	movs	r3, #4
   b5388:	80ab      	strh	r3, [r5, #4]
            wakeupSource->base.next = config_.wakeup_sources;
   b538a:	6923      	ldr	r3, [r4, #16]
   b538c:	60ab      	str	r3, [r5, #8]
            wakeupSource->ms = ms;
   b538e:	4b0c      	ldr	r3, [pc, #48]	; (b53c0 <setup+0x10c>)
   b5390:	60eb      	str	r3, [r5, #12]
            config_.wakeup_sources = reinterpret_cast<hal_wakeup_source_base_t*>(wakeupSource);
   b5392:	6125      	str	r5, [r4, #16]
}
   b5394:	b005      	add	sp, #20
   b5396:	bd30      	pop	{r4, r5, pc}
                reinterpret_cast<hal_wakeup_source_rtc_t*>(wakeup)->ms = ms;
   b5398:	4a09      	ldr	r2, [pc, #36]	; (b53c0 <setup+0x10c>)
   b539a:	60da      	str	r2, [r3, #12]
                return *this;
   b539c:	e7fa      	b.n	b5394 <setup+0xe0>
                valid_ = false;
   b539e:	7525      	strb	r5, [r4, #20]
                return *this;
   b53a0:	e7f8      	b.n	b5394 <setup+0xe0>
   b53a2:	bf00      	nop
   b53a4:	000bcb50 	.word	0x000bcb50
   b53a8:	2003dc50 	.word	0x2003dc50
   b53ac:	2003e640 	.word	0x2003e640
   b53b0:	2003dc60 	.word	0x2003dc60
   b53b4:	000bcb8c 	.word	0x000bcb8c
   b53b8:	000bcf8c 	.word	0x000bcf8c
   b53bc:	00030010 	.word	0x00030010
   b53c0:	01499700 	.word	0x01499700
   b53c4:	00000000 	.word	0x00000000

000b53c8 <_Z7getRainv>:

String getRain() 
{
   b53c8:	b510      	push	{r4, lr}
	float Val1 = TipCount*0.01;  //Account for per tip (inch)
   b53ca:	4b0d      	ldr	r3, [pc, #52]	; (b5400 <_Z7getRainv+0x38>)
	TipCount = 0; //Clear count with each update 
   b53cc:	2200      	movs	r2, #0
{
   b53ce:	4604      	mov	r4, r0
	float Val1 = TipCount*0.01;  //Account for per tip (inch)
   b53d0:	6818      	ldr	r0, [r3, #0]
	TipCount = 0; //Clear count with each update 
   b53d2:	601a      	str	r2, [r3, #0]
	float Val1 = TipCount*0.01;  //Account for per tip (inch)
   b53d4:	f006 fa8a 	bl	bb8ec <__aeabi_ui2d>
   b53d8:	a307      	add	r3, pc, #28	; (adr r3, b53f8 <_Z7getRainv+0x30>)
   b53da:	e9d3 2300 	ldrd	r2, r3, [r3]
   b53de:	f006 faff 	bl	bb9e0 <__aeabi_dmul>
   b53e2:	f006 fdf5 	bl	bbfd0 <__aeabi_d2f>
	return String(Val1);
   b53e6:	2106      	movs	r1, #6
   b53e8:	ee00 0a10 	vmov	s0, r0
   b53ec:	4620      	mov	r0, r4
   b53ee:	f005 f850 	bl	ba492 <_ZN6StringC1Efi>
   b53f2:	4620      	mov	r0, r4
   b53f4:	bd10      	pop	{r4, pc}
   b53f6:	bf00      	nop
   b53f8:	47ae147b 	.word	0x47ae147b
   b53fc:	3f847ae1 	.word	0x3f847ae1
   b5400:	2003e638 	.word	0x2003e638

000b5404 <_Z4calcv>:
String calc(){
   b5404:	b530      	push	{r4, r5, lr}
   b5406:	b08d      	sub	sp, #52	; 0x34
  if (Header.substring(0, 2) == "TC") {
   b5408:	4938      	ldr	r1, [pc, #224]	; (b54ec <_Z4calcv+0xe8>)
   b540a:	2302      	movs	r3, #2
   b540c:	2200      	movs	r2, #0
String calc(){
   b540e:	4604      	mov	r4, r0
  if (Header.substring(0, 2) == "TC") {
   b5410:	a808      	add	r0, sp, #32
   b5412:	f005 f8cf 	bl	ba5b4 <_ZNK6String9substringEjj>
   b5416:	4936      	ldr	r1, [pc, #216]	; (b54f0 <_Z4calcv+0xec>)
   b5418:	a808      	add	r0, sp, #32
   b541a:	f005 f8a0 	bl	ba55e <_ZNK6String6equalsEPKc>
   b541e:	4605      	mov	r5, r0
   b5420:	a808      	add	r0, sp, #32
   b5422:	f004 ff7b 	bl	ba31c <_ZN6StringD1Ev>
   b5426:	b14d      	cbz	r5, b543c <_Z4calcv+0x38>
    volt = MyLogger.getTCvoltage();
   b5428:	4832      	ldr	r0, [pc, #200]	; (b54f4 <_Z4calcv+0xf0>)
   b542a:	f7ff fb6f 	bl	b4b0c <_ZN7TestLib12getTCvoltageEv>
    return String(volt);
   b542e:	2106      	movs	r1, #6
   b5430:	4620      	mov	r0, r4
   b5432:	f005 f848 	bl	ba4c6 <_ZN6StringC1Edi>
}
   b5436:	4620      	mov	r0, r4
   b5438:	b00d      	add	sp, #52	; 0x34
   b543a:	bd30      	pop	{r4, r5, pc}
  } else if (Header.substring(0, 4) == "Rain")
   b543c:	462a      	mov	r2, r5
   b543e:	2304      	movs	r3, #4
   b5440:	492a      	ldr	r1, [pc, #168]	; (b54ec <_Z4calcv+0xe8>)
   b5442:	a808      	add	r0, sp, #32
   b5444:	f005 f8b6 	bl	ba5b4 <_ZNK6String9substringEjj>
   b5448:	492b      	ldr	r1, [pc, #172]	; (b54f8 <_Z4calcv+0xf4>)
   b544a:	a808      	add	r0, sp, #32
   b544c:	f005 f887 	bl	ba55e <_ZNK6String6equalsEPKc>
   b5450:	4605      	mov	r5, r0
   b5452:	a808      	add	r0, sp, #32
   b5454:	f004 ff62 	bl	ba31c <_ZN6StringD1Ev>
    String rain;
   b5458:	4928      	ldr	r1, [pc, #160]	; (b54fc <_Z4calcv+0xf8>)
  } else if (Header.substring(0, 4) == "Rain")
   b545a:	b1a5      	cbz	r5, b5486 <_Z4calcv+0x82>
    String rain;
   b545c:	a804      	add	r0, sp, #16
   b545e:	f004 ffa8 	bl	ba3b2 <_ZN6StringC1EPK19__FlashStringHelper>
    rain = getRain();
   b5462:	a808      	add	r0, sp, #32
   b5464:	f7ff ffb0 	bl	b53c8 <_Z7getRainv>
   b5468:	a908      	add	r1, sp, #32
   b546a:	a804      	add	r0, sp, #16
   b546c:	f004 fff7 	bl	ba45e <_ZN6StringaSEOS_>
   b5470:	a808      	add	r0, sp, #32
   b5472:	f004 ff53 	bl	ba31c <_ZN6StringD1Ev>
    return rain;
   b5476:	a904      	add	r1, sp, #16
   b5478:	4620      	mov	r0, r4
   b547a:	f004 ffcb 	bl	ba414 <_ZN6StringC1EOS_>
    String rain;
   b547e:	a804      	add	r0, sp, #16
    String rain;
   b5480:	f004 ff4c 	bl	ba31c <_ZN6StringD1Ev>
   b5484:	e7d7      	b.n	b5436 <_Z4calcv+0x32>
   b5486:	4668      	mov	r0, sp
   b5488:	f004 ff93 	bl	ba3b2 <_ZN6StringC1EPK19__FlashStringHelper>
    String soil;
   b548c:	491b      	ldr	r1, [pc, #108]	; (b54fc <_Z4calcv+0xf8>)
   b548e:	a804      	add	r0, sp, #16
   b5490:	f004 ff8f 	bl	ba3b2 <_ZN6StringC1EPK19__FlashStringHelper>
    soil = MyLogger.getSoilvoltage();
   b5494:	4917      	ldr	r1, [pc, #92]	; (b54f4 <_Z4calcv+0xf0>)
   b5496:	a808      	add	r0, sp, #32
   b5498:	f7ff fc0e 	bl	b4cb8 <_ZN7TestLib14getSoilvoltageEv>
   b549c:	a908      	add	r1, sp, #32
   b549e:	a804      	add	r0, sp, #16
   b54a0:	f004 ffdd 	bl	ba45e <_ZN6StringaSEOS_>
   b54a4:	a808      	add	r0, sp, #32
   b54a6:	f004 ff39 	bl	ba31c <_ZN6StringD1Ev>
    rain = getRain();
   b54aa:	a808      	add	r0, sp, #32
   b54ac:	f7ff ff8c 	bl	b53c8 <_Z7getRainv>
   b54b0:	a908      	add	r1, sp, #32
   b54b2:	4668      	mov	r0, sp
   b54b4:	f004 ffd3 	bl	ba45e <_ZN6StringaSEOS_>
   b54b8:	a808      	add	r0, sp, #32
   b54ba:	f004 ff2f 	bl	ba31c <_ZN6StringD1Ev>
	StringSumHelper(const String &s) : String(s) {}
   b54be:	a904      	add	r1, sp, #16
   b54c0:	a808      	add	r0, sp, #32
   b54c2:	f004 ffc1 	bl	ba448 <_ZN6StringC1ERKS_>
    return soil+","+rain;
   b54c6:	490e      	ldr	r1, [pc, #56]	; (b5500 <_Z4calcv+0xfc>)
   b54c8:	a808      	add	r0, sp, #32
   b54ca:	f005 f833 	bl	ba534 <_ZplRK15StringSumHelperPKc>
   b54ce:	4669      	mov	r1, sp
   b54d0:	f005 f824 	bl	ba51c <_ZplRK15StringSumHelperRK6String>
   b54d4:	4601      	mov	r1, r0
   b54d6:	4620      	mov	r0, r4
   b54d8:	f004 ffb6 	bl	ba448 <_ZN6StringC1ERKS_>
class StringSumHelper : public String
   b54dc:	a808      	add	r0, sp, #32
   b54de:	f004 ff1d 	bl	ba31c <_ZN6StringD1Ev>
    String soil;
   b54e2:	a804      	add	r0, sp, #16
   b54e4:	f004 ff1a 	bl	ba31c <_ZN6StringD1Ev>
    String rain;
   b54e8:	4668      	mov	r0, sp
   b54ea:	e7c9      	b.n	b5480 <_Z4calcv+0x7c>
   b54ec:	2003dc50 	.word	0x2003dc50
   b54f0:	000bca79 	.word	0x000bca79
   b54f4:	2003dc60 	.word	0x2003dc60
   b54f8:	000bcba3 	.word	0x000bcba3
   b54fc:	000bca2a 	.word	0x000bca2a
   b5500:	000bca2b 	.word	0x000bca2b

000b5504 <_ZN5spark6VectorINS_17LogCategoryFilterENS_16DefaultAllocatorEED1Ev>:
inline spark::Vector<T, AllocatorT>::Vector(Vector<T, AllocatorT>&& vector) : Vector() {
    swap(*this, vector);
}

template<typename T, typename AllocatorT>
inline spark::Vector<T, AllocatorT>::~Vector() {
   b5504:	b570      	push	{r4, r5, r6, lr}
    destruct(data_, data_ + size_);
   b5506:	e9d0 5300 	ldrd	r5, r3, [r0]
   b550a:	2614      	movs	r6, #20
inline spark::Vector<T, AllocatorT>::~Vector() {
   b550c:	4604      	mov	r4, r0
    destruct(data_, data_ + size_);
   b550e:	fb06 5603 	mla	r6, r6, r3, r5
        for (; p != end; ++p) {
   b5512:	42ae      	cmp	r6, r5
   b5514:	d004      	beq.n	b5520 <_ZN5spark6VectorINS_17LogCategoryFilterENS_16DefaultAllocatorEED1Ev+0x1c>
class LogCategoryFilter {
   b5516:	4628      	mov	r0, r5
   b5518:	f004 ff00 	bl	ba31c <_ZN6StringD1Ev>
   b551c:	3514      	adds	r5, #20
   b551e:	e7f8      	b.n	b5512 <_ZN5spark6VectorINS_17LogCategoryFilterENS_16DefaultAllocatorEED1Ev+0xe>
    ::free(ptr);
   b5520:	6820      	ldr	r0, [r4, #0]
   b5522:	f002 fd0b 	bl	b7f3c <free>
    AllocatorT::free(data_);
}
   b5526:	4620      	mov	r0, r4
   b5528:	bd70      	pop	{r4, r5, r6, pc}

000b552a <_ZN5spark6VectorINS_17LogCategoryFilterENS_16DefaultAllocatorEE4moveIS1_Li0EEEvPS1_S5_S5_>:
        if (dest > p && dest < end) {
   b552a:	4288      	cmp	r0, r1
    static void move(T* dest, T* p, T* end) {
   b552c:	b5f8      	push	{r3, r4, r5, r6, r7, lr}
   b552e:	4604      	mov	r4, r0
   b5530:	460d      	mov	r5, r1
   b5532:	4616      	mov	r6, r2
        if (dest > p && dest < end) {
   b5534:	d916      	bls.n	b5564 <_ZN5spark6VectorINS_17LogCategoryFilterENS_16DefaultAllocatorEE4moveIS1_Li0EEEvPS1_S5_S5_+0x3a>
   b5536:	4290      	cmp	r0, r2
   b5538:	d215      	bcs.n	b5566 <_ZN5spark6VectorINS_17LogCategoryFilterENS_16DefaultAllocatorEE4moveIS1_Li0EEEvPS1_S5_S5_+0x3c>
            --end;
   b553a:	f1a2 0614 	sub.w	r6, r2, #20
            dest += end - p - 1;
   b553e:	1a75      	subs	r5, r6, r1
   b5540:	f1a1 0714 	sub.w	r7, r1, #20
   b5544:	442c      	add	r4, r5
            for (; end != p; --end, --dest) {
   b5546:	42b7      	cmp	r7, r6
   b5548:	d01c      	beq.n	b5584 <_ZN5spark6VectorINS_17LogCategoryFilterENS_16DefaultAllocatorEE4moveIS1_Li0EEEvPS1_S5_S5_+0x5a>
                new(dest) T(std::move(*end));
   b554a:	b12c      	cbz	r4, b5558 <_ZN5spark6VectorINS_17LogCategoryFilterENS_16DefaultAllocatorEE4moveIS1_Li0EEEvPS1_S5_S5_+0x2e>
   b554c:	4631      	mov	r1, r6
   b554e:	4620      	mov	r0, r4
   b5550:	f004 ff60 	bl	ba414 <_ZN6StringC1EOS_>
   b5554:	7c33      	ldrb	r3, [r6, #16]
   b5556:	7423      	strb	r3, [r4, #16]
   b5558:	4630      	mov	r0, r6
   b555a:	f004 fedf 	bl	ba31c <_ZN6StringD1Ev>
            for (; end != p; --end, --dest) {
   b555e:	3e14      	subs	r6, #20
   b5560:	3c14      	subs	r4, #20
   b5562:	e7f0      	b.n	b5546 <_ZN5spark6VectorINS_17LogCategoryFilterENS_16DefaultAllocatorEE4moveIS1_Li0EEEvPS1_S5_S5_+0x1c>
        } else if (dest != p) {
   b5564:	d00e      	beq.n	b5584 <_ZN5spark6VectorINS_17LogCategoryFilterENS_16DefaultAllocatorEE4moveIS1_Li0EEEvPS1_S5_S5_+0x5a>
            for (; p != end; ++p, ++dest) {
   b5566:	42b5      	cmp	r5, r6
   b5568:	d00c      	beq.n	b5584 <_ZN5spark6VectorINS_17LogCategoryFilterENS_16DefaultAllocatorEE4moveIS1_Li0EEEvPS1_S5_S5_+0x5a>
                new(dest) T(std::move(*p));
   b556a:	b12c      	cbz	r4, b5578 <_ZN5spark6VectorINS_17LogCategoryFilterENS_16DefaultAllocatorEE4moveIS1_Li0EEEvPS1_S5_S5_+0x4e>
   b556c:	4629      	mov	r1, r5
   b556e:	4620      	mov	r0, r4
   b5570:	f004 ff50 	bl	ba414 <_ZN6StringC1EOS_>
   b5574:	7c2b      	ldrb	r3, [r5, #16]
   b5576:	7423      	strb	r3, [r4, #16]
   b5578:	4628      	mov	r0, r5
   b557a:	f004 fecf 	bl	ba31c <_ZN6StringD1Ev>
            for (; p != end; ++p, ++dest) {
   b557e:	3514      	adds	r5, #20
   b5580:	3414      	adds	r4, #20
   b5582:	e7f0      	b.n	b5566 <_ZN5spark6VectorINS_17LogCategoryFilterENS_16DefaultAllocatorEE4moveIS1_Li0EEEvPS1_S5_S5_+0x3c>
    }
   b5584:	bdf8      	pop	{r3, r4, r5, r6, r7, pc}

000b5586 <_ZN5spark6VectorINS_17LogCategoryFilterENS_16DefaultAllocatorEEC1ERKS3_>:
inline spark::Vector<T, AllocatorT>::Vector(const Vector<T, AllocatorT>& vector) : Vector() {
   b5586:	e92d 41f0 	stmdb	sp!, {r4, r5, r6, r7, r8, lr}
        capacity_(0) {
   b558a:	2300      	movs	r3, #0
   b558c:	e9c0 3300 	strd	r3, r3, [r0]
   b5590:	6083      	str	r3, [r0, #8]
    if (vector.size_ > 0 && realloc(vector.size_)) {
   b5592:	684f      	ldr	r7, [r1, #4]
   b5594:	429f      	cmp	r7, r3
inline spark::Vector<T, AllocatorT>::Vector(const Vector<T, AllocatorT>& vector) : Vector() {
   b5596:	4604      	mov	r4, r0
   b5598:	460e      	mov	r6, r1
    if (vector.size_ > 0 && realloc(vector.size_)) {
   b559a:	dd23      	ble.n	b55e4 <_ZN5spark6VectorINS_17LogCategoryFilterENS_16DefaultAllocatorEEC1ERKS3_+0x5e>
            d = (T*)AllocatorT::malloc(n * sizeof(T));
   b559c:	f04f 0814 	mov.w	r8, #20
    return ::malloc(size);
   b55a0:	fb08 f007 	mul.w	r0, r8, r7
   b55a4:	f002 fcc2 	bl	b7f2c <malloc>
            if (!d) {
   b55a8:	4605      	mov	r5, r0
   b55aa:	b1d8      	cbz	r0, b55e4 <_ZN5spark6VectorINS_17LogCategoryFilterENS_16DefaultAllocatorEEC1ERKS3_+0x5e>
            move(d, data_, data_ + size_);
   b55ac:	e9d4 1200 	ldrd	r1, r2, [r4]
   b55b0:	fb08 1202 	mla	r2, r8, r2, r1
   b55b4:	f7ff ffb9 	bl	b552a <_ZN5spark6VectorINS_17LogCategoryFilterENS_16DefaultAllocatorEE4moveIS1_Li0EEEvPS1_S5_S5_>
    ::free(ptr);
   b55b8:	6820      	ldr	r0, [r4, #0]
   b55ba:	f002 fcbf 	bl	b7f3c <free>
        data_ = d;
   b55be:	6025      	str	r5, [r4, #0]
        capacity_ = n;
   b55c0:	60a7      	str	r7, [r4, #8]
        copy(data_, vector.data_, vector.data_ + vector.size_);
   b55c2:	e9d6 7300 	ldrd	r7, r3, [r6]
   b55c6:	fb08 7803 	mla	r8, r8, r3, r7
        for (; it != end; ++it, ++dest) {
   b55ca:	45b8      	cmp	r8, r7
   b55cc:	d008      	beq.n	b55e0 <_ZN5spark6VectorINS_17LogCategoryFilterENS_16DefaultAllocatorEEC1ERKS3_+0x5a>
   b55ce:	4639      	mov	r1, r7
   b55d0:	4628      	mov	r0, r5
   b55d2:	f004 ff39 	bl	ba448 <_ZN6StringC1ERKS_>
   b55d6:	7c3b      	ldrb	r3, [r7, #16]
   b55d8:	742b      	strb	r3, [r5, #16]
   b55da:	3714      	adds	r7, #20
   b55dc:	3514      	adds	r5, #20
   b55de:	e7f4      	b.n	b55ca <_ZN5spark6VectorINS_17LogCategoryFilterENS_16DefaultAllocatorEEC1ERKS3_+0x44>
        size_ = vector.size_;
   b55e0:	6873      	ldr	r3, [r6, #4]
   b55e2:	6063      	str	r3, [r4, #4]
}
   b55e4:	4620      	mov	r0, r4
   b55e6:	e8bd 81f0 	ldmia.w	sp!, {r4, r5, r6, r7, r8, pc}
	...

000b55ec <_GLOBAL__sub_I_SystemMode>:
   b55ec:	b570      	push	{r4, r5, r6, lr}
              error_(SYSTEM_ERROR_NONE) {
   b55ee:	4b42      	ldr	r3, [pc, #264]	; (b56f8 <_GLOBAL__sub_I_SystemMode+0x10c>)
    SleepResult() {}
   b55f0:	4a42      	ldr	r2, [pc, #264]	; (b56fc <_GLOBAL__sub_I_SystemMode+0x110>)
   b55f2:	609a      	str	r2, [r3, #8]
              error_(SYSTEM_ERROR_NONE) {
   b55f4:	2400      	movs	r4, #0
   b55f6:	b08e      	sub	sp, #56	; 0x38
   b55f8:	e9c3 4400 	strd	r4, r4, [r3]
        set_system_mode(mode);
   b55fc:	2003      	movs	r0, #3
   b55fe:	f002 fbcb 	bl	b7d98 <set_system_mode>
SYSTEM_THREAD(ENABLED);
   b5602:	4621      	mov	r1, r4
   b5604:	2001      	movs	r0, #1
   b5606:	f002 fbd7 	bl	b7db8 <system_thread_set_state>
        capacity_(0) {
   b560a:	e9cd 4402 	strd	r4, r4, [sp, #8]
   b560e:	9404      	str	r4, [sp, #16]
            StreamLogHandler(Serial, level, filters) {
   b5610:	f005 f95a 	bl	ba8c8 <_Z16_fetch_usbserialv>
   b5614:	a902      	add	r1, sp, #8
   b5616:	4606      	mov	r6, r0
   b5618:	a805      	add	r0, sp, #20
        filter_(level, filters) {
   b561a:	4d39      	ldr	r5, [pc, #228]	; (b5700 <_GLOBAL__sub_I_SystemMode+0x114>)
   b561c:	f7ff ffb3 	bl	b5586 <_ZN5spark6VectorINS_17LogCategoryFilterENS_16DefaultAllocatorEEC1ERKS3_>
        stream_(&stream) {
   b5620:	a905      	add	r1, sp, #20
   b5622:	a808      	add	r0, sp, #32
   b5624:	f7ff ffaf 	bl	b5586 <_ZN5spark6VectorINS_17LogCategoryFilterENS_16DefaultAllocatorEEC1ERKS3_>
        filter_(level, filters) {
   b5628:	4b36      	ldr	r3, [pc, #216]	; (b5704 <_GLOBAL__sub_I_SystemMode+0x118>)
   b562a:	602b      	str	r3, [r5, #0]
   b562c:	a908      	add	r1, sp, #32
   b562e:	a80b      	add	r0, sp, #44	; 0x2c
   b5630:	f7ff ffa9 	bl	b5586 <_ZN5spark6VectorINS_17LogCategoryFilterENS_16DefaultAllocatorEEC1ERKS3_>
   b5634:	aa0b      	add	r2, sp, #44	; 0x2c
   b5636:	211e      	movs	r1, #30
   b5638:	1d28      	adds	r0, r5, #4
   b563a:	f004 f813 	bl	b9664 <_ZN5spark6detail9LogFilterC1E8LogLevelNS_6VectorINS_17LogCategoryFilterENS_16DefaultAllocatorEEE>
   b563e:	a80b      	add	r0, sp, #44	; 0x2c
   b5640:	f7ff ff60 	bl	b5504 <_ZN5spark6VectorINS_17LogCategoryFilterENS_16DefaultAllocatorEED1Ev>
        stream_(&stream) {
   b5644:	a808      	add	r0, sp, #32
   b5646:	f7ff ff5d 	bl	b5504 <_ZN5spark6VectorINS_17LogCategoryFilterENS_16DefaultAllocatorEED1Ev>
   b564a:	4b2f      	ldr	r3, [pc, #188]	; (b5708 <_GLOBAL__sub_I_SystemMode+0x11c>)
   b564c:	602b      	str	r3, [r5, #0]
   b564e:	622e      	str	r6, [r5, #32]
   b5650:	a805      	add	r0, sp, #20
   b5652:	f7ff ff57 	bl	b5504 <_ZN5spark6VectorINS_17LogCategoryFilterENS_16DefaultAllocatorEED1Ev>
   b5656:	4b2d      	ldr	r3, [pc, #180]	; (b570c <_GLOBAL__sub_I_SystemMode+0x120>)
   b5658:	602b      	str	r3, [r5, #0]
        Serial.begin();
   b565a:	f005 f935 	bl	ba8c8 <_Z16_fetch_usbserialv>
   b565e:	f44f 5116 	mov.w	r1, #9600	; 0x2580
   b5662:	f005 f921 	bl	ba8a8 <_ZN9USBSerial5beginEl>
        LogManager::instance()->addHandler(this);
   b5666:	f003 fcdf 	bl	b9028 <_ZN5spark10LogManager8instanceEv>
   b566a:	4629      	mov	r1, r5
   b566c:	f003 fed0 	bl	b9410 <_ZN5spark10LogManager10addHandlerEPNS_10LogHandlerE>
SerialLogHandler logHandler;
   b5670:	a802      	add	r0, sp, #8
   b5672:	f7ff ff47 	bl	b5504 <_ZN5spark6VectorINS_17LogCategoryFilterENS_16DefaultAllocatorEED1Ev>
        : config_(config) {
   b5676:	4b26      	ldr	r3, [pc, #152]	; (b5710 <_GLOBAL__sub_I_SystemMode+0x124>)
  SdFat() {
   b5678:	4d26      	ldr	r5, [pc, #152]	; (b5714 <_GLOBAL__sub_I_SystemMode+0x128>)
              valid_(true) {
   b567a:	611c      	str	r4, [r3, #16]
        : config_(config) {
   b567c:	1d1a      	adds	r2, r3, #4
              valid_(true) {
   b567e:	2601      	movs	r6, #1
        : config_(config) {
   b5680:	601a      	str	r2, [r3, #0]
        config_.size = sizeof(hal_sleep_config_t);
   b5682:	4a25      	ldr	r2, [pc, #148]	; (b5718 <_GLOBAL__sub_I_SystemMode+0x12c>)
   b5684:	605a      	str	r2, [r3, #4]
              valid_(true) {
   b5686:	e9c3 4402 	strd	r4, r4, [r3, #8]
   b568a:	751e      	strb	r6, [r3, #20]
TestLib MyLogger;
   b568c:	4631      	mov	r1, r6
   b568e:	4823      	ldr	r0, [pc, #140]	; (b571c <_GLOBAL__sub_I_SystemMode+0x130>)
   b5690:	f7fe fe5a 	bl	b4348 <_ZN7TestLibC1Eb>
   b5694:	2364      	movs	r3, #100	; 0x64
   b5696:	606c      	str	r4, [r5, #4]
   b5698:	f8c5 443c 	str.w	r4, [r5, #1084]	; 0x43c
   b569c:	f8c5 3460 	str.w	r3, [r5, #1120]	; 0x460
   b56a0:	f8c5 4468 	str.w	r4, [r5, #1128]	; 0x468
  {
   b56a4:	f8c5 4478 	str.w	r4, [r5, #1144]	; 0x478
   b56a8:	f8a5 447c 	strh.w	r4, [r5, #1148]	; 0x47c
   b56ac:	4b1c      	ldr	r3, [pc, #112]	; (b5720 <_GLOBAL__sub_I_SystemMode+0x134>)
   b56ae:	4c1d      	ldr	r4, [pc, #116]	; (b5724 <_GLOBAL__sub_I_SystemMode+0x138>)
   b56b0:	f8c5 3470 	str.w	r3, [r5, #1136]	; 0x470
   b56b4:	f885 6474 	strb.w	r6, [r5, #1140]	; 0x474
   b56b8:	7821      	ldrb	r1, [r4, #0]
   b56ba:	f3bf 8f5b 	dmb	ish
   b56be:	4031      	ands	r1, r6
   b56c0:	d10b      	bne.n	b56da <_GLOBAL__sub_I_SystemMode+0xee>
   b56c2:	4620      	mov	r0, r4
   b56c4:	9101      	str	r1, [sp, #4]
   b56c6:	f7fe fcf9 	bl	b40bc <__cxa_guard_acquire>
   b56ca:	9901      	ldr	r1, [sp, #4]
   b56cc:	b128      	cbz	r0, b56da <_GLOBAL__sub_I_SystemMode+0xee>
   b56ce:	4816      	ldr	r0, [pc, #88]	; (b5728 <_GLOBAL__sub_I_SystemMode+0x13c>)
   b56d0:	f004 fd04 	bl	ba0dc <_ZN8SPIClassC1E19hal_spi_interface_t>
   b56d4:	4620      	mov	r0, r4
   b56d6:	f7fe fcf6 	bl	b40c6 <__cxa_guard_release>
   b56da:	4b13      	ldr	r3, [pc, #76]	; (b5728 <_GLOBAL__sub_I_SystemMode+0x13c>)
   b56dc:	f8c5 346c 	str.w	r3, [r5, #1132]	; 0x46c
   b56e0:	f002 f9a2 	bl	b7a28 <HAL_Timer_Get_Milli_Seconds>
static unsigned long TimeLocal = millis(); //Protect the system from rollover errors
   b56e4:	4b11      	ldr	r3, [pc, #68]	; (b572c <_GLOBAL__sub_I_SystemMode+0x140>)
String Header; //Information header
   b56e6:	4912      	ldr	r1, [pc, #72]	; (b5730 <_GLOBAL__sub_I_SystemMode+0x144>)
static unsigned long TimeLocal = millis(); //Protect the system from rollover errors
   b56e8:	6018      	str	r0, [r3, #0]
String Header; //Information header
   b56ea:	4812      	ldr	r0, [pc, #72]	; (b5734 <_GLOBAL__sub_I_SystemMode+0x148>)
   b56ec:	b00e      	add	sp, #56	; 0x38
   b56ee:	e8bd 4070 	ldmia.w	sp!, {r4, r5, r6, lr}
String Header; //Information header
   b56f2:	f004 be5e 	b.w	ba3b2 <_ZN6StringC1EPK19__FlashStringHelper>
   b56f6:	bf00      	nop
   b56f8:	2003e62c 	.word	0x2003e62c
   b56fc:	ffff0000 	.word	0xffff0000
   b5700:	2003e658 	.word	0x2003e658
   b5704:	000bcbb0 	.word	0x000bcbb0
   b5708:	000bcdfc 	.word	0x000bcdfc
   b570c:	000bcbc8 	.word	0x000bcbc8
   b5710:	2003e640 	.word	0x2003e640
   b5714:	2003e1a8 	.word	0x2003e1a8
   b5718:	00030010 	.word	0x00030010
   b571c:	2003dc60 	.word	0x2003dc60
   b5720:	000bcb0c 	.word	0x000bcb0c
   b5724:	2003dc40 	.word	0x2003dc40
   b5728:	2003dc44 	.word	0x2003dc44
   b572c:	2003e63c 	.word	0x2003e63c
   b5730:	000bca2a 	.word	0x000bca2a
   b5734:	2003dc50 	.word	0x2003dc50

000b5738 <_ZN23Adafruit_BusIO_RegisterC1EP18Adafruit_I2CDevicethhh>:
 *    @param  byteorder The byte order of the register (used when width is > 1),
 * defaults to LSBFIRST
 *    @param  address_width The width of the register address itself, defaults
 * to 1 byte
 */
Adafruit_BusIO_Register::Adafruit_BusIO_Register(Adafruit_I2CDevice *i2cdevice,
   b5738:	b530      	push	{r4, r5, lr}
                                                 uint16_t reg_addr,
                                                 uint8_t width,
                                                 uint8_t byteorder,
                                                 uint8_t address_width) {
   b573a:	2500      	movs	r5, #0
  _i2cdevice = i2cdevice;
  _spidevice = NULL;
   b573c:	e9c0 1500 	strd	r1, r5, [r0]
  _addrwidth = address_width;
  _address = reg_addr;
   b5740:	8142      	strh	r2, [r0, #10]
  _addrwidth = address_width;
   b5742:	f89d 1010 	ldrb.w	r1, [sp, #16]
  _byteorder = byteorder;
   b5746:	f89d 200c 	ldrb.w	r2, [sp, #12]
                                                 uint8_t address_width) {
   b574a:	6145      	str	r5, [r0, #20]
  _addrwidth = address_width;
   b574c:	7341      	strb	r1, [r0, #13]
  _byteorder = byteorder;
   b574e:	7382      	strb	r2, [r0, #14]
  _width = width;
   b5750:	7303      	strb	r3, [r0, #12]
}
   b5752:	bd30      	pop	{r4, r5, pc}

000b5754 <_ZN23Adafruit_BusIO_Register5writeEPhh>:
 *    @param  buffer Pointer to data to write
 *    @param  len Number of bytes to write
 *    @return True on successful write (only really useful for I2C as SPI is
 * uncheckable)
 */
bool Adafruit_BusIO_Register::write(uint8_t *buffer, uint8_t len) {
   b5754:	b57f      	push	{r0, r1, r2, r3, r4, r5, r6, lr}
   b5756:	4604      	mov	r4, r0

  uint8_t addrbuffer[2] = {(uint8_t)(_address & 0xFF),
   b5758:	8940      	ldrh	r0, [r0, #10]
                           (uint8_t)(_address >> 8)};
   b575a:	7aa3      	ldrb	r3, [r4, #10]
   b575c:	f88d 300c 	strb.w	r3, [sp, #12]
   b5760:	0a00      	lsrs	r0, r0, #8
   b5762:	f88d 000d 	strb.w	r0, [sp, #13]

  if (_i2cdevice) {
   b5766:	6820      	ldr	r0, [r4, #0]
bool Adafruit_BusIO_Register::write(uint8_t *buffer, uint8_t len) {
   b5768:	460d      	mov	r5, r1
   b576a:	4616      	mov	r6, r2
  if (_i2cdevice) {
   b576c:	b140      	cbz	r0, b5780 <_ZN23Adafruit_BusIO_Register5writeEPhh+0x2c>
    return _i2cdevice->write(buffer, len, true, addrbuffer, _addrwidth);
   b576e:	7b63      	ldrb	r3, [r4, #13]
   b5770:	9301      	str	r3, [sp, #4]
   b5772:	ab03      	add	r3, sp, #12
   b5774:	9300      	str	r3, [sp, #0]
   b5776:	2301      	movs	r3, #1
   b5778:	f000 f8e2 	bl	b5940 <_ZN18Adafruit_I2CDevice5writeEPKhjbS1_j>
      addrbuffer[0] |= 0x40;
    }
    return _spidevice->write(buffer, len, addrbuffer, _addrwidth);
  }
  return false;
}
   b577c:	b004      	add	sp, #16
   b577e:	bd70      	pop	{r4, r5, r6, pc}
  if (_spidevice) {
   b5780:	6860      	ldr	r0, [r4, #4]
   b5782:	2800      	cmp	r0, #0
   b5784:	d0fa      	beq.n	b577c <_ZN23Adafruit_BusIO_Register5writeEPhh+0x28>
    if (_spiregtype == ADDRBIT8_HIGH_TOREAD) {
   b5786:	7a22      	ldrb	r2, [r4, #8]
   b5788:	b922      	cbnz	r2, b5794 <_ZN23Adafruit_BusIO_Register5writeEPhh+0x40>
      addrbuffer[0] &= ~0x80;
   b578a:	f003 037f 	and.w	r3, r3, #127	; 0x7f
      addrbuffer[0] |= 0x40;
   b578e:	f88d 300c 	strb.w	r3, [sp, #12]
   b5792:	e003      	b.n	b579c <_ZN23Adafruit_BusIO_Register5writeEPhh+0x48>
    if (_spiregtype == ADDRBIT8_HIGH_TOWRITE) {
   b5794:	2a02      	cmp	r2, #2
   b5796:	d009      	beq.n	b57ac <_ZN23Adafruit_BusIO_Register5writeEPhh+0x58>
    if (_spiregtype == AD8_HIGH_TOREAD_AD7_HIGH_TOINC) {
   b5798:	2a01      	cmp	r2, #1
   b579a:	d00a      	beq.n	b57b2 <_ZN23Adafruit_BusIO_Register5writeEPhh+0x5e>
    return _spidevice->write(buffer, len, addrbuffer, _addrwidth);
   b579c:	7b63      	ldrb	r3, [r4, #13]
   b579e:	9300      	str	r3, [sp, #0]
   b57a0:	4632      	mov	r2, r6
   b57a2:	ab03      	add	r3, sp, #12
   b57a4:	4629      	mov	r1, r5
   b57a6:	f000 f9e8 	bl	b5b7a <_ZN18Adafruit_SPIDevice5writeEPhjS0_j>
   b57aa:	e7e7      	b.n	b577c <_ZN23Adafruit_BusIO_Register5writeEPhh+0x28>
      addrbuffer[0] |= 0x80;
   b57ac:	f063 037f 	orn	r3, r3, #127	; 0x7f
   b57b0:	e7ed      	b.n	b578e <_ZN23Adafruit_BusIO_Register5writeEPhh+0x3a>
      addrbuffer[0] &= ~0x80;
   b57b2:	f003 037f 	and.w	r3, r3, #127	; 0x7f
      addrbuffer[0] |= 0x40;
   b57b6:	f043 0340 	orr.w	r3, r3, #64	; 0x40
   b57ba:	e7e8      	b.n	b578e <_ZN23Adafruit_BusIO_Register5writeEPhh+0x3a>

000b57bc <_ZN23Adafruit_BusIO_Register5writeEmh>:
 *    @param  value Data to write
 *    @param  numbytes How many bytes from 'value' to write
 *    @return True on successful write (only really useful for I2C as SPI is
 * uncheckable)
 */
bool Adafruit_BusIO_Register::write(uint32_t value, uint8_t numbytes) {
   b57bc:	b4f0      	push	{r4, r5, r6, r7}
   b57be:	460b      	mov	r3, r1
  if (numbytes == 0) {
   b57c0:	b902      	cbnz	r2, b57c4 <_ZN23Adafruit_BusIO_Register5writeEmh+0x8>
    numbytes = _width;
   b57c2:	7b02      	ldrb	r2, [r0, #12]
  }
  if (numbytes > 4) {
   b57c4:	2a04      	cmp	r2, #4
   b57c6:	d814      	bhi.n	b57f2 <_ZN23Adafruit_BusIO_Register5writeEmh+0x36>
    return false;
  }

  // store a copy
  _cached = value;
   b57c8:	f100 050f 	add.w	r5, r0, #15
   b57cc:	6143      	str	r3, [r0, #20]

  for (int i = 0; i < numbytes; i++) {
   b57ce:	1884      	adds	r4, r0, r2
   b57d0:	4629      	mov	r1, r5
   b57d2:	4284      	cmp	r4, r0
   b57d4:	d009      	beq.n	b57ea <_ZN23Adafruit_BusIO_Register5writeEmh+0x2e>
    if (_byteorder == LSBFIRST) {
   b57d6:	7b87      	ldrb	r7, [r0, #14]
      _buffer[i] = value & 0xFF;
   b57d8:	b2de      	uxtb	r6, r3
    if (_byteorder == LSBFIRST) {
   b57da:	b927      	cbnz	r7, b57e6 <_ZN23Adafruit_BusIO_Register5writeEmh+0x2a>
      _buffer[i] = value & 0xFF;
   b57dc:	702e      	strb	r6, [r5, #0]
    } else {
      _buffer[numbytes - i - 1] = value & 0xFF;
    }
    value >>= 8;
   b57de:	0a1b      	lsrs	r3, r3, #8
  for (int i = 0; i < numbytes; i++) {
   b57e0:	3501      	adds	r5, #1
   b57e2:	3c01      	subs	r4, #1
   b57e4:	e7f5      	b.n	b57d2 <_ZN23Adafruit_BusIO_Register5writeEmh+0x16>
      _buffer[numbytes - i - 1] = value & 0xFF;
   b57e6:	73a6      	strb	r6, [r4, #14]
   b57e8:	e7f9      	b.n	b57de <_ZN23Adafruit_BusIO_Register5writeEmh+0x22>
  }
  return write(_buffer, numbytes);
   b57ea:	4620      	mov	r0, r4
}
   b57ec:	bcf0      	pop	{r4, r5, r6, r7}
  return write(_buffer, numbytes);
   b57ee:	f7ff bfb1 	b.w	b5754 <_ZN23Adafruit_BusIO_Register5writeEPhh>
}
   b57f2:	2000      	movs	r0, #0
   b57f4:	bcf0      	pop	{r4, r5, r6, r7}
   b57f6:	4770      	bx	lr

000b57f8 <_ZN23Adafruit_BusIO_Register4readEPhh>:
 *    @param  buffer Pointer to data to read into
 *    @param  len Number of bytes to read
 *    @return True on successful write (only really useful for I2C as SPI is
 * uncheckable)
 */
bool Adafruit_BusIO_Register::read(uint8_t *buffer, uint8_t len) {
   b57f8:	b530      	push	{r4, r5, lr}
   b57fa:	460b      	mov	r3, r1
  uint8_t addrbuffer[2] = {(uint8_t)(_address & 0xFF),
   b57fc:	8941      	ldrh	r1, [r0, #10]
                           (uint8_t)(_address >> 8)};
   b57fe:	7a84      	ldrb	r4, [r0, #10]
bool Adafruit_BusIO_Register::read(uint8_t *buffer, uint8_t len) {
   b5800:	b085      	sub	sp, #20
   b5802:	4605      	mov	r5, r0

  if (_i2cdevice) {
   b5804:	6800      	ldr	r0, [r0, #0]
                           (uint8_t)(_address >> 8)};
   b5806:	f88d 400c 	strb.w	r4, [sp, #12]
   b580a:	0a09      	lsrs	r1, r1, #8
   b580c:	f88d 100d 	strb.w	r1, [sp, #13]
  if (_i2cdevice) {
   b5810:	b140      	cbz	r0, b5824 <_ZN23Adafruit_BusIO_Register4readEPhh+0x2c>
    return _i2cdevice->write_then_read(addrbuffer, _addrwidth, buffer, len);
   b5812:	2100      	movs	r1, #0
   b5814:	e9cd 2100 	strd	r2, r1, [sp]
   b5818:	7b6a      	ldrb	r2, [r5, #13]
   b581a:	a903      	add	r1, sp, #12
   b581c:	f000 f8e2 	bl	b59e4 <_ZN18Adafruit_I2CDevice15write_then_readEPKhjPhjb>
      addrbuffer[0] |= 0x80 | 0x40;
    }
    return _spidevice->write_then_read(addrbuffer, _addrwidth, buffer, len);
  }
  return false;
}
   b5820:	b005      	add	sp, #20
   b5822:	bd30      	pop	{r4, r5, pc}
  if (_spidevice) {
   b5824:	6868      	ldr	r0, [r5, #4]
   b5826:	2800      	cmp	r0, #0
   b5828:	d0fa      	beq.n	b5820 <_ZN23Adafruit_BusIO_Register4readEPhh+0x28>
    if (_spiregtype == ADDRBIT8_HIGH_TOREAD) {
   b582a:	7a29      	ldrb	r1, [r5, #8]
   b582c:	b921      	cbnz	r1, b5838 <_ZN23Adafruit_BusIO_Register4readEPhh+0x40>
      addrbuffer[0] |= 0x80;
   b582e:	f064 047f 	orn	r4, r4, #127	; 0x7f
      addrbuffer[0] |= 0x80 | 0x40;
   b5832:	f88d 400c 	strb.w	r4, [sp, #12]
   b5836:	e003      	b.n	b5840 <_ZN23Adafruit_BusIO_Register4readEPhh+0x48>
    if (_spiregtype == ADDRBIT8_HIGH_TOWRITE) {
   b5838:	2902      	cmp	r1, #2
   b583a:	d009      	beq.n	b5850 <_ZN23Adafruit_BusIO_Register4readEPhh+0x58>
    if (_spiregtype == AD8_HIGH_TOREAD_AD7_HIGH_TOINC) {
   b583c:	2901      	cmp	r1, #1
   b583e:	d00a      	beq.n	b5856 <_ZN23Adafruit_BusIO_Register4readEPhh+0x5e>
    return _spidevice->write_then_read(addrbuffer, _addrwidth, buffer, len);
   b5840:	21ff      	movs	r1, #255	; 0xff
   b5842:	e9cd 2100 	strd	r2, r1, [sp]
   b5846:	7b6a      	ldrb	r2, [r5, #13]
   b5848:	a903      	add	r1, sp, #12
   b584a:	f000 f9c8 	bl	b5bde <_ZN18Adafruit_SPIDevice15write_then_readEPhjS0_jh>
   b584e:	e7e7      	b.n	b5820 <_ZN23Adafruit_BusIO_Register4readEPhh+0x28>
      addrbuffer[0] &= ~0x80;
   b5850:	f004 047f 	and.w	r4, r4, #127	; 0x7f
   b5854:	e7ed      	b.n	b5832 <_ZN23Adafruit_BusIO_Register4readEPhh+0x3a>
      addrbuffer[0] |= 0x80 | 0x40;
   b5856:	f064 043f 	orn	r4, r4, #63	; 0x3f
   b585a:	e7ea      	b.n	b5832 <_ZN23Adafruit_BusIO_Register4readEPhh+0x3a>

000b585c <_ZN23Adafruit_BusIO_Register4readEv>:
uint32_t Adafruit_BusIO_Register::read(void) {
   b585c:	b538      	push	{r3, r4, r5, lr}
  if (!read(_buffer, _width)) {
   b585e:	f100 050f 	add.w	r5, r0, #15
   b5862:	7b02      	ldrb	r2, [r0, #12]
   b5864:	4629      	mov	r1, r5
uint32_t Adafruit_BusIO_Register::read(void) {
   b5866:	4604      	mov	r4, r0
  if (!read(_buffer, _width)) {
   b5868:	f7ff ffc6 	bl	b57f8 <_ZN23Adafruit_BusIO_Register4readEPhh>
   b586c:	b178      	cbz	r0, b588e <_ZN23Adafruit_BusIO_Register4readEv+0x32>
   b586e:	7b22      	ldrb	r2, [r4, #12]
   b5870:	4629      	mov	r1, r5
   b5872:	4422      	add	r2, r4
  uint32_t value = 0;
   b5874:	2000      	movs	r0, #0
  for (int i = 0; i < _width; i++) {
   b5876:	42a2      	cmp	r2, r4
   b5878:	d00b      	beq.n	b5892 <_ZN23Adafruit_BusIO_Register4readEv+0x36>
    value <<= 8;
   b587a:	0203      	lsls	r3, r0, #8
    if (_byteorder == LSBFIRST) {
   b587c:	7ba0      	ldrb	r0, [r4, #14]
   b587e:	b920      	cbnz	r0, b588a <_ZN23Adafruit_BusIO_Register4readEv+0x2e>
      value |= _buffer[_width - i - 1];
   b5880:	7b90      	ldrb	r0, [r2, #14]
      value |= _buffer[i];
   b5882:	4318      	orrs	r0, r3
  for (int i = 0; i < _width; i++) {
   b5884:	3a01      	subs	r2, #1
   b5886:	3101      	adds	r1, #1
   b5888:	e7f5      	b.n	b5876 <_ZN23Adafruit_BusIO_Register4readEv+0x1a>
      value |= _buffer[i];
   b588a:	7808      	ldrb	r0, [r1, #0]
   b588c:	e7f9      	b.n	b5882 <_ZN23Adafruit_BusIO_Register4readEv+0x26>
    return -1;
   b588e:	f04f 30ff 	mov.w	r0, #4294967295	; 0xffffffff
}
   b5892:	bd38      	pop	{r3, r4, r5, pc}

000b5894 <_ZN27Adafruit_BusIO_RegisterBitsC1EP23Adafruit_BusIO_Registerhh>:
 * touching other bits
 *    @param  reg The Adafruit_BusIO_Register which defines the bus/register
 *    @param  bits The number of bits wide we are slicing
 *    @param  shift The number of bits that our bit-slice is shifted from LSB
 */
Adafruit_BusIO_RegisterBits::Adafruit_BusIO_RegisterBits(
   b5894:	b510      	push	{r4, lr}
    Adafruit_BusIO_Register *reg, uint8_t bits, uint8_t shift) {
  _register = reg;
   b5896:	6001      	str	r1, [r0, #0]
  _bits = bits;
   b5898:	7102      	strb	r2, [r0, #4]
  _shift = shift;
   b589a:	7143      	strb	r3, [r0, #5]
}
   b589c:	bd10      	pop	{r4, pc}

000b589e <_ZN27Adafruit_BusIO_RegisterBits4readEv>:

/*!
 *    @brief  Read 4 bytes of data from the register
 *    @return  data The 4 bytes to read
 */
uint32_t Adafruit_BusIO_RegisterBits::read(void) {
   b589e:	b510      	push	{r4, lr}
   b58a0:	4604      	mov	r4, r0
  uint32_t val = _register->read();
   b58a2:	6800      	ldr	r0, [r0, #0]
   b58a4:	f7ff ffda 	bl	b585c <_ZN23Adafruit_BusIO_Register4readEv>
  val >>= _shift;
  return val & ((1 << (_bits)) - 1);
   b58a8:	7922      	ldrb	r2, [r4, #4]
   b58aa:	2301      	movs	r3, #1
   b58ac:	4093      	lsls	r3, r2
  val >>= _shift;
   b58ae:	7962      	ldrb	r2, [r4, #5]
  return val & ((1 << (_bits)) - 1);
   b58b0:	3b01      	subs	r3, #1
  val >>= _shift;
   b58b2:	40d0      	lsrs	r0, r2
}
   b58b4:	4018      	ands	r0, r3
   b58b6:	bd10      	pop	{r4, pc}

000b58b8 <_ZN27Adafruit_BusIO_RegisterBits5writeEm>:
 *    @brief  Write 4 bytes of data to the register
 *    @param  data The 4 bytes to write
 *    @return True on successful write (only really useful for I2C as SPI is
 * uncheckable)
 */
bool Adafruit_BusIO_RegisterBits::write(uint32_t data) {
   b58b8:	b570      	push	{r4, r5, r6, lr}
   b58ba:	4604      	mov	r4, r0
  uint32_t val = _register->read();
   b58bc:	6800      	ldr	r0, [r0, #0]
bool Adafruit_BusIO_RegisterBits::write(uint32_t data) {
   b58be:	460e      	mov	r6, r1
  uint32_t val = _register->read();
   b58c0:	f7ff ffcc 	bl	b585c <_ZN23Adafruit_BusIO_Register4readEv>

  // mask off the data before writing
  uint32_t mask = (1 << (_bits)) - 1;
   b58c4:	7923      	ldrb	r3, [r4, #4]
  data &= mask;

  mask <<= _shift;
   b58c6:	7961      	ldrb	r1, [r4, #5]
  uint32_t mask = (1 << (_bits)) - 1;
   b58c8:	2201      	movs	r2, #1
   b58ca:	409a      	lsls	r2, r3
   b58cc:	1e53      	subs	r3, r2, #1
  mask <<= _shift;
   b58ce:	fa03 f501 	lsl.w	r5, r3, r1
  val &= ~mask;          // remove the current data at that spot
   b58d2:	ea20 0505 	bic.w	r5, r0, r5
  data &= mask;
   b58d6:	4033      	ands	r3, r6
  val |= data << _shift; // and add in the new data

  return _register->write(val, _register->width());
   b58d8:	6820      	ldr	r0, [r4, #0]
  val |= data << _shift; // and add in the new data
   b58da:	fa03 f101 	lsl.w	r1, r3, r1
  return _register->write(val, _register->width());
   b58de:	4329      	orrs	r1, r5
   b58e0:	7b02      	ldrb	r2, [r0, #12]
}
   b58e2:	e8bd 4070 	ldmia.w	sp!, {r4, r5, r6, lr}
  return _register->write(val, _register->width());
   b58e6:	f7ff bf69 	b.w	b57bc <_ZN23Adafruit_BusIO_Register5writeEmh>

000b58ea <_ZN18Adafruit_I2CDeviceC1EhP7TwoWire>:
 *    @param  addr The 7-bit I2C address for the device
 *    @param  theWire The I2C bus to use, defaults to &Wire
 */
Adafruit_I2CDevice::Adafruit_I2CDevice(uint8_t addr, TwoWire *theWire) {
  _addr = addr;
  _wire = theWire;
   b58ea:	6042      	str	r2, [r0, #4]
  _begun = false;
   b58ec:	2200      	movs	r2, #0
   b58ee:	7202      	strb	r2, [r0, #8]
#ifdef ARDUINO_ARCH_SAMD
  _maxBufferSize = 250; // as defined in Wire.h's RingBuffer
#else
  _maxBufferSize = 32;
   b58f0:	2220      	movs	r2, #32
  _addr = addr;
   b58f2:	7001      	strb	r1, [r0, #0]
  _maxBufferSize = 32;
   b58f4:	60c2      	str	r2, [r0, #12]
#endif
}
   b58f6:	4770      	bx	lr

000b58f8 <_ZN18Adafruit_I2CDevice8detectedEv>:
/*!
 *    @brief  Scans I2C for the address - note will give a false-positive
 *    if there's no pullups on I2C
 *    @return True if I2C initialized and a device with the addr found
 */
bool Adafruit_I2CDevice::detected(void) {
   b58f8:	b510      	push	{r4, lr}
  // Init I2C if not done yet
  if (!_begun && !begin()) {
   b58fa:	7a03      	ldrb	r3, [r0, #8]
bool Adafruit_I2CDevice::detected(void) {
   b58fc:	4604      	mov	r4, r0
  if (!_begun && !begin()) {
   b58fe:	b153      	cbz	r3, b5916 <_ZN18Adafruit_I2CDevice8detectedEv+0x1e>
    return false;
  }

  // A basic scanner, see if it ACK's
  _wire->beginTransmission(_addr);
   b5900:	7821      	ldrb	r1, [r4, #0]
   b5902:	6860      	ldr	r0, [r4, #4]
   b5904:	f002 ffaa 	bl	b885c <_ZN7TwoWire17beginTransmissionEh>
  if (_wire->endTransmission() == 0) {
   b5908:	6860      	ldr	r0, [r4, #4]
   b590a:	f002 ffb2 	bl	b8872 <_ZN7TwoWire15endTransmissionEv>
   b590e:	fab0 f080 	clz	r0, r0
   b5912:	0940      	lsrs	r0, r0, #5
    return true;
  }
  return false;
}
   b5914:	bd10      	pop	{r4, pc}
  if (!_begun && !begin()) {
   b5916:	2101      	movs	r1, #1
   b5918:	f000 f803 	bl	b5922 <_ZN18Adafruit_I2CDevice5beginEb>
   b591c:	2800      	cmp	r0, #0
   b591e:	d1ef      	bne.n	b5900 <_ZN18Adafruit_I2CDevice8detectedEv+0x8>
   b5920:	e7f8      	b.n	b5914 <_ZN18Adafruit_I2CDevice8detectedEv+0x1c>

000b5922 <_ZN18Adafruit_I2CDevice5beginEb>:
bool Adafruit_I2CDevice::begin(bool addr_detect) {
   b5922:	b538      	push	{r3, r4, r5, lr}
   b5924:	4604      	mov	r4, r0
  _wire->begin();
   b5926:	6840      	ldr	r0, [r0, #4]
bool Adafruit_I2CDevice::begin(bool addr_detect) {
   b5928:	460d      	mov	r5, r1
  _wire->begin();
   b592a:	f002 ff65 	bl	b87f8 <_ZN7TwoWire5beginEv>
  _begun = true;
   b592e:	2001      	movs	r0, #1
   b5930:	7220      	strb	r0, [r4, #8]
  if (addr_detect) {
   b5932:	b125      	cbz	r5, b593e <_ZN18Adafruit_I2CDevice5beginEb+0x1c>
    return detected();
   b5934:	4620      	mov	r0, r4
}
   b5936:	e8bd 4038 	ldmia.w	sp!, {r3, r4, r5, lr}
    return detected();
   b593a:	f7ff bfdd 	b.w	b58f8 <_ZN18Adafruit_I2CDevice8detectedEv>
}
   b593e:	bd38      	pop	{r3, r4, r5, pc}

000b5940 <_ZN18Adafruit_I2CDevice5writeEPKhjbS1_j>:
 *    @param  stop Whether to send an I2C STOP signal on write
 *    @return True if write was successful, otherwise false.
 */
bool Adafruit_I2CDevice::write(const uint8_t *buffer, size_t len, bool stop,
                               const uint8_t *prefix_buffer,
                               size_t prefix_len) {
   b5940:	e92d 43f8 	stmdb	sp!, {r3, r4, r5, r6, r7, r8, r9, lr}
   b5944:	e9dd 9608 	ldrd	r9, r6, [sp, #32]
   b5948:	461f      	mov	r7, r3
  if ((len + prefix_len) > maxBufferSize()) {
   b594a:	68c3      	ldr	r3, [r0, #12]
                               size_t prefix_len) {
   b594c:	4615      	mov	r5, r2
  if ((len + prefix_len) > maxBufferSize()) {
   b594e:	4432      	add	r2, r6
   b5950:	429a      	cmp	r2, r3
                               size_t prefix_len) {
   b5952:	4604      	mov	r4, r0
   b5954:	4688      	mov	r8, r1
  if ((len + prefix_len) > maxBufferSize()) {
   b5956:	d902      	bls.n	b595e <_ZN18Adafruit_I2CDevice5writeEPKhjbS1_j+0x1e>
    // we will need to find out if some platforms have larger
    // I2C buffer sizes :/
#ifdef DEBUG_SERIAL
    DEBUG_SERIAL.println(F("\tI2CDevice could not write such a large buffer"));
#endif
    return false;
   b5958:	2000      	movs	r0, #0
#ifdef DEBUG_SERIAL
    DEBUG_SERIAL.println("Failed to send!");
#endif
    return false;
  }
}
   b595a:	e8bd 83f8 	ldmia.w	sp!, {r3, r4, r5, r6, r7, r8, r9, pc}
  _wire->beginTransmission(_addr);
   b595e:	7801      	ldrb	r1, [r0, #0]
   b5960:	6840      	ldr	r0, [r0, #4]
   b5962:	f002 ff7b 	bl	b885c <_ZN7TwoWire17beginTransmissionEh>
  if ((prefix_len != 0) && (prefix_buffer != NULL)) {
   b5966:	b97e      	cbnz	r6, b5988 <_ZN18Adafruit_I2CDevice5writeEPKhjbS1_j+0x48>
  if (_wire->write(buffer, len) != len) {
   b5968:	6860      	ldr	r0, [r4, #4]
   b596a:	6803      	ldr	r3, [r0, #0]
   b596c:	462a      	mov	r2, r5
   b596e:	68db      	ldr	r3, [r3, #12]
   b5970:	4641      	mov	r1, r8
   b5972:	4798      	blx	r3
   b5974:	4285      	cmp	r5, r0
   b5976:	d1ef      	bne.n	b5958 <_ZN18Adafruit_I2CDevice5writeEPKhjbS1_j+0x18>
  if (_wire->endTransmission(stop) == 0) {
   b5978:	6860      	ldr	r0, [r4, #4]
   b597a:	4639      	mov	r1, r7
   b597c:	f002 ff75 	bl	b886a <_ZN7TwoWire15endTransmissionEh>
   b5980:	fab0 f080 	clz	r0, r0
   b5984:	0940      	lsrs	r0, r0, #5
   b5986:	e7e8      	b.n	b595a <_ZN18Adafruit_I2CDevice5writeEPKhjbS1_j+0x1a>
  if ((prefix_len != 0) && (prefix_buffer != NULL)) {
   b5988:	f1b9 0f00 	cmp.w	r9, #0
   b598c:	d0ec      	beq.n	b5968 <_ZN18Adafruit_I2CDevice5writeEPKhjbS1_j+0x28>
    if (_wire->write(prefix_buffer, prefix_len) != prefix_len) {
   b598e:	6860      	ldr	r0, [r4, #4]
   b5990:	6803      	ldr	r3, [r0, #0]
   b5992:	4632      	mov	r2, r6
   b5994:	68db      	ldr	r3, [r3, #12]
   b5996:	4649      	mov	r1, r9
   b5998:	4798      	blx	r3
   b599a:	4286      	cmp	r6, r0
   b599c:	d1dc      	bne.n	b5958 <_ZN18Adafruit_I2CDevice5writeEPKhjbS1_j+0x18>
   b599e:	e7e3      	b.n	b5968 <_ZN18Adafruit_I2CDevice5writeEPKhjbS1_j+0x28>

000b59a0 <_ZN18Adafruit_I2CDevice4readEPhjb>:
 *    @param  buffer Pointer to buffer of data to read into
 *    @param  len Number of bytes from buffer to read.
 *    @param  stop Whether to send an I2C STOP signal on read
 *    @return True if read was successful, otherwise false.
 */
bool Adafruit_I2CDevice::read(uint8_t *buffer, size_t len, bool stop) {
   b59a0:	e92d 41f0 	stmdb	sp!, {r4, r5, r6, r7, r8, lr}
   b59a4:	4615      	mov	r5, r2
  if (len > maxBufferSize()) {
   b59a6:	68c2      	ldr	r2, [r0, #12]
   b59a8:	42aa      	cmp	r2, r5
bool Adafruit_I2CDevice::read(uint8_t *buffer, size_t len, bool stop) {
   b59aa:	4604      	mov	r4, r0
   b59ac:	460e      	mov	r6, r1
  if (len > maxBufferSize()) {
   b59ae:	d314      	bcc.n	b59da <_ZN18Adafruit_I2CDevice4readEPhjb+0x3a>
    DEBUG_SERIAL.println(F("\tI2CDevice could not read such a large buffer"));
#endif
    return false;
  }

  size_t recv = _wire->requestFrom((uint8_t)_addr, (uint8_t)len, (uint8_t)stop);
   b59b0:	7801      	ldrb	r1, [r0, #0]
   b59b2:	6840      	ldr	r0, [r0, #4]
   b59b4:	b2ea      	uxtb	r2, r5
   b59b6:	f002 ff3c 	bl	b8832 <_ZN7TwoWire11requestFromEhjh>
  if (recv != len) {
   b59ba:	4285      	cmp	r5, r0
   b59bc:	d10d      	bne.n	b59da <_ZN18Adafruit_I2CDevice4readEPhjb+0x3a>
   b59be:	2700      	movs	r7, #0
    DEBUG_SERIAL.println(recv);
#endif
    return false;
  }

  for (uint16_t i = 0; i < len; i++) {
   b59c0:	fa1f f887 	uxth.w	r8, r7
   b59c4:	4545      	cmp	r5, r8
   b59c6:	f107 0701 	add.w	r7, r7, #1
   b59ca:	d909      	bls.n	b59e0 <_ZN18Adafruit_I2CDevice4readEPhjb+0x40>
    buffer[i] = _wire->read();
   b59cc:	6860      	ldr	r0, [r4, #4]
   b59ce:	6803      	ldr	r3, [r0, #0]
   b59d0:	695b      	ldr	r3, [r3, #20]
   b59d2:	4798      	blx	r3
   b59d4:	f806 0008 	strb.w	r0, [r6, r8]
  for (uint16_t i = 0; i < len; i++) {
   b59d8:	e7f2      	b.n	b59c0 <_ZN18Adafruit_I2CDevice4readEPhjb+0x20>
    return false;
   b59da:	2000      	movs	r0, #0
  }
  DEBUG_SERIAL.println();
#endif

  return true;
}
   b59dc:	e8bd 81f0 	ldmia.w	sp!, {r4, r5, r6, r7, r8, pc}
   b59e0:	2001      	movs	r0, #1
   b59e2:	e7fb      	b.n	b59dc <_ZN18Adafruit_I2CDevice4readEPhjb+0x3c>

000b59e4 <_ZN18Adafruit_I2CDevice15write_then_readEPKhjPhjb>:
 *    @param  stop Whether to send an I2C STOP signal between the write and read
 *    @return True if write & read was successful, otherwise false.
 */
bool Adafruit_I2CDevice::write_then_read(const uint8_t *write_buffer,
                                         size_t write_len, uint8_t *read_buffer,
                                         size_t read_len, bool stop) {
   b59e4:	b573      	push	{r0, r1, r4, r5, r6, lr}
   b59e6:	461d      	mov	r5, r3
  if (!write(write_buffer, write_len, stop)) {
   b59e8:	2300      	movs	r3, #0
   b59ea:	e9cd 3300 	strd	r3, r3, [sp]
   b59ee:	f89d 301c 	ldrb.w	r3, [sp, #28]
                                         size_t read_len, bool stop) {
   b59f2:	9e06      	ldr	r6, [sp, #24]
   b59f4:	4604      	mov	r4, r0
  if (!write(write_buffer, write_len, stop)) {
   b59f6:	f7ff ffa3 	bl	b5940 <_ZN18Adafruit_I2CDevice5writeEPKhjbS1_j>
   b59fa:	b140      	cbz	r0, b5a0e <_ZN18Adafruit_I2CDevice15write_then_readEPKhjPhjb+0x2a>
    return false;
  }

  return read(read_buffer, read_len);
   b59fc:	2301      	movs	r3, #1
   b59fe:	4632      	mov	r2, r6
   b5a00:	4629      	mov	r1, r5
   b5a02:	4620      	mov	r0, r4
}
   b5a04:	b002      	add	sp, #8
   b5a06:	e8bd 4070 	ldmia.w	sp!, {r4, r5, r6, lr}
  return read(read_buffer, read_len);
   b5a0a:	f7ff bfc9 	b.w	b59a0 <_ZN18Adafruit_I2CDevice4readEPhjb>
}
   b5a0e:	b002      	add	sp, #8
   b5a10:	bd70      	pop	{r4, r5, r6, pc}
	...

000b5a14 <_ZN18Adafruit_SPIDevice8transferEPhj>:
/*!
 *    @brief  Transfer (send/receive) one byte over hard/soft SPI
 *    @param  buffer The buffer to send and receive at the same time
 *    @param  len    The number of bytes to transfer
 */
void Adafruit_SPIDevice::transfer(uint8_t *buffer, size_t len) {
   b5a14:	e92d 4ff0 	stmdb	sp!, {r4, r5, r6, r7, r8, r9, sl, fp, lr}
   b5a18:	4604      	mov	r4, r0
  if (_spi) {
   b5a1a:	6800      	ldr	r0, [r0, #0]
void Adafruit_SPIDevice::transfer(uint8_t *buffer, size_t len) {
   b5a1c:	b085      	sub	sp, #20
   b5a1e:	460d      	mov	r5, r1
  if (_spi) {
   b5a20:	b140      	cbz	r0, b5a34 <_ZN18Adafruit_SPIDevice8transferEPhj+0x20>
    // hardware SPI is easy

#if defined(SPARK)
    _spi->transfer(buffer, buffer, len, NULL);
   b5a22:	2300      	movs	r3, #0
   b5a24:	9300      	str	r3, [sp, #0]
   b5a26:	4613      	mov	r3, r2
   b5a28:	460a      	mov	r2, r1
   b5a2a:	f004 fc03 	bl	ba234 <_ZN8SPIClass8transferEPKvPvjPFvvE>
        buffer[i] = reply;
      }
    }
  }
  return;
}
   b5a2e:	b005      	add	sp, #20
   b5a30:	e8bd 8ff0 	ldmia.w	sp!, {r4, r5, r6, r7, r8, r9, sl, fp, pc}
  if (_dataOrder == SPI_BITORDER_LSBFIRST) {
   b5a34:	7b23      	ldrb	r3, [r4, #12]
  uint8_t bitdelay_us = (1000000 / _freq) / 2;
   b5a36:	68a0      	ldr	r0, [r4, #8]
   b5a38:	4f48      	ldr	r7, [pc, #288]	; (b5b5c <_ZN18Adafruit_SPIDevice8transferEPhj+0x148>)
   b5a3a:	fbb7 f7f0 	udiv	r7, r7, r0
    startbit = 0x80;
   b5a3e:	2b00      	cmp	r3, #0
  bool towrite, lastmosi = !(buffer[0] & startbit);
   b5a40:	780b      	ldrb	r3, [r1, #0]
    startbit = 0x80;
   b5a42:	bf0c      	ite	eq
   b5a44:	f04f 0b01 	moveq.w	fp, #1
   b5a48:	f04f 0b80 	movne.w	fp, #128	; 0x80
  bool towrite, lastmosi = !(buffer[0] & startbit);
   b5a4c:	ea1b 0f03 	tst.w	fp, r3
   b5a50:	eb01 0302 	add.w	r3, r1, r2
   b5a54:	bf0c      	ite	eq
   b5a56:	f04f 0901 	moveq.w	r9, #1
   b5a5a:	f04f 0900 	movne.w	r9, #0
  uint8_t bitdelay_us = (1000000 / _freq) / 2;
   b5a5e:	b2ff      	uxtb	r7, r7
  for (size_t i = 0; i < len; i++) {
   b5a60:	9303      	str	r3, [sp, #12]
   b5a62:	9b03      	ldr	r3, [sp, #12]
   b5a64:	42ab      	cmp	r3, r5
   b5a66:	d0e2      	beq.n	b5a2e <_ZN18Adafruit_SPIDevice8transferEPhj+0x1a>
    uint8_t send = buffer[i];
   b5a68:	f895 a000 	ldrb.w	sl, [r5]
    for (uint8_t b = startbit; b != 0;
   b5a6c:	465e      	mov	r6, fp
    uint8_t reply = 0;
   b5a6e:	f04f 0800 	mov.w	r8, #0
      if (bitdelay_us) {
   b5a72:	b117      	cbz	r7, b5a7a <_ZN18Adafruit_SPIDevice8transferEPhj+0x66>
inline void delayMicroseconds(unsigned int us) { HAL_Delay_Microseconds(us); }
   b5a74:	4638      	mov	r0, r7
   b5a76:	f001 ffc7 	bl	b7a08 <HAL_Delay_Microseconds>
      if (_dataMode == SPI_MODE0 || _dataMode == SPI_MODE2) {
   b5a7a:	7b63      	ldrb	r3, [r4, #13]
   b5a7c:	f013 0ffd 	tst.w	r3, #253	; 0xfd
   b5a80:	d141      	bne.n	b5b06 <_ZN18Adafruit_SPIDevice8transferEPhj+0xf2>
        if ((_mosi != -1) && (lastmosi != towrite)) {
   b5a82:	f994 3010 	ldrsb.w	r3, [r4, #16]
   b5a86:	1c5a      	adds	r2, r3, #1
   b5a88:	d00f      	beq.n	b5aaa <_ZN18Adafruit_SPIDevice8transferEPhj+0x96>
        towrite = send & b;
   b5a8a:	ea1a 0106 	ands.w	r1, sl, r6
        if ((_mosi != -1) && (lastmosi != towrite)) {
   b5a8e:	bf14      	ite	ne
   b5a90:	2301      	movne	r3, #1
   b5a92:	2300      	moveq	r3, #0
   b5a94:	454b      	cmp	r3, r9
   b5a96:	d008      	beq.n	b5aaa <_ZN18Adafruit_SPIDevice8transferEPhj+0x96>
            *mosiPort |= mosiPinMask;
   b5a98:	6963      	ldr	r3, [r4, #20]
   b5a9a:	6a60      	ldr	r0, [r4, #36]	; 0x24
   b5a9c:	681a      	ldr	r2, [r3, #0]
          if (towrite)
   b5a9e:	2900      	cmp	r1, #0
   b5aa0:	d02c      	beq.n	b5afc <_ZN18Adafruit_SPIDevice8transferEPhj+0xe8>
            *mosiPort |= mosiPinMask;
   b5aa2:	4302      	orrs	r2, r0
   b5aa4:	601a      	str	r2, [r3, #0]
   b5aa6:	f04f 0901 	mov.w	r9, #1
        *clkPort |= clkPinMask; // Clock high
   b5aaa:	69a1      	ldr	r1, [r4, #24]
   b5aac:	6ae3      	ldr	r3, [r4, #44]	; 0x2c
   b5aae:	680a      	ldr	r2, [r1, #0]
   b5ab0:	4313      	orrs	r3, r2
   b5ab2:	600b      	str	r3, [r1, #0]
        if (bitdelay_us) {
   b5ab4:	b117      	cbz	r7, b5abc <_ZN18Adafruit_SPIDevice8transferEPhj+0xa8>
   b5ab6:	4638      	mov	r0, r7
   b5ab8:	f001 ffa6 	bl	b7a08 <HAL_Delay_Microseconds>
        if (_miso != -1) {
   b5abc:	f994 3011 	ldrsb.w	r3, [r4, #17]
   b5ac0:	3301      	adds	r3, #1
   b5ac2:	d006      	beq.n	b5ad2 <_ZN18Adafruit_SPIDevice8transferEPhj+0xbe>
          if (*misoPort & misoPinMask) {
   b5ac4:	69e3      	ldr	r3, [r4, #28]
   b5ac6:	681a      	ldr	r2, [r3, #0]
   b5ac8:	6aa3      	ldr	r3, [r4, #40]	; 0x28
   b5aca:	421a      	tst	r2, r3
            reply |= b;
   b5acc:	bf18      	it	ne
   b5ace:	ea46 0808 	orrne.w	r8, r6, r8
        *clkPort &= ~clkPinMask; // Clock low
   b5ad2:	69a1      	ldr	r1, [r4, #24]
   b5ad4:	6ae3      	ldr	r3, [r4, #44]	; 0x2c
   b5ad6:	680a      	ldr	r2, [r1, #0]
   b5ad8:	ea22 0303 	bic.w	r3, r2, r3
   b5adc:	600b      	str	r3, [r1, #0]
      if (_miso != -1) {
   b5ade:	f994 3011 	ldrsb.w	r3, [r4, #17]
   b5ae2:	3301      	adds	r3, #1
        buffer[i] = reply;
   b5ae4:	bf18      	it	ne
   b5ae6:	f885 8000 	strbne.w	r8, [r5]
    for (uint8_t b = startbit; b != 0;
   b5aea:	7b23      	ldrb	r3, [r4, #12]
   b5aec:	2b00      	cmp	r3, #0
   b5aee:	d132      	bne.n	b5b56 <_ZN18Adafruit_SPIDevice8transferEPhj+0x142>
   b5af0:	0076      	lsls	r6, r6, #1
   b5af2:	b2f6      	uxtb	r6, r6
   b5af4:	2e00      	cmp	r6, #0
   b5af6:	d1bc      	bne.n	b5a72 <_ZN18Adafruit_SPIDevice8transferEPhj+0x5e>
  for (size_t i = 0; i < len; i++) {
   b5af8:	3501      	adds	r5, #1
   b5afa:	e7b2      	b.n	b5a62 <_ZN18Adafruit_SPIDevice8transferEPhj+0x4e>
            *mosiPort &= ~mosiPinMask;
   b5afc:	ea22 0200 	bic.w	r2, r2, r0
   b5b00:	601a      	str	r2, [r3, #0]
   b5b02:	4689      	mov	r9, r1
   b5b04:	e7d1      	b.n	b5aaa <_ZN18Adafruit_SPIDevice8transferEPhj+0x96>
        *clkPort |= clkPinMask; // Clock high
   b5b06:	69a1      	ldr	r1, [r4, #24]
   b5b08:	6ae3      	ldr	r3, [r4, #44]	; 0x2c
   b5b0a:	680a      	ldr	r2, [r1, #0]
   b5b0c:	4313      	orrs	r3, r2
   b5b0e:	600b      	str	r3, [r1, #0]
        if (bitdelay_us) {
   b5b10:	b117      	cbz	r7, b5b18 <_ZN18Adafruit_SPIDevice8transferEPhj+0x104>
   b5b12:	4638      	mov	r0, r7
   b5b14:	f001 ff78 	bl	b7a08 <HAL_Delay_Microseconds>
        if (_mosi != -1) {
   b5b18:	f994 3010 	ldrsb.w	r3, [r4, #16]
   b5b1c:	3301      	adds	r3, #1
   b5b1e:	d008      	beq.n	b5b32 <_ZN18Adafruit_SPIDevice8transferEPhj+0x11e>
            *mosiPort |= mosiPinMask;
   b5b20:	6963      	ldr	r3, [r4, #20]
   b5b22:	6a61      	ldr	r1, [r4, #36]	; 0x24
   b5b24:	681a      	ldr	r2, [r3, #0]
          if (send & b)
   b5b26:	ea1a 0f06 	tst.w	sl, r6
            *mosiPort |= mosiPinMask;
   b5b2a:	bf14      	ite	ne
   b5b2c:	430a      	orrne	r2, r1
            *mosiPort &= ~mosiPinMask;
   b5b2e:	438a      	biceq	r2, r1
   b5b30:	601a      	str	r2, [r3, #0]
        *clkPort &= ~clkPinMask; // Clock low
   b5b32:	69a1      	ldr	r1, [r4, #24]
   b5b34:	6ae3      	ldr	r3, [r4, #44]	; 0x2c
   b5b36:	680a      	ldr	r2, [r1, #0]
   b5b38:	ea22 0303 	bic.w	r3, r2, r3
   b5b3c:	600b      	str	r3, [r1, #0]
        if (_miso != -1) {
   b5b3e:	f994 3011 	ldrsb.w	r3, [r4, #17]
   b5b42:	3301      	adds	r3, #1
   b5b44:	d0cb      	beq.n	b5ade <_ZN18Adafruit_SPIDevice8transferEPhj+0xca>
          if (*misoPort & misoPinMask) {
   b5b46:	69e3      	ldr	r3, [r4, #28]
   b5b48:	681a      	ldr	r2, [r3, #0]
   b5b4a:	6aa3      	ldr	r3, [r4, #40]	; 0x28
   b5b4c:	421a      	tst	r2, r3
            reply |= b;
   b5b4e:	bf18      	it	ne
   b5b50:	ea46 0808 	orrne.w	r8, r6, r8
   b5b54:	e7c3      	b.n	b5ade <_ZN18Adafruit_SPIDevice8transferEPhj+0xca>
    for (uint8_t b = startbit; b != 0;
   b5b56:	0876      	lsrs	r6, r6, #1
   b5b58:	e7cc      	b.n	b5af4 <_ZN18Adafruit_SPIDevice8transferEPhj+0xe0>
   b5b5a:	bf00      	nop
   b5b5c:	0007a120 	.word	0x0007a120

000b5b60 <_ZN18Adafruit_SPIDevice8transferEh>:
/*!
 *    @brief  Transfer (send/receive) one byte over hard/soft SPI
 *    @param  send The byte to send
 *    @return The byte received while transmitting
 */
uint8_t Adafruit_SPIDevice::transfer(uint8_t send) {
   b5b60:	b507      	push	{r0, r1, r2, lr}
  uint8_t data = send;
  transfer(&data, 1);
   b5b62:	2201      	movs	r2, #1
  uint8_t data = send;
   b5b64:	f88d 1007 	strb.w	r1, [sp, #7]
  transfer(&data, 1);
   b5b68:	f10d 0107 	add.w	r1, sp, #7
   b5b6c:	f7ff ff52 	bl	b5a14 <_ZN18Adafruit_SPIDevice8transferEPhj>
  return data;
}
   b5b70:	f89d 0007 	ldrb.w	r0, [sp, #7]
   b5b74:	b003      	add	sp, #12
   b5b76:	f85d fb04 	ldr.w	pc, [sp], #4

000b5b7a <_ZN18Adafruit_SPIDevice5writeEPhjS0_j>:
 *    @param  prefix_len Number of bytes from prefix buffer to write
 *    @return Always returns true because there's no way to test success of SPI
 * writes
 */
bool Adafruit_SPIDevice::write(uint8_t *buffer, size_t len,
                               uint8_t *prefix_buffer, size_t prefix_len) {
   b5b7a:	e92d 41f0 	stmdb	sp!, {r4, r5, r6, r7, r8, lr}
   b5b7e:	4604      	mov	r4, r0
  if (_spi) {
   b5b80:	6800      	ldr	r0, [r0, #0]
                               uint8_t *prefix_buffer, size_t prefix_len) {
   b5b82:	460e      	mov	r6, r1
   b5b84:	4617      	mov	r7, r2
   b5b86:	461d      	mov	r5, r3
  if (_spi) {
   b5b88:	b110      	cbz	r0, b5b90 <_ZN18Adafruit_SPIDevice5writeEPhjS0_j+0x16>
    _spi->beginTransaction(*_spiSetting);
   b5b8a:	6861      	ldr	r1, [r4, #4]
   b5b8c:	f004 fade 	bl	ba14c <_ZN8SPIClass16beginTransactionERKN8particle11SPISettingsE>
  }

  digitalWrite(_cs, LOW);
   b5b90:	f994 000e 	ldrsb.w	r0, [r4, #14]
   b5b94:	2100      	movs	r1, #0
   b5b96:	b280      	uxth	r0, r0
   b5b98:	f005 f81b 	bl	babd2 <digitalWrite>
  // do the writing
  for (size_t i = 0; i < prefix_len; i++) {
   b5b9c:	9b06      	ldr	r3, [sp, #24]
   b5b9e:	eb05 0803 	add.w	r8, r5, r3
   b5ba2:	4545      	cmp	r5, r8
   b5ba4:	d108      	bne.n	b5bb8 <_ZN18Adafruit_SPIDevice5writeEPhjS0_j+0x3e>
   b5ba6:	4437      	add	r7, r6
    transfer(prefix_buffer[i]);
  }
  for (size_t i = 0; i < len; i++) {
   b5ba8:	42b7      	cmp	r7, r6
   b5baa:	d00b      	beq.n	b5bc4 <_ZN18Adafruit_SPIDevice5writeEPhjS0_j+0x4a>
    transfer(buffer[i]);
   b5bac:	f816 1b01 	ldrb.w	r1, [r6], #1
   b5bb0:	4620      	mov	r0, r4
   b5bb2:	f7ff ffd5 	bl	b5b60 <_ZN18Adafruit_SPIDevice8transferEh>
  for (size_t i = 0; i < len; i++) {
   b5bb6:	e7f7      	b.n	b5ba8 <_ZN18Adafruit_SPIDevice5writeEPhjS0_j+0x2e>
    transfer(prefix_buffer[i]);
   b5bb8:	f815 1b01 	ldrb.w	r1, [r5], #1
   b5bbc:	4620      	mov	r0, r4
   b5bbe:	f7ff ffcf 	bl	b5b60 <_ZN18Adafruit_SPIDevice8transferEh>
  for (size_t i = 0; i < prefix_len; i++) {
   b5bc2:	e7ee      	b.n	b5ba2 <_ZN18Adafruit_SPIDevice5writeEPhjS0_j+0x28>
  }
  digitalWrite(_cs, HIGH);
   b5bc4:	f994 000e 	ldrsb.w	r0, [r4, #14]
   b5bc8:	2101      	movs	r1, #1
   b5bca:	b280      	uxth	r0, r0
   b5bcc:	f005 f801 	bl	babd2 <digitalWrite>

  if (_spi) {
   b5bd0:	6820      	ldr	r0, [r4, #0]
   b5bd2:	b108      	cbz	r0, b5bd8 <_ZN18Adafruit_SPIDevice5writeEPhjS0_j+0x5e>
    _spi->endTransaction();
   b5bd4:	f004 faa0 	bl	ba118 <_ZN8SPIClass14endTransactionEv>
  }
  DEBUG_SERIAL.println();
#endif

  return true;
}
   b5bd8:	2001      	movs	r0, #1
   b5bda:	e8bd 81f0 	ldmia.w	sp!, {r4, r5, r6, r7, r8, pc}

000b5bde <_ZN18Adafruit_SPIDevice15write_then_readEPhjS0_jh>:
 *    @return Always returns true because there's no way to test success of SPI
 * writes
 */
bool Adafruit_SPIDevice::write_then_read(uint8_t *write_buffer,
                                         size_t write_len, uint8_t *read_buffer,
                                         size_t read_len, uint8_t sendvalue) {
   b5bde:	e92d 41f0 	stmdb	sp!, {r4, r5, r6, r7, r8, lr}
   b5be2:	4604      	mov	r4, r0
  if (_spi) {
   b5be4:	6800      	ldr	r0, [r0, #0]
                                         size_t read_len, uint8_t sendvalue) {
   b5be6:	f89d 801c 	ldrb.w	r8, [sp, #28]
   b5bea:	460e      	mov	r6, r1
   b5bec:	4617      	mov	r7, r2
   b5bee:	461d      	mov	r5, r3
  if (_spi) {
   b5bf0:	b110      	cbz	r0, b5bf8 <_ZN18Adafruit_SPIDevice15write_then_readEPhjS0_jh+0x1a>
    _spi->beginTransaction(*_spiSetting);
   b5bf2:	6861      	ldr	r1, [r4, #4]
   b5bf4:	f004 faaa 	bl	ba14c <_ZN8SPIClass16beginTransactionERKN8particle11SPISettingsE>
  }

  digitalWrite(_cs, LOW);
   b5bf8:	f994 000e 	ldrsb.w	r0, [r4, #14]
   b5bfc:	2100      	movs	r1, #0
   b5bfe:	b280      	uxth	r0, r0
   b5c00:	f004 ffe7 	bl	babd2 <digitalWrite>
  // do the writing
  for (size_t i = 0; i < write_len; i++) {
   b5c04:	4437      	add	r7, r6
   b5c06:	42be      	cmp	r6, r7
   b5c08:	d10a      	bne.n	b5c20 <_ZN18Adafruit_SPIDevice15write_then_readEPhjS0_jh+0x42>
   b5c0a:	9b06      	ldr	r3, [sp, #24]
   b5c0c:	18ee      	adds	r6, r5, r3
  }
  DEBUG_SERIAL.println();
#endif

  // do the reading
  for (size_t i = 0; i < read_len; i++) {
   b5c0e:	42ae      	cmp	r6, r5
   b5c10:	d00c      	beq.n	b5c2c <_ZN18Adafruit_SPIDevice15write_then_readEPhjS0_jh+0x4e>
    read_buffer[i] = transfer(sendvalue);
   b5c12:	4641      	mov	r1, r8
   b5c14:	4620      	mov	r0, r4
   b5c16:	f7ff ffa3 	bl	b5b60 <_ZN18Adafruit_SPIDevice8transferEh>
   b5c1a:	f805 0b01 	strb.w	r0, [r5], #1
  for (size_t i = 0; i < read_len; i++) {
   b5c1e:	e7f6      	b.n	b5c0e <_ZN18Adafruit_SPIDevice15write_then_readEPhjS0_jh+0x30>
    transfer(write_buffer[i]);
   b5c20:	f816 1b01 	ldrb.w	r1, [r6], #1
   b5c24:	4620      	mov	r0, r4
   b5c26:	f7ff ff9b 	bl	b5b60 <_ZN18Adafruit_SPIDevice8transferEh>
  for (size_t i = 0; i < write_len; i++) {
   b5c2a:	e7ec      	b.n	b5c06 <_ZN18Adafruit_SPIDevice15write_then_readEPhjS0_jh+0x28>
    }
  }
  DEBUG_SERIAL.println();
#endif

  digitalWrite(_cs, HIGH);
   b5c2c:	f994 000e 	ldrsb.w	r0, [r4, #14]
   b5c30:	2101      	movs	r1, #1
   b5c32:	b280      	uxth	r0, r0
   b5c34:	f004 ffcd 	bl	babd2 <digitalWrite>

  if (_spi) {
   b5c38:	6820      	ldr	r0, [r4, #0]
   b5c3a:	b108      	cbz	r0, b5c40 <_ZN18Adafruit_SPIDevice15write_then_readEPhjS0_jh+0x62>
    _spi->endTransaction();
   b5c3c:	f004 fa6c 	bl	ba118 <_ZN8SPIClass14endTransactionEv>
  }

  return true;
}
   b5c40:	2001      	movs	r0, #1
   b5c42:	e8bd 81f0 	ldmia.w	sp!, {r4, r5, r6, r7, r8, pc}

000b5c46 <_ZN16Adafruit_MCP9600C1Ev>:
/**************************************************************************/
/*!
    @brief  Instantiates a new MCP9600 class
*/
/**************************************************************************/
Adafruit_MCP9600::Adafruit_MCP9600() { _device_id = 0x40; }
   b5c46:	2340      	movs	r3, #64	; 0x40
   b5c48:	7003      	strb	r3, [r0, #0]
   b5c4a:	4770      	bx	lr

000b5c4c <_ZN16Adafruit_MCP96006enableEb>:
/*!
    @brief  Whether to have the sensor enabled and working or in sleep mode
    @param  flag True to be in awake mode, False for sleep mode
*/
/**************************************************************************/
void Adafruit_MCP9600::enable(bool flag) {
   b5c4c:	b513      	push	{r0, r1, r4, lr}
  // define the status bits
  Adafruit_I2CRegisterBits status =
      Adafruit_I2CRegisterBits(_config_reg, 2, 0); // # bits, bit_shift
   b5c4e:	2300      	movs	r3, #0
void Adafruit_MCP9600::enable(bool flag) {
   b5c50:	460c      	mov	r4, r1
      Adafruit_I2CRegisterBits(_config_reg, 2, 0); // # bits, bit_shift
   b5c52:	2202      	movs	r2, #2
   b5c54:	6881      	ldr	r1, [r0, #8]
   b5c56:	4668      	mov	r0, sp
   b5c58:	f7ff fe1c 	bl	b5894 <_ZN27Adafruit_BusIO_RegisterBitsC1EP23Adafruit_BusIO_Registerhh>

  if (!flag) { // sleep mode
   b5c5c:	b92c      	cbnz	r4, b5c6a <_ZN16Adafruit_MCP96006enableEb+0x1e>
    status.write(0x01);
   b5c5e:	2101      	movs	r1, #1
  } else {
    status.write(0x00);
   b5c60:	4668      	mov	r0, sp
   b5c62:	f7ff fe29 	bl	b58b8 <_ZN27Adafruit_BusIO_RegisterBits5writeEm>
  }
}
   b5c66:	b002      	add	sp, #8
   b5c68:	bd10      	pop	{r4, pc}
    status.write(0x00);
   b5c6a:	2100      	movs	r1, #0
   b5c6c:	e7f8      	b.n	b5c60 <_ZN16Adafruit_MCP96006enableEb+0x14>

000b5c6e <_ZN16Adafruit_MCP96005beginEhP7TwoWire>:
boolean Adafruit_MCP9600::begin(uint8_t i2c_addr, TwoWire *theWire) {
   b5c6e:	b5f0      	push	{r4, r5, r6, r7, lr}
   b5c70:	4604      	mov	r4, r0
   b5c72:	b08b      	sub	sp, #44	; 0x2c
  i2c_dev = new Adafruit_I2CDevice(i2c_addr, theWire);
   b5c74:	2010      	movs	r0, #16
boolean Adafruit_MCP9600::begin(uint8_t i2c_addr, TwoWire *theWire) {
   b5c76:	e9cd 2102 	strd	r2, r1, [sp, #8]
  i2c_dev = new Adafruit_I2CDevice(i2c_addr, theWire);
   b5c7a:	f7fe fa0c 	bl	b4096 <_Znwj>
   b5c7e:	4605      	mov	r5, r0
   b5c80:	b118      	cbz	r0, b5c8a <_ZN16Adafruit_MCP96005beginEhP7TwoWire+0x1c>
   b5c82:	e9dd 2102 	ldrd	r2, r1, [sp, #8]
   b5c86:	f7ff fe30 	bl	b58ea <_ZN18Adafruit_I2CDeviceC1EhP7TwoWire>
   b5c8a:	6065      	str	r5, [r4, #4]
  if (!i2c_dev->begin(false)) { // *dont scan!*
   b5c8c:	4628      	mov	r0, r5
   b5c8e:	2100      	movs	r1, #0
   b5c90:	f7ff fe47 	bl	b5922 <_ZN18Adafruit_I2CDevice5beginEb>
   b5c94:	4605      	mov	r5, r0
   b5c96:	b330      	cbz	r0, b5ce6 <_ZN16Adafruit_MCP96005beginEhP7TwoWire+0x78>
      Adafruit_I2CRegister(i2c_dev, MCP9600_DEVICEID, 2, MSBFIRST);
   b5c98:	2701      	movs	r7, #1
   b5c9a:	2302      	movs	r3, #2
   b5c9c:	6861      	ldr	r1, [r4, #4]
   b5c9e:	2220      	movs	r2, #32
   b5ca0:	e9cd 7700 	strd	r7, r7, [sp]
   b5ca4:	a804      	add	r0, sp, #16
   b5ca6:	f7ff fd47 	bl	b5738 <_ZN23Adafruit_BusIO_RegisterC1EP18Adafruit_I2CDevicethhh>
  if ((id_reg.read() >> 8) != _device_id) {
   b5caa:	a804      	add	r0, sp, #16
   b5cac:	f7ff fdd6 	bl	b585c <_ZN23Adafruit_BusIO_Register4readEv>
   b5cb0:	7823      	ldrb	r3, [r4, #0]
   b5cb2:	ebb3 2f10 	cmp.w	r3, r0, lsr #8
   b5cb6:	d119      	bne.n	b5cec <_ZN16Adafruit_MCP96005beginEhP7TwoWire+0x7e>
  _config_reg = new Adafruit_I2CRegister(i2c_dev, MCP9600_DEVICECONFIG);
   b5cb8:	2018      	movs	r0, #24
   b5cba:	f7fe f9ec 	bl	b4096 <_Znwj>
   b5cbe:	4606      	mov	r6, r0
   b5cc0:	b138      	cbz	r0, b5cd2 <_ZN16Adafruit_MCP96005beginEhP7TwoWire+0x64>
   b5cc2:	2300      	movs	r3, #0
   b5cc4:	9300      	str	r3, [sp, #0]
   b5cc6:	6861      	ldr	r1, [r4, #4]
   b5cc8:	9701      	str	r7, [sp, #4]
   b5cca:	463b      	mov	r3, r7
   b5ccc:	2206      	movs	r2, #6
   b5cce:	f7ff fd33 	bl	b5738 <_ZN23Adafruit_BusIO_RegisterC1EP18Adafruit_I2CDevicethhh>
  _config_reg->write(0x80);
   b5cd2:	2180      	movs	r1, #128	; 0x80
  _config_reg = new Adafruit_I2CRegister(i2c_dev, MCP9600_DEVICECONFIG);
   b5cd4:	60a6      	str	r6, [r4, #8]
  _config_reg->write(0x80);
   b5cd6:	2200      	movs	r2, #0
   b5cd8:	4630      	mov	r0, r6
   b5cda:	f7ff fd6f 	bl	b57bc <_ZN23Adafruit_BusIO_Register5writeEmh>
  enable(true);
   b5cde:	2101      	movs	r1, #1
   b5ce0:	4620      	mov	r0, r4
   b5ce2:	f7ff ffb3 	bl	b5c4c <_ZN16Adafruit_MCP96006enableEb>
}
   b5ce6:	4628      	mov	r0, r5
   b5ce8:	b00b      	add	sp, #44	; 0x2c
   b5cea:	bdf0      	pop	{r4, r5, r6, r7, pc}
    return false;
   b5cec:	2500      	movs	r5, #0
   b5cee:	e7fa      	b.n	b5ce6 <_ZN16Adafruit_MCP96005beginEhP7TwoWire+0x78>

000b5cf0 <_ZN16Adafruit_MCP96007enabledEv>:
/*!
    @brief  Whether the sensor is enabled and working or in sleep mode
    @returns True if in awake mode, False if in sleep mode
*/
/**************************************************************************/
bool Adafruit_MCP9600::enabled(void) {
   b5cf0:	b507      	push	{r0, r1, r2, lr}
  // define the status bits
  Adafruit_I2CRegisterBits status =
      Adafruit_I2CRegisterBits(_config_reg, 2, 0); // # bits, bit_shift
   b5cf2:	2300      	movs	r3, #0
   b5cf4:	6881      	ldr	r1, [r0, #8]
   b5cf6:	2202      	movs	r2, #2
   b5cf8:	4668      	mov	r0, sp
   b5cfa:	f7ff fdcb 	bl	b5894 <_ZN27Adafruit_BusIO_RegisterBitsC1EP23Adafruit_BusIO_Registerhh>

  return !status.read();
   b5cfe:	4668      	mov	r0, sp
   b5d00:	f7ff fdcd 	bl	b589e <_ZN27Adafruit_BusIO_RegisterBits4readEv>
}
   b5d04:	fab0 f080 	clz	r0, r0
   b5d08:	0940      	lsrs	r0, r0, #5
   b5d0a:	b003      	add	sp, #12
   b5d0c:	f85d fb04 	ldr.w	pc, [sp], #4

000b5d10 <_ZN16Adafruit_MCP960016readThermocoupleEv>:
float Adafruit_MCP9600::readThermocouple(void) {
   b5d10:	b510      	push	{r4, lr}
   b5d12:	b088      	sub	sp, #32
   b5d14:	4604      	mov	r4, r0
  if (!enabled()) {
   b5d16:	f7ff ffeb 	bl	b5cf0 <_ZN16Adafruit_MCP96007enabledEv>
   b5d1a:	b190      	cbz	r0, b5d42 <_ZN16Adafruit_MCP960016readThermocoupleEv+0x32>
      Adafruit_I2CRegister(i2c_dev, MCP9600_HOTJUNCTION, 2, MSBFIRST);
   b5d1c:	2301      	movs	r3, #1
   b5d1e:	e9cd 3300 	strd	r3, r3, [sp]
   b5d22:	6861      	ldr	r1, [r4, #4]
   b5d24:	2302      	movs	r3, #2
   b5d26:	2200      	movs	r2, #0
   b5d28:	a802      	add	r0, sp, #8
   b5d2a:	f7ff fd05 	bl	b5738 <_ZN23Adafruit_BusIO_RegisterC1EP18Adafruit_I2CDevicethhh>
  int16_t therm = therm_reg.read();
   b5d2e:	a802      	add	r0, sp, #8
   b5d30:	f7ff fd94 	bl	b585c <_ZN23Adafruit_BusIO_Register4readEv>
  float temp = therm;
   b5d34:	b203      	sxth	r3, r0
   b5d36:	ee00 3a10 	vmov	s0, r3
  temp *= 0.0625; // 0.0625*C per LSB!
   b5d3a:	eeba 0ace 	vcvt.f32.s32	s0, s0, #4
}
   b5d3e:	b008      	add	sp, #32
   b5d40:	bd10      	pop	{r4, pc}
    return NAN;
   b5d42:	ed9f 0a01 	vldr	s0, [pc, #4]	; b5d48 <_ZN16Adafruit_MCP960016readThermocoupleEv+0x38>
   b5d46:	e7fa      	b.n	b5d3e <_ZN16Adafruit_MCP960016readThermocoupleEv+0x2e>
   b5d48:	7fc00000 	.word	0x7fc00000

000b5d4c <_ZN16Adafruit_MCP960016setADCresolutionE11_resolution>:
    @param  resolution Can be MCP9600_ADCRESOLUTION_18,
    MCP9600_ADCRESOLUTION_16, MCP9600_ADCRESOLUTION_14,
    or MCP9600_ADCRESOLUTION_12.
*/
/**************************************************************************/
void Adafruit_MCP9600::setADCresolution(MCP9600_ADCResolution resolution) {
   b5d4c:	b513      	push	{r0, r1, r4, lr}
  // define the resolution bits
  Adafruit_I2CRegisterBits res =
      Adafruit_I2CRegisterBits(_config_reg, 2, 5); // # bits, bit_shift
   b5d4e:	2305      	movs	r3, #5
void Adafruit_MCP9600::setADCresolution(MCP9600_ADCResolution resolution) {
   b5d50:	460c      	mov	r4, r1
      Adafruit_I2CRegisterBits(_config_reg, 2, 5); // # bits, bit_shift
   b5d52:	2202      	movs	r2, #2
   b5d54:	6881      	ldr	r1, [r0, #8]
   b5d56:	4668      	mov	r0, sp
   b5d58:	f7ff fd9c 	bl	b5894 <_ZN27Adafruit_BusIO_RegisterBitsC1EP23Adafruit_BusIO_Registerhh>

  res.write(resolution);
   b5d5c:	4621      	mov	r1, r4
   b5d5e:	4668      	mov	r0, sp
   b5d60:	f7ff fdaa 	bl	b58b8 <_ZN27Adafruit_BusIO_RegisterBits5writeEm>
}
   b5d64:	b002      	add	sp, #8
   b5d66:	bd10      	pop	{r4, pc}

000b5d68 <_ZN16Adafruit_MCP960016getADCresolutionEv>:
    @returns The reslution: MCP9600_ADCRESOLUTION_18,
    MCP9600_ADCRESOLUTION_16, MCP9600_ADCRESOLUTION_14,
    or MCP9600_ADCRESOLUTION_12.
*/
/**************************************************************************/
MCP9600_ADCResolution Adafruit_MCP9600::getADCresolution(void) {
   b5d68:	b507      	push	{r0, r1, r2, lr}
  // define the resolution bits
  Adafruit_I2CRegisterBits res =
      Adafruit_I2CRegisterBits(_config_reg, 2, 5); // # bits, bit_shift
   b5d6a:	2305      	movs	r3, #5
   b5d6c:	6881      	ldr	r1, [r0, #8]
   b5d6e:	2202      	movs	r2, #2
   b5d70:	4668      	mov	r0, sp
   b5d72:	f7ff fd8f 	bl	b5894 <_ZN27Adafruit_BusIO_RegisterBitsC1EP23Adafruit_BusIO_Registerhh>

  return (MCP9600_ADCResolution)res.read();
   b5d76:	4668      	mov	r0, sp
   b5d78:	f7ff fd91 	bl	b589e <_ZN27Adafruit_BusIO_RegisterBits4readEv>
}
   b5d7c:	b2c0      	uxtb	r0, r0
   b5d7e:	b003      	add	sp, #12
   b5d80:	f85d fb04 	ldr.w	pc, [sp], #4

000b5d84 <_ZN16Adafruit_MCP96007readADCEv>:
/*!
    @brief  Read the raw ADC voltage, say for self calculating a temperature
    @returns The 32-bit signed value from the ADC DATA register
*/
/**************************************************************************/
int32_t Adafruit_MCP9600::readADC(void) {
   b5d84:	b500      	push	{lr}
  // define the register
  Adafruit_I2CRegister adc =
      Adafruit_I2CRegister(i2c_dev, MCP9600_RAWDATAADC, 3, MSBFIRST);
   b5d86:	2301      	movs	r3, #1
int32_t Adafruit_MCP9600::readADC(void) {
   b5d88:	b089      	sub	sp, #36	; 0x24
      Adafruit_I2CRegister(i2c_dev, MCP9600_RAWDATAADC, 3, MSBFIRST);
   b5d8a:	e9cd 3300 	strd	r3, r3, [sp]
   b5d8e:	2303      	movs	r3, #3
   b5d90:	6841      	ldr	r1, [r0, #4]
   b5d92:	461a      	mov	r2, r3
   b5d94:	a802      	add	r0, sp, #8
   b5d96:	f7ff fccf 	bl	b5738 <_ZN23Adafruit_BusIO_RegisterC1EP18Adafruit_I2CDevicethhh>
  uint32_t reading = adc.read();
   b5d9a:	a802      	add	r0, sp, #8
   b5d9c:	f7ff fd5e 	bl	b585c <_ZN23Adafruit_BusIO_Register4readEv>
  // extend 24 bits to 32
  if (reading & 0x800000) {
   b5da0:	0203      	lsls	r3, r0, #8
    reading |= 0xFF000000;
   b5da2:	bf48      	it	mi
   b5da4:	f040 407f 	orrmi.w	r0, r0, #4278190080	; 0xff000000
  }
  return reading;
}
   b5da8:	b009      	add	sp, #36	; 0x24
   b5daa:	f85d fb04 	ldr.w	pc, [sp], #4

000b5dae <_ZN16Adafruit_MCP960019getThermocoupleTypeEv>:
    @returns The selected type: MCP9600_TYPE_K, MCP9600_TYPE_J,
    MCP9600_TYPE_T, MCP9600_TYPE_N, MCP9600_TYPE_S, MCP9600_TYPE_E,
    MCP9600_TYPE_B or MCP9600_TYPE_R
*/
/**************************************************************************/
MCP9600_ThemocoupleType Adafruit_MCP9600::getThermocoupleType(void) {
   b5dae:	b500      	push	{lr}
  // define the register
  Adafruit_I2CRegister sensorconfig =
      Adafruit_I2CRegister(i2c_dev, MCP9600_SENSORCONFIG, 1, MSBFIRST);
   b5db0:	2301      	movs	r3, #1
MCP9600_ThemocoupleType Adafruit_MCP9600::getThermocoupleType(void) {
   b5db2:	b08b      	sub	sp, #44	; 0x2c
      Adafruit_I2CRegister(i2c_dev, MCP9600_SENSORCONFIG, 1, MSBFIRST);
   b5db4:	e9cd 3300 	strd	r3, r3, [sp]
   b5db8:	2205      	movs	r2, #5
   b5dba:	6841      	ldr	r1, [r0, #4]
   b5dbc:	a804      	add	r0, sp, #16
   b5dbe:	f7ff fcbb 	bl	b5738 <_ZN23Adafruit_BusIO_RegisterC1EP18Adafruit_I2CDevicethhh>
  Adafruit_I2CRegisterBits type =
      Adafruit_I2CRegisterBits(&sensorconfig, 3, 4); // # bits, bit_shift
   b5dc2:	2304      	movs	r3, #4
   b5dc4:	2203      	movs	r2, #3
   b5dc6:	a904      	add	r1, sp, #16
   b5dc8:	a802      	add	r0, sp, #8
   b5dca:	f7ff fd63 	bl	b5894 <_ZN27Adafruit_BusIO_RegisterBitsC1EP23Adafruit_BusIO_Registerhh>

  return (MCP9600_ThemocoupleType)type.read();
   b5dce:	a802      	add	r0, sp, #8
   b5dd0:	f7ff fd65 	bl	b589e <_ZN27Adafruit_BusIO_RegisterBits4readEv>
}
   b5dd4:	b2c0      	uxtb	r0, r0
   b5dd6:	b00b      	add	sp, #44	; 0x2c
   b5dd8:	f85d fb04 	ldr.w	pc, [sp], #4

000b5ddc <_ZN16Adafruit_MCP960019setThermocoupleTypeE10_themotype>:
    @param thermotype The desired type: MCP9600_TYPE_K, MCP9600_TYPE_J,
    MCP9600_TYPE_T, MCP9600_TYPE_N, MCP9600_TYPE_S, MCP9600_TYPE_E,
    MCP9600_TYPE_B or MCP9600_TYPE_R
*/
/**************************************************************************/
void Adafruit_MCP9600::setThermocoupleType(MCP9600_ThemocoupleType thermotype) {
   b5ddc:	b510      	push	{r4, lr}
  // define the register
  Adafruit_I2CRegister sensorconfig =
      Adafruit_I2CRegister(i2c_dev, MCP9600_SENSORCONFIG, 1, MSBFIRST);
   b5dde:	2301      	movs	r3, #1
void Adafruit_MCP9600::setThermocoupleType(MCP9600_ThemocoupleType thermotype) {
   b5de0:	b08a      	sub	sp, #40	; 0x28
      Adafruit_I2CRegister(i2c_dev, MCP9600_SENSORCONFIG, 1, MSBFIRST);
   b5de2:	e9cd 3300 	strd	r3, r3, [sp]
void Adafruit_MCP9600::setThermocoupleType(MCP9600_ThemocoupleType thermotype) {
   b5de6:	460c      	mov	r4, r1
      Adafruit_I2CRegister(i2c_dev, MCP9600_SENSORCONFIG, 1, MSBFIRST);
   b5de8:	2205      	movs	r2, #5
   b5dea:	6841      	ldr	r1, [r0, #4]
   b5dec:	a804      	add	r0, sp, #16
   b5dee:	f7ff fca3 	bl	b5738 <_ZN23Adafruit_BusIO_RegisterC1EP18Adafruit_I2CDevicethhh>
  Adafruit_I2CRegisterBits type =
      Adafruit_I2CRegisterBits(&sensorconfig, 3, 4); // # bits, bit_shift
   b5df2:	2304      	movs	r3, #4
   b5df4:	2203      	movs	r2, #3
   b5df6:	a904      	add	r1, sp, #16
   b5df8:	a802      	add	r0, sp, #8
   b5dfa:	f7ff fd4b 	bl	b5894 <_ZN27Adafruit_BusIO_RegisterBitsC1EP23Adafruit_BusIO_Registerhh>

  type.write(thermotype);
   b5dfe:	4621      	mov	r1, r4
   b5e00:	a802      	add	r0, sp, #8
   b5e02:	f7ff fd59 	bl	b58b8 <_ZN27Adafruit_BusIO_RegisterBits5writeEm>
}
   b5e06:	b00a      	add	sp, #40	; 0x28
   b5e08:	bd10      	pop	{r4, pc}

000b5e0a <_ZN16Adafruit_MCP960020getFilterCoefficientEv>:
/*!
    @brief   The desired filter coefficient getter
    @returns How many readings we will be averaging, can be from 0-7
*/
/**************************************************************************/
uint8_t Adafruit_MCP9600::getFilterCoefficient(void) {
   b5e0a:	b500      	push	{lr}
  // define the register
  Adafruit_I2CRegister sensorconfig =
      Adafruit_I2CRegister(i2c_dev, MCP9600_SENSORCONFIG, 1, MSBFIRST);
   b5e0c:	2301      	movs	r3, #1
uint8_t Adafruit_MCP9600::getFilterCoefficient(void) {
   b5e0e:	b08b      	sub	sp, #44	; 0x2c
      Adafruit_I2CRegister(i2c_dev, MCP9600_SENSORCONFIG, 1, MSBFIRST);
   b5e10:	e9cd 3300 	strd	r3, r3, [sp]
   b5e14:	2205      	movs	r2, #5
   b5e16:	6841      	ldr	r1, [r0, #4]
   b5e18:	a804      	add	r0, sp, #16
   b5e1a:	f7ff fc8d 	bl	b5738 <_ZN23Adafruit_BusIO_RegisterC1EP18Adafruit_I2CDevicethhh>
  Adafruit_I2CRegisterBits filter =
      Adafruit_I2CRegisterBits(&sensorconfig, 3, 0); // # bits, bit_shift
   b5e1e:	2300      	movs	r3, #0
   b5e20:	2203      	movs	r2, #3
   b5e22:	a904      	add	r1, sp, #16
   b5e24:	a802      	add	r0, sp, #8
   b5e26:	f7ff fd35 	bl	b5894 <_ZN27Adafruit_BusIO_RegisterBitsC1EP23Adafruit_BusIO_Registerhh>

  return filter.read();
   b5e2a:	a802      	add	r0, sp, #8
   b5e2c:	f7ff fd37 	bl	b589e <_ZN27Adafruit_BusIO_RegisterBits4readEv>
}
   b5e30:	b2c0      	uxtb	r0, r0
   b5e32:	b00b      	add	sp, #44	; 0x2c
   b5e34:	f85d fb04 	ldr.w	pc, [sp], #4

000b5e38 <_ZN16Adafruit_MCP960020setFilterCoefficientEh>:
/*!
    @brief   The desired filter coefficient setter
    @param filtercount How many readings we will be averaging, can be from 0-7
*/
/**************************************************************************/
void Adafruit_MCP9600::setFilterCoefficient(uint8_t filtercount) {
   b5e38:	b510      	push	{r4, lr}
  // define the register
  Adafruit_I2CRegister sensorconfig =
      Adafruit_I2CRegister(i2c_dev, MCP9600_SENSORCONFIG, 1, MSBFIRST);
   b5e3a:	2301      	movs	r3, #1
void Adafruit_MCP9600::setFilterCoefficient(uint8_t filtercount) {
   b5e3c:	b08a      	sub	sp, #40	; 0x28
      Adafruit_I2CRegister(i2c_dev, MCP9600_SENSORCONFIG, 1, MSBFIRST);
   b5e3e:	e9cd 3300 	strd	r3, r3, [sp]
void Adafruit_MCP9600::setFilterCoefficient(uint8_t filtercount) {
   b5e42:	460c      	mov	r4, r1
      Adafruit_I2CRegister(i2c_dev, MCP9600_SENSORCONFIG, 1, MSBFIRST);
   b5e44:	2205      	movs	r2, #5
   b5e46:	6841      	ldr	r1, [r0, #4]
   b5e48:	a804      	add	r0, sp, #16
   b5e4a:	f7ff fc75 	bl	b5738 <_ZN23Adafruit_BusIO_RegisterC1EP18Adafruit_I2CDevicethhh>
  Adafruit_I2CRegisterBits filter =
      Adafruit_I2CRegisterBits(&sensorconfig, 3, 0); // # bits, bit_shift
   b5e4e:	2300      	movs	r3, #0
   b5e50:	2203      	movs	r2, #3
   b5e52:	a904      	add	r1, sp, #16
   b5e54:	a802      	add	r0, sp, #8
   b5e56:	f7ff fd1d 	bl	b5894 <_ZN27Adafruit_BusIO_RegisterBitsC1EP23Adafruit_BusIO_Registerhh>

  filter.write(filtercount);
   b5e5a:	4621      	mov	r1, r4
   b5e5c:	a802      	add	r0, sp, #8
   b5e5e:	f7ff fd2b 	bl	b58b8 <_ZN27Adafruit_BusIO_RegisterBits5writeEm>
}
   b5e62:	b00a      	add	sp, #40	; 0x28
   b5e64:	bd10      	pop	{r4, pc}
	...

000b5e68 <_ZN16Adafruit_MCP960019getAlertTemperatureEh>:
    @brief  Getter for alert temperature setting
    @param  alert Which alert output we're getting, can be 1 to 4
    @return Floating point temperature in Centigrade
*/
/**************************************************************************/
float Adafruit_MCP9600::getAlertTemperature(uint8_t alert) {
   b5e68:	b500      	push	{lr}
  if ((alert < 1) || (alert > 4))
   b5e6a:	1e4b      	subs	r3, r1, #1
   b5e6c:	2b03      	cmp	r3, #3
float Adafruit_MCP9600::getAlertTemperature(uint8_t alert) {
   b5e6e:	b089      	sub	sp, #36	; 0x24
  if ((alert < 1) || (alert > 4))
   b5e70:	d814      	bhi.n	b5e9c <_ZN16Adafruit_MCP960019getAlertTemperatureEh+0x34>
    return NAN; // invalid
  // define the register
  Adafruit_I2CRegister alerttemp = Adafruit_I2CRegister(
      i2c_dev, MCP9600_ALERTLIMIT_1 + alert - 1, 2, MSBFIRST);
   b5e72:	2301      	movs	r3, #1
   b5e74:	e9cd 3300 	strd	r3, r3, [sp]
   b5e78:	310f      	adds	r1, #15
   b5e7a:	2302      	movs	r3, #2
   b5e7c:	b2ca      	uxtb	r2, r1
   b5e7e:	6841      	ldr	r1, [r0, #4]
   b5e80:	a802      	add	r0, sp, #8
   b5e82:	f7ff fc59 	bl	b5738 <_ZN23Adafruit_BusIO_RegisterC1EP18Adafruit_I2CDevicethhh>

  // read a signed 16 bit value
  int16_t therm = alerttemp.read();
   b5e86:	a802      	add	r0, sp, #8
   b5e88:	f7ff fce8 	bl	b585c <_ZN23Adafruit_BusIO_Register4readEv>

  // convert to floating and shift to celsius
  float temp = therm;
   b5e8c:	b203      	sxth	r3, r0
   b5e8e:	ee00 3a10 	vmov	s0, r3
  temp *= 0.0625; // 0.0625*C per LSB!
   b5e92:	eeba 0ace 	vcvt.f32.s32	s0, s0, #4
  return temp;
}
   b5e96:	b009      	add	sp, #36	; 0x24
   b5e98:	f85d fb04 	ldr.w	pc, [sp], #4
    return NAN; // invalid
   b5e9c:	ed9f 0a01 	vldr	s0, [pc, #4]	; b5ea4 <_ZN16Adafruit_MCP960019getAlertTemperatureEh+0x3c>
   b5ea0:	e7f9      	b.n	b5e96 <_ZN16Adafruit_MCP960019getAlertTemperatureEh+0x2e>
   b5ea2:	bf00      	nop
   b5ea4:	7fc00000 	.word	0x7fc00000

000b5ea8 <_ZN16Adafruit_MCP960019setAlertTemperatureEhf>:
    @brief  Setter for alert temperature setting
    @param  alert Which alert output we're getting, can be 1 to 4
    @param  temp  Floating point temperature in Centigrade
*/
/**************************************************************************/
void Adafruit_MCP9600::setAlertTemperature(uint8_t alert, float temp) {
   b5ea8:	b510      	push	{r4, lr}
  if ((alert < 1) || (alert > 4))
   b5eaa:	1e4b      	subs	r3, r1, #1
   b5eac:	2b03      	cmp	r3, #3
void Adafruit_MCP9600::setAlertTemperature(uint8_t alert, float temp) {
   b5eae:	ee10 4a10 	vmov	r4, s0
   b5eb2:	b088      	sub	sp, #32
  if ((alert < 1) || (alert > 4))
   b5eb4:	d817      	bhi.n	b5ee6 <_ZN16Adafruit_MCP960019setAlertTemperatureEhf+0x3e>
    return; // invalid

  // define the register
  Adafruit_I2CRegister alerttemp = Adafruit_I2CRegister(
      i2c_dev, MCP9600_ALERTLIMIT_1 + alert - 1, 2, MSBFIRST);
   b5eb6:	2301      	movs	r3, #1
   b5eb8:	e9cd 3300 	strd	r3, r3, [sp]
   b5ebc:	310f      	adds	r1, #15
   b5ebe:	b2ca      	uxtb	r2, r1
   b5ec0:	2302      	movs	r3, #2
   b5ec2:	6841      	ldr	r1, [r0, #4]
   b5ec4:	a802      	add	r0, sp, #8
   b5ec6:	f7ff fc37 	bl	b5738 <_ZN23Adafruit_BusIO_RegisterC1EP18Adafruit_I2CDevicethhh>

  int16_t therm = temp / 0.0625; // 0.0625*C per LSB!
   b5eca:	4620      	mov	r0, r4
   b5ecc:	f005 fd30 	bl	bb930 <__aeabi_f2d>
   b5ed0:	2200      	movs	r2, #0
   b5ed2:	4b06      	ldr	r3, [pc, #24]	; (b5eec <_ZN16Adafruit_MCP960019setAlertTemperatureEhf+0x44>)
   b5ed4:	f005 fd84 	bl	bb9e0 <__aeabi_dmul>
   b5ed8:	f006 f832 	bl	bbf40 <__aeabi_d2iz>
  alerttemp.write(therm);
   b5edc:	2200      	movs	r2, #0
   b5ede:	b201      	sxth	r1, r0
   b5ee0:	a802      	add	r0, sp, #8
   b5ee2:	f7ff fc6b 	bl	b57bc <_ZN23Adafruit_BusIO_Register5writeEmh>
}
   b5ee6:	b008      	add	sp, #32
   b5ee8:	bd10      	pop	{r4, pc}
   b5eea:	bf00      	nop
   b5eec:	40300000 	.word	0x40300000

000b5ef0 <_ZN16Adafruit_MCP960014configureAlertEhbbbbb>:
    or comparator mode (false)
*/
/**************************************************************************/
void Adafruit_MCP9600::configureAlert(uint8_t alert, bool enabled, bool rising,
                                      bool alertColdJunction, bool activeHigh,
                                      bool interruptMode) {
   b5ef0:	e92d 43f0 	stmdb	sp!, {r4, r5, r6, r7, r8, r9, lr}
   b5ef4:	461e      	mov	r6, r3
   b5ef6:	b089      	sub	sp, #36	; 0x24
  if ((alert < 1) || (alert > 4))
   b5ef8:	1e4b      	subs	r3, r1, #1
   b5efa:	2b03      	cmp	r3, #3
                                      bool interruptMode) {
   b5efc:	f89d 7040 	ldrb.w	r7, [sp, #64]	; 0x40
   b5f00:	f89d 8044 	ldrb.w	r8, [sp, #68]	; 0x44
   b5f04:	f89d 9048 	ldrb.w	r9, [sp, #72]	; 0x48
   b5f08:	4614      	mov	r4, r2
  if ((alert < 1) || (alert > 4))
   b5f0a:	d81d      	bhi.n	b5f48 <_ZN16Adafruit_MCP960014configureAlertEhbbbbb+0x58>
    return; // invalid
  // define the register
  Adafruit_I2CRegister alertconfig = Adafruit_I2CRegister(
      i2c_dev, MCP9600_ALERTCONFIG_1 + alert - 1, 1, MSBFIRST);
   b5f0c:	2301      	movs	r3, #1
   b5f0e:	e9cd 3300 	strd	r3, r3, [sp]
   b5f12:	1dca      	adds	r2, r1, #7
   b5f14:	b2d2      	uxtb	r2, r2
   b5f16:	6841      	ldr	r1, [r0, #4]
   b5f18:	a802      	add	r0, sp, #8
   b5f1a:	f7ff fc0d 	bl	b5738 <_ZN23Adafruit_BusIO_RegisterC1EP18Adafruit_I2CDevicethhh>

  uint8_t c = 0;
   b5f1e:	4621      	mov	r1, r4

  if (enabled) {
    c |= 0x1;
  }
  if (interruptMode) {
   b5f20:	f1b9 0f00 	cmp.w	r9, #0
   b5f24:	d001      	beq.n	b5f2a <_ZN16Adafruit_MCP960014configureAlertEhbbbbb+0x3a>
    c |= 0x2;
   b5f26:	f044 0102 	orr.w	r1, r4, #2
  }
  if (activeHigh) {
   b5f2a:	f1b8 0f00 	cmp.w	r8, #0
   b5f2e:	d001      	beq.n	b5f34 <_ZN16Adafruit_MCP960014configureAlertEhbbbbb+0x44>
    c |= 0x4;
   b5f30:	f041 0104 	orr.w	r1, r1, #4
  }
  if (rising) {
   b5f34:	b10e      	cbz	r6, b5f3a <_ZN16Adafruit_MCP960014configureAlertEhbbbbb+0x4a>
    c |= 0x8;
   b5f36:	f041 0108 	orr.w	r1, r1, #8
  }
  if (alertColdJunction) {
   b5f3a:	b10f      	cbz	r7, b5f40 <_ZN16Adafruit_MCP960014configureAlertEhbbbbb+0x50>
    c |= 0x10;
   b5f3c:	f041 0110 	orr.w	r1, r1, #16
  }
  alertconfig.write(c);
   b5f40:	2200      	movs	r2, #0
   b5f42:	a802      	add	r0, sp, #8
   b5f44:	f7ff fc3a 	bl	b57bc <_ZN23Adafruit_BusIO_Register5writeEmh>
}
   b5f48:	b009      	add	sp, #36	; 0x24
   b5f4a:	e8bd 83f0 	ldmia.w	sp!, {r4, r5, r6, r7, r8, r9, pc}
	...

000b5f50 <_ZN8DateTimeC1Em>:
////////////////////////////////////////////////////////////////////////////////
// DateTime implementation - ignores time zones and DST changes
// NOTE: also ignores leap seconds, see http://en.wikipedia.org/wiki/Leap_second

DateTime::DateTime (uint32_t t) {
  t -= SECONDS_FROM_1970_TO_2000;    // bring to 2000 timestamp from 1970
   b5f50:	4b21      	ldr	r3, [pc, #132]	; (b5fd8 <_ZN8DateTimeC1Em+0x88>)
DateTime::DateTime (uint32_t t) {
   b5f52:	b5f0      	push	{r4, r5, r6, r7, lr}
  t -= SECONDS_FROM_1970_TO_2000;    // bring to 2000 timestamp from 1970
   b5f54:	440b      	add	r3, r1

    ss = t % 60;
   b5f56:	243c      	movs	r4, #60	; 0x3c
   b5f58:	fbb3 f1f4 	udiv	r1, r3, r4
   b5f5c:	fb04 3311 	mls	r3, r4, r1, r3
    t /= 60;
    mm = t % 60;
   b5f60:	fbb1 f2f4 	udiv	r2, r1, r4
   b5f64:	fb04 1112 	mls	r1, r4, r2, r1
   b5f68:	7101      	strb	r1, [r0, #4]
    t /= 60;
    hh = t % 24;
   b5f6a:	2118      	movs	r1, #24
    ss = t % 60;
   b5f6c:	7143      	strb	r3, [r0, #5]
    hh = t % 24;
   b5f6e:	fbb2 f3f1 	udiv	r3, r2, r1
   b5f72:	fb01 2213 	mls	r2, r1, r3, r2
   b5f76:	70c2      	strb	r2, [r0, #3]
    uint16_t days = t / 24;
    uint8_t leap;
    for (yOff = 0; ; ++yOff) {
   b5f78:	2200      	movs	r2, #0
    uint16_t days = t / 24;
   b5f7a:	b29b      	uxth	r3, r3
    for (yOff = 0; ; ++yOff) {
   b5f7c:	7002      	strb	r2, [r0, #0]
        leap = yOff % 4 == 0;
        if (days < 365 + leap)
   b5f7e:	f240 166d 	movw	r6, #365	; 0x16d
            break;
        days -= 365 + leap;
   b5f82:	f64f 6493 	movw	r4, #65171	; 0xfe93
        leap = yOff % 4 == 0;
   b5f86:	7802      	ldrb	r2, [r0, #0]
   b5f88:	f012 0503 	ands.w	r5, r2, #3
        if (days < 365 + leap)
   b5f8c:	bf0b      	itete	eq
   b5f8e:	4637      	moveq	r7, r6
   b5f90:	f44f 77b6 	movne.w	r7, #364	; 0x16c
   b5f94:	2101      	moveq	r1, #1
   b5f96:	2100      	movne	r1, #0
   b5f98:	429f      	cmp	r7, r3
   b5f9a:	da05      	bge.n	b5fa8 <_ZN8DateTimeC1Em+0x58>
        days -= 365 + leap;
   b5f9c:	1a61      	subs	r1, r4, r1
   b5f9e:	440b      	add	r3, r1
    for (yOff = 0; ; ++yOff) {
   b5fa0:	3201      	adds	r2, #1
        days -= 365 + leap;
   b5fa2:	b29b      	uxth	r3, r3
    for (yOff = 0; ; ++yOff) {
   b5fa4:	7002      	strb	r2, [r0, #0]
        leap = yOff % 4 == 0;
   b5fa6:	e7ee      	b.n	b5f86 <_ZN8DateTimeC1Em+0x36>
    }
    for (m = 1; ; ++m) {
   b5fa8:	2201      	movs	r2, #1
        uint8_t daysPerMonth = pgm_read_byte(daysInMonth + m - 1);
   b5faa:	4e0c      	ldr	r6, [pc, #48]	; (b5fdc <_ZN8DateTimeC1Em+0x8c>)
    for (m = 1; ; ++m) {
   b5fac:	7042      	strb	r2, [r0, #1]
        uint8_t daysPerMonth = pgm_read_byte(daysInMonth + m - 1);
   b5fae:	7841      	ldrb	r1, [r0, #1]
   b5fb0:	1872      	adds	r2, r6, r1
   b5fb2:	f812 2c01 	ldrb.w	r2, [r2, #-1]
        if (leap && m == 2)
   b5fb6:	b91d      	cbnz	r5, b5fc0 <_ZN8DateTimeC1Em+0x70>
   b5fb8:	2902      	cmp	r1, #2
            ++daysPerMonth;
   b5fba:	bf04      	itt	eq
   b5fbc:	3201      	addeq	r2, #1
   b5fbe:	b2d2      	uxtbeq	r2, r2
        if (days < daysPerMonth)
   b5fc0:	429a      	cmp	r2, r3
   b5fc2:	b294      	uxth	r4, r2
   b5fc4:	d804      	bhi.n	b5fd0 <_ZN8DateTimeC1Em+0x80>
            break;
        days -= daysPerMonth;
   b5fc6:	1b1b      	subs	r3, r3, r4
    for (m = 1; ; ++m) {
   b5fc8:	3101      	adds	r1, #1
        days -= daysPerMonth;
   b5fca:	b29b      	uxth	r3, r3
    for (m = 1; ; ++m) {
   b5fcc:	7041      	strb	r1, [r0, #1]
    }
   b5fce:	e7ee      	b.n	b5fae <_ZN8DateTimeC1Em+0x5e>
    d = days + 1;
   b5fd0:	3301      	adds	r3, #1
   b5fd2:	7083      	strb	r3, [r0, #2]
}
   b5fd4:	bdf0      	pop	{r4, r5, r6, r7, pc}
   b5fd6:	bf00      	nop
   b5fd8:	c792bc80 	.word	0xc792bc80
   b5fdc:	000bcbd8 	.word	0x000bcbd8

000b5fe0 <_ZN10RTC_DS13075beginEv>:
// RTC_DS1307 implementation

static uint8_t bcd2bin (uint8_t val) { return val - 6 * (val >> 4); }
static uint8_t bin2bcd (uint8_t val) { return val + 6 * (val / 10); }

boolean RTC_DS1307::begin(void) {
   b5fe0:	b508      	push	{r3, lr}
  Wire.begin();
   b5fe2:	f004 fe3d 	bl	bac60 <_Z19__fetch_global_Wirev>
   b5fe6:	f002 fc07 	bl	b87f8 <_ZN7TwoWire5beginEv>
  return true;
}
   b5fea:	2001      	movs	r0, #1
   b5fec:	bd08      	pop	{r3, pc}

000b5fee <_ZN11RTC_PCF85235beginEv>:
   b5fee:	f7ff bff7 	b.w	b5fe0 <_ZN10RTC_DS13075beginEv>

000b5ff2 <_ZN11RTC_PCF85233nowEv>:
  Wire._I2C_WRITE((byte)PCF8523_CONTROL_3);
  Wire._I2C_WRITE((byte)0x00);
  Wire.endTransmission();
}

DateTime RTC_PCF8523::now() {
   b5ff2:	e92d 43f8 	stmdb	sp!, {r3, r4, r5, r6, r7, r8, r9, lr}
   b5ff6:	4604      	mov	r4, r0
  Wire.beginTransmission(PCF8523_ADDRESS);
   b5ff8:	f004 fe32 	bl	bac60 <_Z19__fetch_global_Wirev>
   b5ffc:	2168      	movs	r1, #104	; 0x68
   b5ffe:	f002 fc31 	bl	b8864 <_ZN7TwoWire17beginTransmissionEi>
  Wire._I2C_WRITE((byte)3);	
   b6002:	f004 fe2d 	bl	bac60 <_Z19__fetch_global_Wirev>
   b6006:	6803      	ldr	r3, [r0, #0]
   b6008:	2103      	movs	r1, #3
   b600a:	689b      	ldr	r3, [r3, #8]
   b600c:	4798      	blx	r3
  Wire.endTransmission();
   b600e:	f004 fe27 	bl	bac60 <_Z19__fetch_global_Wirev>
   b6012:	f002 fc2e 	bl	b8872 <_ZN7TwoWire15endTransmissionEv>

  Wire.requestFrom(PCF8523_ADDRESS, 7);
   b6016:	f004 fe23 	bl	bac60 <_Z19__fetch_global_Wirev>
   b601a:	2207      	movs	r2, #7
   b601c:	2168      	movs	r1, #104	; 0x68
   b601e:	f002 fc1a 	bl	b8856 <_ZN7TwoWire11requestFromEhj>
  uint8_t ss = bcd2bin(Wire._I2C_READ() & 0x7F);
   b6022:	f004 fe1d 	bl	bac60 <_Z19__fetch_global_Wirev>
   b6026:	6803      	ldr	r3, [r0, #0]
   b6028:	695b      	ldr	r3, [r3, #20]
   b602a:	4798      	blx	r3
   b602c:	f000 097f 	and.w	r9, r0, #127	; 0x7f
static uint8_t bcd2bin (uint8_t val) { return val - 6 * (val >> 4); }
   b6030:	f3c0 1002 	ubfx	r0, r0, #4, #3
   b6034:	eba0 0080 	sub.w	r0, r0, r0, lsl #2
   b6038:	eb09 0040 	add.w	r0, r9, r0, lsl #1
   b603c:	fa5f f980 	uxtb.w	r9, r0
  uint8_t mm = bcd2bin(Wire._I2C_READ());
   b6040:	f004 fe0e 	bl	bac60 <_Z19__fetch_global_Wirev>
   b6044:	6803      	ldr	r3, [r0, #0]
   b6046:	695b      	ldr	r3, [r3, #20]
   b6048:	4798      	blx	r3
static uint8_t bcd2bin (uint8_t val) { return val - 6 * (val >> 4); }
   b604a:	f3c0 1503 	ubfx	r5, r0, #4, #4
   b604e:	eba5 0585 	sub.w	r5, r5, r5, lsl #2
   b6052:	eb00 0045 	add.w	r0, r0, r5, lsl #1
   b6056:	f000 05ff 	and.w	r5, r0, #255	; 0xff
  uint8_t hh = bcd2bin(Wire._I2C_READ());
   b605a:	f004 fe01 	bl	bac60 <_Z19__fetch_global_Wirev>
   b605e:	6803      	ldr	r3, [r0, #0]
   b6060:	695b      	ldr	r3, [r3, #20]
   b6062:	4798      	blx	r3
static uint8_t bcd2bin (uint8_t val) { return val - 6 * (val >> 4); }
   b6064:	f3c0 1603 	ubfx	r6, r0, #4, #4
   b6068:	eba6 0686 	sub.w	r6, r6, r6, lsl #2
   b606c:	eb00 0046 	add.w	r0, r0, r6, lsl #1
   b6070:	f000 06ff 	and.w	r6, r0, #255	; 0xff
  uint8_t d = bcd2bin(Wire._I2C_READ());
   b6074:	f004 fdf4 	bl	bac60 <_Z19__fetch_global_Wirev>
   b6078:	6803      	ldr	r3, [r0, #0]
   b607a:	695b      	ldr	r3, [r3, #20]
   b607c:	4798      	blx	r3
static uint8_t bcd2bin (uint8_t val) { return val - 6 * (val >> 4); }
   b607e:	f3c0 1703 	ubfx	r7, r0, #4, #4
   b6082:	eba7 0787 	sub.w	r7, r7, r7, lsl #2
   b6086:	eb00 0047 	add.w	r0, r0, r7, lsl #1
   b608a:	f000 07ff 	and.w	r7, r0, #255	; 0xff
  Wire._I2C_READ();  // skip 'weekdays'
   b608e:	f004 fde7 	bl	bac60 <_Z19__fetch_global_Wirev>
   b6092:	6803      	ldr	r3, [r0, #0]
   b6094:	695b      	ldr	r3, [r3, #20]
   b6096:	4798      	blx	r3
  uint8_t m = bcd2bin(Wire._I2C_READ());
   b6098:	f004 fde2 	bl	bac60 <_Z19__fetch_global_Wirev>
   b609c:	6803      	ldr	r3, [r0, #0]
   b609e:	695b      	ldr	r3, [r3, #20]
   b60a0:	4798      	blx	r3
static uint8_t bcd2bin (uint8_t val) { return val - 6 * (val >> 4); }
   b60a2:	f3c0 1803 	ubfx	r8, r0, #4, #4
   b60a6:	eba8 0888 	sub.w	r8, r8, r8, lsl #2
   b60aa:	eb00 0048 	add.w	r0, r0, r8, lsl #1
   b60ae:	f000 08ff 	and.w	r8, r0, #255	; 0xff
  uint16_t y = bcd2bin(Wire._I2C_READ()) + 2000;
   b60b2:	f004 fdd5 	bl	bac60 <_Z19__fetch_global_Wirev>
   b60b6:	6803      	ldr	r3, [r0, #0]
   b60b8:	695b      	ldr	r3, [r3, #20]
   b60ba:	4798      	blx	r3
static uint8_t bcd2bin (uint8_t val) { return val - 6 * (val >> 4); }
   b60bc:	f3c0 1303 	ubfx	r3, r0, #4, #4
   b60c0:	eba3 0383 	sub.w	r3, r3, r3, lsl #2
   b60c4:	eb00 0043 	add.w	r0, r0, r3, lsl #1
    yOff = year;
   b60c8:	7020      	strb	r0, [r4, #0]
    m = month;
   b60ca:	f884 8001 	strb.w	r8, [r4, #1]
    d = day;
   b60ce:	70a7      	strb	r7, [r4, #2]
    hh = hour;
   b60d0:	70e6      	strb	r6, [r4, #3]
    mm = min;
   b60d2:	7125      	strb	r5, [r4, #4]
    ss = sec;
   b60d4:	f884 9005 	strb.w	r9, [r4, #5]
  
  return DateTime (y, m, d, hh, mm, ss);
}
   b60d8:	4620      	mov	r0, r4
   b60da:	e8bd 83f8 	ldmia.w	sp!, {r3, r4, r5, r6, r7, r8, r9, pc}

000b60de <_ZN7FatFile8openRootEP9FatVolume.part.0>:
fail:
  return false;
}
#endif  // DOXYGEN_SHOULD_SKIP_THIS
//------------------------------------------------------------------------------
bool FatFile::openRoot(FatVolume* vol) {
   b60de:	b538      	push	{r3, r4, r5, lr}
   b60e0:	4604      	mov	r4, r0
   b60e2:	460d      	mov	r5, r1
  // error if file is already open
  if (isOpen()) {
    DBG_FAIL_MACRO;
    goto fail;
  }
  memset(this, 0, sizeof(FatFile));
   b60e4:	2224      	movs	r2, #36	; 0x24
   b60e6:	2100      	movs	r1, #0
   b60e8:	f006 f9a8 	bl	bc43c <memset>

  m_vol = vol;
   b60ec:	60a5      	str	r5, [r4, #8]
  uint32_t fatStartSector() const {
    return m_fatStartBlock;
  }
  /** \return The FAT type of the volume. Values are 12, 16 or 32. */
  uint8_t fatType() const {
    return m_fatType;
   b60ee:	79eb      	ldrb	r3, [r5, #7]
  switch (vol->fatType()) {
   b60f0:	2b10      	cmp	r3, #16
   b60f2:	d003      	beq.n	b60fc <_ZN7FatFile8openRootEP9FatVolume.part.0+0x1e>
   b60f4:	2b20      	cmp	r3, #32
   b60f6:	d006      	beq.n	b6106 <_ZN7FatFile8openRootEP9FatVolume.part.0+0x28>
   b60f8:	2000      	movs	r0, #0
  m_flags = F_READ;
  return true;

fail:
  return false;
}
   b60fa:	bd38      	pop	{r3, r4, r5, pc}
    m_attr = FILE_ATTR_ROOT_FIXED;
   b60fc:	2320      	movs	r3, #32
  m_flags = F_READ;
   b60fe:	2001      	movs	r0, #1
    m_attr = FILE_ATTR_ROOT32;
   b6100:	7023      	strb	r3, [r4, #0]
  m_flags = F_READ;
   b6102:	70a0      	strb	r0, [r4, #2]
  return true;
   b6104:	e7f9      	b.n	b60fa <_ZN7FatFile8openRootEP9FatVolume.part.0+0x1c>
    m_attr = FILE_ATTR_ROOT32;
   b6106:	2340      	movs	r3, #64	; 0x40
   b6108:	e7f9      	b.n	b60fe <_ZN7FatFile8openRootEP9FatVolume.part.0+0x20>

000b610a <_ZN9FatVolume9cacheSyncEv>:
  FatCache m_fatCache;
  cache_t* cacheFetchFat(uint32_t blockNumber, uint8_t options) {
    return m_fatCache.read(blockNumber,
                           options | FatCache::CACHE_STATUS_MIRROR_FAT);
  }
  bool cacheSync() {
   b610a:	b510      	push	{r4, lr}
   b610c:	4604      	mov	r4, r0
    return m_cache.sync() && m_fatCache.sync() && syncBlocks();
   b610e:	3024      	adds	r0, #36	; 0x24
   b6110:	f000 ffb6 	bl	b7080 <_ZN8FatCache4syncEv>
   b6114:	b128      	cbz	r0, b6122 <_ZN9FatVolume9cacheSyncEv+0x18>
   b6116:	f504 700c 	add.w	r0, r4, #560	; 0x230
  }
   b611a:	e8bd 4010 	ldmia.w	sp!, {r4, lr}
    return m_cache.sync() && m_fatCache.sync() && syncBlocks();
   b611e:	f000 bfaf 	b.w	b7080 <_ZN8FatCache4syncEv>
  }
   b6122:	bd10      	pop	{r4, pc}

000b6124 <_ZN7FatFile10addClusterEv>:
  m_flags |= F_FILE_DIR_DIRTY;
   b6124:	7883      	ldrb	r3, [r0, #2]
  return m_vol->allocateCluster(m_curCluster, &m_curCluster);
   b6126:	6901      	ldr	r1, [r0, #16]
  m_flags |= F_FILE_DIR_DIRTY;
   b6128:	f043 0304 	orr.w	r3, r3, #4
   b612c:	7083      	strb	r3, [r0, #2]
  return m_vol->allocateCluster(m_curCluster, &m_curCluster);
   b612e:	f100 0210 	add.w	r2, r0, #16
   b6132:	6880      	ldr	r0, [r0, #8]
   b6134:	f001 b85a 	b.w	b71ec <_ZN9FatVolume15allocateClusterEmPm>

000b6138 <_ZN7FatFile13addDirClusterEv>:
bool FatFile::addDirCluster() {
   b6138:	e92d 41f0 	stmdb	sp!, {r4, r5, r6, r7, r8, lr}
  if (isRootFixed()) {
   b613c:	7801      	ldrb	r1, [r0, #0]
   b613e:	f011 0520 	ands.w	r5, r1, #32
bool FatFile::addDirCluster() {
   b6142:	4604      	mov	r4, r0
  if (isRootFixed()) {
   b6144:	d003      	beq.n	b614e <_ZN7FatFile13addDirClusterEv+0x16>
  return false;
   b6146:	2600      	movs	r6, #0
}
   b6148:	4630      	mov	r0, r6
   b614a:	e8bd 81f0 	ldmia.w	sp!, {r4, r5, r6, r7, r8, pc}
  if (m_curPosition >= 512UL*4095) {
   b614e:	6942      	ldr	r2, [r0, #20]
   b6150:	4b17      	ldr	r3, [pc, #92]	; (b61b0 <_ZN7FatFile13addDirClusterEv+0x78>)
   b6152:	429a      	cmp	r2, r3
   b6154:	d2f7      	bcs.n	b6146 <_ZN7FatFile13addDirClusterEv+0xe>
  if (!addCluster()) {
   b6156:	f7ff ffe5 	bl	b6124 <_ZN7FatFile10addClusterEv>
   b615a:	4606      	mov	r6, r0
   b615c:	2800      	cmp	r0, #0
   b615e:	d0f2      	beq.n	b6146 <_ZN7FatFile13addDirClusterEv+0xe>
  block = m_vol->clusterFirstBlock(m_curCluster);
   b6160:	6921      	ldr	r1, [r4, #16]
   b6162:	68a0      	ldr	r0, [r4, #8]
   b6164:	f000 ffd7 	bl	b7116 <_ZNK9FatVolume17clusterFirstBlockEm>
   b6168:	4607      	mov	r7, r0
  bool cacheSync() {
    return m_cache.sync() && syncBlocks();
  }
#endif  // USE_SEPARATE_FAT_CACHE
  cache_t* cacheFetchData(uint32_t blockNumber, uint8_t options) {
    return m_cache.read(blockNumber, options);
   b616a:	68a0      	ldr	r0, [r4, #8]
   b616c:	2205      	movs	r2, #5
   b616e:	4639      	mov	r1, r7
   b6170:	3024      	adds	r0, #36	; 0x24
   b6172:	f000 ffad 	bl	b70d0 <_ZN8FatCache4readEmh>
  if (!pc) {
   b6176:	4680      	mov	r8, r0
   b6178:	2800      	cmp	r0, #0
   b617a:	d0e4      	beq.n	b6146 <_ZN7FatFile13addDirClusterEv+0xe>
  memset(pc, 0, 512);
   b617c:	4629      	mov	r1, r5
   b617e:	f44f 7200 	mov.w	r2, #512	; 0x200
   b6182:	f006 f95b 	bl	bc43c <memset>
  for (uint8_t i = 1; i < m_vol->blocksPerCluster(); i++) {
   b6186:	2501      	movs	r5, #1
   b6188:	68a3      	ldr	r3, [r4, #8]
    return m_blocksPerCluster;
   b618a:	791a      	ldrb	r2, [r3, #4]
   b618c:	42aa      	cmp	r2, r5
   b618e:	d909      	bls.n	b61a4 <_ZN7FatFile13addDirClusterEv+0x6c>
    return m_blockDev->writeBlock(block, src);
   b6190:	6818      	ldr	r0, [r3, #0]
   b6192:	4642      	mov	r2, r8
   b6194:	19e9      	adds	r1, r5, r7
   b6196:	f001 fb0a 	bl	b77ae <_ZN9SdSpiCard10writeBlockEmPKh>
    if (!m_vol->writeBlock(block + i, pc->data)) {
   b619a:	2800      	cmp	r0, #0
   b619c:	d0d3      	beq.n	b6146 <_ZN7FatFile13addDirClusterEv+0xe>
  for (uint8_t i = 1; i < m_vol->blocksPerCluster(); i++) {
   b619e:	3501      	adds	r5, #1
   b61a0:	b2ed      	uxtb	r5, r5
   b61a2:	e7f1      	b.n	b6188 <_ZN7FatFile13addDirClusterEv+0x50>
  m_curPosition += 512UL*m_vol->blocksPerCluster();
   b61a4:	6963      	ldr	r3, [r4, #20]
   b61a6:	eb03 2342 	add.w	r3, r3, r2, lsl #9
   b61aa:	6163      	str	r3, [r4, #20]
  return true;
   b61ac:	e7cc      	b.n	b6148 <_ZN7FatFile13addDirClusterEv+0x10>
   b61ae:	bf00      	nop
   b61b0:	001ffe00 	.word	0x001ffe00

000b61b4 <_ZN7FatFile13cacheDirEntryEh>:
dir_t* FatFile::cacheDirEntry(uint8_t action) {
   b61b4:	b510      	push	{r4, lr}
   b61b6:	4604      	mov	r4, r0
    return m_cache.read(blockNumber, options);
   b61b8:	6880      	ldr	r0, [r0, #8]
   b61ba:	460a      	mov	r2, r1
   b61bc:	3024      	adds	r0, #36	; 0x24
   b61be:	69a1      	ldr	r1, [r4, #24]
   b61c0:	f000 ff86 	bl	b70d0 <_ZN8FatCache4readEmh>
  if (!pc) {
   b61c4:	b120      	cbz	r0, b61d0 <_ZN7FatFile13cacheDirEntryEh+0x1c>
  return pc->dir + (m_dirIndex & 0XF);
   b61c6:	88a3      	ldrh	r3, [r4, #4]
   b61c8:	f003 030f 	and.w	r3, r3, #15
   b61cc:	eb00 1043 	add.w	r0, r0, r3, lsl #5
}
   b61d0:	bd10      	pop	{r4, pc}

000b61d2 <_ZN7FatFile8openRootEP9FatVolume>:
  if (isOpen()) {
   b61d2:	7803      	ldrb	r3, [r0, #0]
   b61d4:	b90b      	cbnz	r3, b61da <_ZN7FatFile8openRootEP9FatVolume+0x8>
   b61d6:	f7ff bf82 	b.w	b60de <_ZN7FatFile8openRootEP9FatVolume.part.0>
}
   b61da:	2000      	movs	r0, #0
   b61dc:	4770      	bx	lr

000b61de <_ZN7FatFile4readEPvj>:
    setpos(&pos);
  }
  return c;
}
//------------------------------------------------------------------------------
int FatFile::read(void* buf, size_t nbyte) {
   b61de:	e92d 4ff7 	stmdb	sp!, {r0, r1, r2, r4, r5, r6, r7, r8, r9, sl, fp, lr}
    return m_attr;
   b61e2:	7803      	ldrb	r3, [r0, #0]
   b61e4:	4604      	mov	r4, r0
   b61e6:	4688      	mov	r8, r1
   b61e8:	4615      	mov	r5, r2
  size_t toRead;
  uint32_t block;  // raw device block number
  cache_t* pc;

  // error if not open for read
  if (!isOpen() || !(m_flags & F_READ)) {
   b61ea:	2b00      	cmp	r3, #0
   b61ec:	d05d      	beq.n	b62aa <_ZN7FatFile4readEPvj+0xcc>
   b61ee:	7882      	ldrb	r2, [r0, #2]
   b61f0:	07d1      	lsls	r1, r2, #31
   b61f2:	d55a      	bpl.n	b62aa <_ZN7FatFile4readEPvj+0xcc>
    DBG_FAIL_MACRO;
    goto fail;
  }

  if (isFile()) {
   b61f4:	071a      	lsls	r2, r3, #28
   b61f6:	d52d      	bpl.n	b6254 <_ZN7FatFile4readEPvj+0x76>
    uint32_t tmp32 = m_fileSize - m_curPosition;
   b61f8:	69c3      	ldr	r3, [r0, #28]
   b61fa:	6942      	ldr	r2, [r0, #20]
   b61fc:	1a9b      	subs	r3, r3, r2
   b61fe:	429d      	cmp	r5, r3
   b6200:	bf28      	it	cs
   b6202:	461d      	movcs	r5, r3
    uint16_t tmp16 = 32*m_vol->m_rootDirEntryCount - (uint16_t)m_curPosition;
    if (nbyte > tmp16) {
      nbyte = tmp16;
    }
  }
  toRead = nbyte;
   b6204:	462e      	mov	r6, r5
  uint8_t blockOfCluster = 0;
   b6206:	f04f 0900 	mov.w	r9, #0
        if (m_curPosition == 0) {
          // use first cluster in file
          m_curCluster = isRoot32() ? m_vol->rootDirStart() : m_firstCluster;
        } else {
          // get next cluster from FAT
          fg = m_vol->fatGet(m_curCluster, &m_curCluster);
   b620a:	f104 0b10 	add.w	fp, r4, #16
  while (toRead) {
   b620e:	2e00      	cmp	r6, #0
   b6210:	f000 808f 	beq.w	b6332 <_ZN7FatFile4readEPvj+0x154>
    return m_attr & FILE_ATTR_ROOT_FIXED;
   b6214:	7822      	ldrb	r2, [r4, #0]
    offset = m_curPosition & 0X1FF;  // offset in block
   b6216:	6963      	ldr	r3, [r4, #20]
      block = m_vol->rootDirStart() + (m_curPosition >> 9);
   b6218:	68a0      	ldr	r0, [r4, #8]
    if (isRootFixed()) {
   b621a:	0697      	lsls	r7, r2, #26
    offset = m_curPosition & 0X1FF;  // offset in block
   b621c:	f3c3 0a08 	ubfx	sl, r3, #0, #9
      block = m_vol->rootDirStart() + (m_curPosition >> 9);
   b6220:	ea4f 2153 	mov.w	r1, r3, lsr #9
    if (isRootFixed()) {
   b6224:	d51f      	bpl.n	b6266 <_ZN7FatFile4readEPvj+0x88>
      block = m_vol->rootDirStart() + (m_curPosition >> 9);
   b6226:	6a00      	ldr	r0, [r0, #32]
   b6228:	4401      	add	r1, r0
          }
        }
      }
      block = m_vol->clusterFirstBlock(m_curCluster) + blockOfCluster;
    }
    if (offset != 0 || toRead < 512 || block == m_vol->cacheBlockNumber()) {
   b622a:	68a0      	ldr	r0, [r4, #8]
   b622c:	f1ba 0f00 	cmp.w	sl, #0
   b6230:	d142      	bne.n	b62b8 <_ZN7FatFile4readEPvj+0xda>
   b6232:	f5b6 7f00 	cmp.w	r6, #512	; 0x200
   b6236:	d33f      	bcc.n	b62b8 <_ZN7FatFile4readEPvj+0xda>
    return m_lbn;
   b6238:	6ac3      	ldr	r3, [r0, #44]	; 0x2c
   b623a:	4299      	cmp	r1, r3
   b623c:	d03c      	beq.n	b62b8 <_ZN7FatFile4readEPvj+0xda>
        goto fail;
      }
      uint8_t* src = pc->data + offset;
      memcpy(dst, src, n);
#if USE_MULTI_BLOCK_IO
    } else if (toRead >= 1024) {
   b623e:	f5b6 6f80 	cmp.w	r6, #1024	; 0x400
   b6242:	d252      	bcs.n	b62ea <_ZN7FatFile4readEPvj+0x10c>
    return m_blockDev->readBlock(block, dst);
   b6244:	6800      	ldr	r0, [r0, #0]
   b6246:	4642      	mov	r2, r8
   b6248:	f001 fa28 	bl	b769c <_ZN9SdSpiCard9readBlockEmPh>
      }
#endif  // USE_MULTI_BLOCK_IO
    } else {
      // read single block
      n = 512;
      if (!m_vol->readBlock(block, dst)) {
   b624c:	b368      	cbz	r0, b62aa <_ZN7FatFile4readEPvj+0xcc>
      n = 512;
   b624e:	f44f 7700 	mov.w	r7, #512	; 0x200
   b6252:	e044      	b.n	b62de <_ZN7FatFile4readEPvj+0x100>
  } else if (isRootFixed()) {
   b6254:	069b      	lsls	r3, r3, #26
   b6256:	d5d5      	bpl.n	b6204 <_ZN7FatFile4readEPvj+0x26>
    uint16_t tmp16 = 32*m_vol->m_rootDirEntryCount - (uint16_t)m_curPosition;
   b6258:	6883      	ldr	r3, [r0, #8]
   b625a:	891a      	ldrh	r2, [r3, #8]
   b625c:	6943      	ldr	r3, [r0, #20]
   b625e:	ebc3 1342 	rsb	r3, r3, r2, lsl #5
    if (nbyte > tmp16) {
   b6262:	b29b      	uxth	r3, r3
   b6264:	e7cb      	b.n	b61fe <_ZN7FatFile4readEPvj+0x20>
//------------------------------------------------------------------------------
  bool allocateCluster(uint32_t current, uint32_t* next);
  bool allocContiguous(uint32_t count,
                       uint32_t* firstCluster, uint32_t startCluster = 0);
  uint8_t blockOfCluster(uint32_t position) const {
    return (position >> 9) & m_clusterBlockMask;
   b6266:	f890 9005 	ldrb.w	r9, [r0, #5]
   b626a:	ea09 0901 	and.w	r9, r9, r1
      if (offset == 0 && blockOfCluster == 0) {
   b626e:	f1ba 0f00 	cmp.w	sl, #0
   b6272:	d108      	bne.n	b6286 <_ZN7FatFile4readEPvj+0xa8>
   b6274:	f1b9 0f00 	cmp.w	r9, #0
   b6278:	d105      	bne.n	b6286 <_ZN7FatFile4readEPvj+0xa8>
        if (m_curPosition == 0) {
   b627a:	b95b      	cbnz	r3, b6294 <_ZN7FatFile4readEPvj+0xb6>
          m_curCluster = isRoot32() ? m_vol->rootDirStart() : m_firstCluster;
   b627c:	0651      	lsls	r1, r2, #25
    return m_rootDirStart;
   b627e:	bf4c      	ite	mi
   b6280:	6a03      	ldrmi	r3, [r0, #32]
   b6282:	6a23      	ldrpl	r3, [r4, #32]
   b6284:	6123      	str	r3, [r4, #16]
      block = m_vol->clusterFirstBlock(m_curCluster) + blockOfCluster;
   b6286:	6921      	ldr	r1, [r4, #16]
   b6288:	68a0      	ldr	r0, [r4, #8]
   b628a:	f000 ff44 	bl	b7116 <_ZNK9FatVolume17clusterFirstBlockEm>
   b628e:	eb09 0100 	add.w	r1, r9, r0
   b6292:	e7ca      	b.n	b622a <_ZN7FatFile4readEPvj+0x4c>
          fg = m_vol->fatGet(m_curCluster, &m_curCluster);
   b6294:	6921      	ldr	r1, [r4, #16]
   b6296:	465a      	mov	r2, fp
   b6298:	f000 ff43 	bl	b7122 <_ZN9FatVolume6fatGetEmPm>
          if (fg < 0) {
   b629c:	2800      	cmp	r0, #0
   b629e:	db04      	blt.n	b62aa <_ZN7FatFile4readEPvj+0xcc>
          if (fg == 0) {
   b62a0:	d1f1      	bne.n	b6286 <_ZN7FatFile4readEPvj+0xa8>
            if (isDir()) {
   b62a2:	7823      	ldrb	r3, [r4, #0]
   b62a4:	f013 0f70 	tst.w	r3, #112	; 0x70
   b62a8:	d143      	bne.n	b6332 <_ZN7FatFile4readEPvj+0x154>
    toRead -= n;
  }
  return nbyte - toRead;

fail:
  m_error |= READ_ERROR;
   b62aa:	7863      	ldrb	r3, [r4, #1]
   b62ac:	f043 0302 	orr.w	r3, r3, #2
   b62b0:	7063      	strb	r3, [r4, #1]
  return -1;
   b62b2:	f04f 30ff 	mov.w	r0, #4294967295	; 0xffffffff
   b62b6:	e03d      	b.n	b6334 <_ZN7FatFile4readEPvj+0x156>
      n = 512 - offset;
   b62b8:	f5ca 7700 	rsb	r7, sl, #512	; 0x200
      if (n > toRead) {
   b62bc:	42b7      	cmp	r7, r6
    return m_cache.read(blockNumber, options);
   b62be:	f04f 0200 	mov.w	r2, #0
   b62c2:	f100 0024 	add.w	r0, r0, #36	; 0x24
   b62c6:	bf28      	it	cs
   b62c8:	4637      	movcs	r7, r6
   b62ca:	f000 ff01 	bl	b70d0 <_ZN8FatCache4readEmh>
      if (!pc) {
   b62ce:	2800      	cmp	r0, #0
   b62d0:	d0eb      	beq.n	b62aa <_ZN7FatFile4readEPvj+0xcc>
      memcpy(dst, src, n);
   b62d2:	eb00 010a 	add.w	r1, r0, sl
   b62d6:	463a      	mov	r2, r7
   b62d8:	4640      	mov	r0, r8
   b62da:	f006 f887 	bl	bc3ec <memcpy>
    m_curPosition += n;
   b62de:	6963      	ldr	r3, [r4, #20]
   b62e0:	443b      	add	r3, r7
    dst += n;
   b62e2:	44b8      	add	r8, r7
    m_curPosition += n;
   b62e4:	6163      	str	r3, [r4, #20]
    toRead -= n;
   b62e6:	1bf6      	subs	r6, r6, r7
  while (toRead) {
   b62e8:	e791      	b.n	b620e <_ZN7FatFile4readEPvj+0x30>
      if (!isRootFixed()) {
   b62ea:	7822      	ldrb	r2, [r4, #0]
   b62ec:	0692      	lsls	r2, r2, #26
      size_t nb = toRead >> 9;
   b62ee:	ea4f 2a56 	mov.w	sl, r6, lsr #9
      if (!isRootFixed()) {
   b62f2:	d406      	bmi.n	b6302 <_ZN7FatFile4readEPvj+0x124>
        uint8_t mb = m_vol->blocksPerCluster() - blockOfCluster;
   b62f4:	7902      	ldrb	r2, [r0, #4]
   b62f6:	eba2 0209 	sub.w	r2, r2, r9
        if (mb < nb) {
   b62fa:	b2d2      	uxtb	r2, r2
   b62fc:	4592      	cmp	sl, r2
   b62fe:	bf28      	it	cs
   b6300:	4692      	movcs	sl, r2
          && block < (m_vol->cacheBlockNumber() + nb)) {
   b6302:	4299      	cmp	r1, r3
      n = 512*nb;
   b6304:	ea4f 274a 	mov.w	r7, sl, lsl #9
          && block < (m_vol->cacheBlockNumber() + nb)) {
   b6308:	d208      	bcs.n	b631c <_ZN7FatFile4readEPvj+0x13e>
    return m_blockDev->readBlocks(block, dst, nb);
   b630a:	68a0      	ldr	r0, [r4, #8]
   b630c:	4653      	mov	r3, sl
   b630e:	6800      	ldr	r0, [r0, #0]
   b6310:	4642      	mov	r2, r8
   b6312:	f001 fa0b 	bl	b772c <_ZN9SdSpiCard10readBlocksEmPhj>
      if (!m_vol->readBlocks(block, dst, nb)) {
   b6316:	2800      	cmp	r0, #0
   b6318:	d1e1      	bne.n	b62de <_ZN7FatFile4readEPvj+0x100>
   b631a:	e7c6      	b.n	b62aa <_ZN7FatFile4readEPvj+0xcc>
          && block < (m_vol->cacheBlockNumber() + nb)) {
   b631c:	4453      	add	r3, sl
   b631e:	428b      	cmp	r3, r1
   b6320:	d9f3      	bls.n	b630a <_ZN7FatFile4readEPvj+0x12c>
    return m_cache.sync();
   b6322:	3024      	adds	r0, #36	; 0x24
   b6324:	9101      	str	r1, [sp, #4]
   b6326:	f000 feab 	bl	b7080 <_ZN8FatCache4syncEv>
        if (!m_vol->cacheSyncData()) {
   b632a:	9901      	ldr	r1, [sp, #4]
   b632c:	2800      	cmp	r0, #0
   b632e:	d1ec      	bne.n	b630a <_ZN7FatFile4readEPvj+0x12c>
   b6330:	e7bb      	b.n	b62aa <_ZN7FatFile4readEPvj+0xcc>
  return nbyte - toRead;
   b6332:	1ba8      	subs	r0, r5, r6
}
   b6334:	b003      	add	sp, #12
   b6336:	e8bd 8ff0 	ldmia.w	sp!, {r4, r5, r6, r7, r8, r9, sl, fp, pc}

000b633a <_ZN7FatFile4peekEv>:
int FatFile::peek() {
   b633a:	b573      	push	{r0, r1, r4, r5, r6, lr}
    return read(&b, 1) == 1 ? b : -1;
   b633c:	2201      	movs	r2, #1
   b633e:	f10d 0107 	add.w	r1, sp, #7
  pos->cluster = m_curCluster;
   b6342:	e9d0 5604 	ldrd	r5, r6, [r0, #16]
int FatFile::peek() {
   b6346:	4604      	mov	r4, r0
   b6348:	f7ff ff49 	bl	b61de <_ZN7FatFile4readEPvj>
   b634c:	2801      	cmp	r0, #1
   b634e:	bf0a      	itet	eq
   b6350:	f89d 0007 	ldrbeq.w	r0, [sp, #7]
   b6354:	f04f 30ff 	movne.w	r0, #4294967295	; 0xffffffff
  return false;
}
//------------------------------------------------------------------------------
void FatFile::setpos(FatPos_t* pos) {
  m_curPosition = pos->position;
  m_curCluster = pos->cluster;
   b6358:	e9c4 5604 	strdeq	r5, r6, [r4, #16]
}
   b635c:	b002      	add	sp, #8
   b635e:	bd70      	pop	{r4, r5, r6, pc}

000b6360 <_ZN7FatFile12readDirCacheEb>:
dir_t* FatFile::readDirCache(bool skipReadOk) {
   b6360:	b537      	push	{r0, r1, r2, r4, r5, lr}
  uint8_t i = (m_curPosition >> 5) & 0XF;
   b6362:	6943      	ldr	r3, [r0, #20]
  if (i == 0 || !skipReadOk) {
   b6364:	f413 7ff0 	tst.w	r3, #480	; 0x1e0
dir_t* FatFile::readDirCache(bool skipReadOk) {
   b6368:	4604      	mov	r4, r0
  uint8_t i = (m_curPosition >> 5) & 0XF;
   b636a:	f3c3 1543 	ubfx	r5, r3, #5, #4
  if (i == 0 || !skipReadOk) {
   b636e:	d000      	beq.n	b6372 <_ZN7FatFile12readDirCacheEb+0x12>
   b6370:	b999      	cbnz	r1, b639a <_ZN7FatFile12readDirCacheEb+0x3a>
    int8_t n = read(&n, 1);
   b6372:	2201      	movs	r2, #1
   b6374:	f10d 0107 	add.w	r1, sp, #7
   b6378:	4620      	mov	r0, r4
   b637a:	f7ff ff30 	bl	b61de <_ZN7FatFile4readEPvj>
    if  (n != 1) {
   b637e:	b240      	sxtb	r0, r0
   b6380:	2801      	cmp	r0, #1
   b6382:	d002      	beq.n	b638a <_ZN7FatFile12readDirCacheEb+0x2a>
  return 0;
   b6384:	2000      	movs	r0, #0
}
   b6386:	b003      	add	sp, #12
   b6388:	bd30      	pop	{r4, r5, pc}
    m_curPosition += 31;
   b638a:	6963      	ldr	r3, [r4, #20]
   b638c:	331f      	adds	r3, #31
  return m_vol->cacheAddress()->dir + i;
   b638e:	68a0      	ldr	r0, [r4, #8]
    m_curPosition += 32;
   b6390:	6163      	str	r3, [r4, #20]
  return m_vol->cacheAddress()->dir + i;
   b6392:	3030      	adds	r0, #48	; 0x30
   b6394:	eb00 1045 	add.w	r0, r0, r5, lsl #5
   b6398:	e7f5      	b.n	b6386 <_ZN7FatFile12readDirCacheEb+0x26>
    m_curPosition += 32;
   b639a:	3320      	adds	r3, #32
   b639c:	e7f7      	b.n	b638e <_ZN7FatFile12readDirCacheEb+0x2e>

000b639e <_ZN7FatFile7seekSetEm>:
bool FatFile::seekSet(uint32_t pos) {
   b639e:	e92d 41f0 	stmdb	sp!, {r4, r5, r6, r7, r8, lr}
    return m_attr;
   b63a2:	7802      	ldrb	r2, [r0, #0]
  uint32_t tmp = m_curCluster;
   b63a4:	6907      	ldr	r7, [r0, #16]
bool FatFile::seekSet(uint32_t pos) {
   b63a6:	4604      	mov	r4, r0
   b63a8:	460d      	mov	r5, r1
  if (!isOpen()) {
   b63aa:	b162      	cbz	r2, b63c6 <_ZN7FatFile7seekSetEm+0x28>
  if (pos == m_curPosition) {
   b63ac:	6940      	ldr	r0, [r0, #20]
   b63ae:	4288      	cmp	r0, r1
   b63b0:	d002      	beq.n	b63b8 <_ZN7FatFile7seekSetEm+0x1a>
  if (pos == 0) {
   b63b2:	b919      	cbnz	r1, b63bc <_ZN7FatFile7seekSetEm+0x1e>
    m_curCluster = 0;
   b63b4:	6121      	str	r1, [r4, #16]
  m_curPosition = pos;
   b63b6:	6165      	str	r5, [r4, #20]
    return true;
   b63b8:	2001      	movs	r0, #1
   b63ba:	e006      	b.n	b63ca <_ZN7FatFile7seekSetEm+0x2c>
  if (isFile()) {
   b63bc:	0716      	lsls	r6, r2, #28
   b63be:	d506      	bpl.n	b63ce <_ZN7FatFile7seekSetEm+0x30>
    if (pos > m_fileSize) {
   b63c0:	69e3      	ldr	r3, [r4, #28]
   b63c2:	428b      	cmp	r3, r1
   b63c4:	d20b      	bcs.n	b63de <_ZN7FatFile7seekSetEm+0x40>
  m_curCluster = tmp;
   b63c6:	6127      	str	r7, [r4, #16]
  return false;
   b63c8:	2000      	movs	r0, #0
}
   b63ca:	e8bd 81f0 	ldmia.w	sp!, {r4, r5, r6, r7, r8, pc}
  } else if (isRootFixed()) {
   b63ce:	0691      	lsls	r1, r2, #26
   b63d0:	d505      	bpl.n	b63de <_ZN7FatFile7seekSetEm+0x40>
    return m_rootDirEntryCount;
   b63d2:	68a3      	ldr	r3, [r4, #8]
    if (pos <= 32*m_vol->rootDirEntryCount()) {
   b63d4:	891b      	ldrh	r3, [r3, #8]
   b63d6:	ebb5 1f43 	cmp.w	r5, r3, lsl #5
   b63da:	d9ec      	bls.n	b63b6 <_ZN7FatFile7seekSetEm+0x18>
   b63dc:	e7f3      	b.n	b63c6 <_ZN7FatFile7seekSetEm+0x28>
  nCur = (m_curPosition - 1) >> (m_vol->clusterSizeShift() + 9);
   b63de:	f8d4 c008 	ldr.w	ip, [r4, #8]
   b63e2:	f89c 6006 	ldrb.w	r6, [ip, #6]
   b63e6:	1e43      	subs	r3, r0, #1
   b63e8:	f106 0109 	add.w	r1, r6, #9
  nNew = (pos - 1) >> (m_vol->clusterSizeShift() + 9);
   b63ec:	1e6e      	subs	r6, r5, #1
  nCur = (m_curPosition - 1) >> (m_vol->clusterSizeShift() + 9);
   b63ee:	40cb      	lsrs	r3, r1
  nNew = (pos - 1) >> (m_vol->clusterSizeShift() + 9);
   b63f0:	40ce      	lsrs	r6, r1
  if (nNew < nCur || m_curPosition == 0) {
   b63f2:	42b3      	cmp	r3, r6
   b63f4:	d800      	bhi.n	b63f8 <_ZN7FatFile7seekSetEm+0x5a>
   b63f6:	b998      	cbnz	r0, b6420 <_ZN7FatFile7seekSetEm+0x82>
    m_curCluster = isRoot32() ? m_vol->rootDirStart() : m_firstCluster;
   b63f8:	0653      	lsls	r3, r2, #25
    return m_rootDirStart;
   b63fa:	bf4c      	ite	mi
   b63fc:	f8dc 3020 	ldrmi.w	r3, [ip, #32]
   b6400:	6a23      	ldrpl	r3, [r4, #32]
   b6402:	6123      	str	r3, [r4, #16]
    if (m_vol->fatGet(m_curCluster, &m_curCluster) <= 0) {
   b6404:	f104 0810 	add.w	r8, r4, #16
  while (nNew--) {
   b6408:	2e00      	cmp	r6, #0
   b640a:	d0d4      	beq.n	b63b6 <_ZN7FatFile7seekSetEm+0x18>
    if (m_vol->fatGet(m_curCluster, &m_curCluster) <= 0) {
   b640c:	6921      	ldr	r1, [r4, #16]
   b640e:	68a0      	ldr	r0, [r4, #8]
   b6410:	4642      	mov	r2, r8
   b6412:	f000 fe86 	bl	b7122 <_ZN9FatVolume6fatGetEmPm>
   b6416:	2800      	cmp	r0, #0
   b6418:	f106 36ff 	add.w	r6, r6, #4294967295	; 0xffffffff
   b641c:	dcf4      	bgt.n	b6408 <_ZN7FatFile7seekSetEm+0x6a>
   b641e:	e7d2      	b.n	b63c6 <_ZN7FatFile7seekSetEm+0x28>
    nNew -= nCur;
   b6420:	1af6      	subs	r6, r6, r3
   b6422:	e7ef      	b.n	b6404 <_ZN7FatFile7seekSetEm+0x66>

000b6424 <_ZN7FatFile15openCachedEntryEPS_tih>:
                              oflag_t oflag, uint8_t lfnOrd) {
   b6424:	b5f8      	push	{r3, r4, r5, r6, r7, lr}
   b6426:	460f      	mov	r7, r1
   b6428:	4604      	mov	r4, r0
   b642a:	4615      	mov	r5, r2
  memset(this, 0, sizeof(FatFile));
   b642c:	2100      	movs	r1, #0
   b642e:	2224      	movs	r2, #36	; 0x24
                              oflag_t oflag, uint8_t lfnOrd) {
   b6430:	461e      	mov	r6, r3
  memset(this, 0, sizeof(FatFile));
   b6432:	f006 f803 	bl	bc43c <memset>
  m_vol = dirFile->m_vol;
   b6436:	68b8      	ldr	r0, [r7, #8]
   b6438:	60a0      	str	r0, [r4, #8]
  m_dirIndex = dirIndex;
   b643a:	80a5      	strh	r5, [r4, #4]
  dir_t* dir = &m_vol->cacheAddress()->dir[0XF & dirIndex];
   b643c:	f005 050f 	and.w	r5, r5, #15
  m_dirCluster = dirFile->m_firstCluster;
   b6440:	6a3b      	ldr	r3, [r7, #32]
   b6442:	60e3      	str	r3, [r4, #12]
  return (dir->attributes & DIR_ATT_VOLUME_ID) == 0;
   b6444:	016a      	lsls	r2, r5, #5
   b6446:	eb00 1545 	add.w	r5, r0, r5, lsl #5
   b644a:	f895 303b 	ldrb.w	r3, [r5, #59]	; 0x3b
  if (!DIR_IS_FILE_OR_SUBDIR(dir)) {
   b644e:	071f      	lsls	r7, r3, #28
   b6450:	d444      	bmi.n	b64dc <_ZN7FatFile15openCachedEntryEPS_tih+0xb8>
  m_attr = dir->attributes & FILE_ATTR_COPY;
   b6452:	f003 0317 	and.w	r3, r3, #23
   b6456:	7023      	strb	r3, [r4, #0]
  if (DIR_IS_FILE(dir)) {
   b6458:	f895 103b 	ldrb.w	r1, [r5, #59]	; 0x3b
   b645c:	f011 0f18 	tst.w	r1, #24
    m_attr |= FILE_ATTR_FILE;
   b6460:	bf04      	itt	eq
   b6462:	f043 0308 	orreq.w	r3, r3, #8
   b6466:	7023      	strbeq	r3, [r4, #0]
  m_lfnOrd = lfnOrd;
   b6468:	f89d 3018 	ldrb.w	r3, [sp, #24]
   b646c:	70e3      	strb	r3, [r4, #3]
  switch (oflag & O_ACCMODE) {
   b646e:	f006 0303 	and.w	r3, r6, #3
   b6472:	2b01      	cmp	r3, #1
   b6474:	d02c      	beq.n	b64d0 <_ZN7FatFile15openCachedEntryEPS_tih+0xac>
   b6476:	2b02      	cmp	r3, #2
   b6478:	d028      	beq.n	b64cc <_ZN7FatFile15openCachedEntryEPS_tih+0xa8>
   b647a:	bb7b      	cbnz	r3, b64dc <_ZN7FatFile15openCachedEntryEPS_tih+0xb8>
      if (oflag & O_TRUNC) {
   b647c:	0571      	lsls	r1, r6, #21
   b647e:	d42d      	bmi.n	b64dc <_ZN7FatFile15openCachedEntryEPS_tih+0xb8>
      m_flags = F_READ;
   b6480:	2301      	movs	r3, #1
      m_flags = F_WRITE;
   b6482:	70a3      	strb	r3, [r4, #2]
  if (m_flags & F_WRITE) {
   b6484:	78a1      	ldrb	r1, [r4, #2]
   b6486:	078b      	lsls	r3, r1, #30
   b6488:	d504      	bpl.n	b6494 <_ZN7FatFile15openCachedEntryEPS_tih+0x70>
    return m_attr & FILE_ATTR_SUBDIR;
   b648a:	7823      	ldrb	r3, [r4, #0]
    if (isSubDir() || isReadOnly()) {
   b648c:	06df      	lsls	r7, r3, #27
   b648e:	d425      	bmi.n	b64dc <_ZN7FatFile15openCachedEntryEPS_tih+0xb8>
   b6490:	07dd      	lsls	r5, r3, #31
   b6492:	d423      	bmi.n	b64dc <_ZN7FatFile15openCachedEntryEPS_tih+0xb8>
  m_flags |= (oflag & O_APPEND ? F_APPEND : 0) | (oflag & O_SYNC ? F_SYNC : 0);
   b6494:	11b3      	asrs	r3, r6, #6
   b6496:	f023 037f 	bic.w	r3, r3, #127	; 0x7f
   b649a:	f006 0508 	and.w	r5, r6, #8
   b649e:	432b      	orrs	r3, r5
   b64a0:	430b      	orrs	r3, r1
   b64a2:	70a3      	strb	r3, [r4, #2]
    return m_lbn;
   b64a4:	6ac3      	ldr	r3, [r0, #44]	; 0x2c
  m_dirBlock = m_vol->cacheBlockNumber();
   b64a6:	61a3      	str	r3, [r4, #24]
  firstCluster = ((uint32_t)dir->firstClusterHigh << 16)
   b64a8:	1883      	adds	r3, r0, r2
   b64aa:	f8b3 2044 	ldrh.w	r2, [r3, #68]	; 0x44
                 | dir->firstClusterLow;
   b64ae:	f8b3 104a 	ldrh.w	r1, [r3, #74]	; 0x4a
  firstCluster = ((uint32_t)dir->firstClusterHigh << 16)
   b64b2:	ea41 4102 	orr.w	r1, r1, r2, lsl #16
  if (oflag & O_TRUNC) {
   b64b6:	0572      	lsls	r2, r6, #21
   b64b8:	d513      	bpl.n	b64e2 <_ZN7FatFile15openCachedEntryEPS_tih+0xbe>
    if (firstCluster && !m_vol->freeChain(firstCluster)) {
   b64ba:	b959      	cbnz	r1, b64d4 <_ZN7FatFile15openCachedEntryEPS_tih+0xb0>
    m_flags |= F_FILE_DIR_DIRTY;
   b64bc:	78a3      	ldrb	r3, [r4, #2]
   b64be:	f043 0304 	orr.w	r3, r3, #4
   b64c2:	70a3      	strb	r3, [r4, #2]
  if ((oflag & O_AT_END) && !seekSet(m_fileSize)) {
   b64c4:	0473      	lsls	r3, r6, #17
   b64c6:	d410      	bmi.n	b64ea <_ZN7FatFile15openCachedEntryEPS_tih+0xc6>
  return true;
   b64c8:	2001      	movs	r0, #1
}
   b64ca:	bdf8      	pop	{r3, r4, r5, r6, r7, pc}
      m_flags = F_READ | F_WRITE;
   b64cc:	2303      	movs	r3, #3
   b64ce:	e7d8      	b.n	b6482 <_ZN7FatFile15openCachedEntryEPS_tih+0x5e>
      m_flags = F_WRITE;
   b64d0:	2302      	movs	r3, #2
   b64d2:	e7d6      	b.n	b6482 <_ZN7FatFile15openCachedEntryEPS_tih+0x5e>
    if (firstCluster && !m_vol->freeChain(firstCluster)) {
   b64d4:	f000 fec5 	bl	b7262 <_ZN9FatVolume9freeChainEm>
   b64d8:	2800      	cmp	r0, #0
   b64da:	d1ef      	bne.n	b64bc <_ZN7FatFile15openCachedEntryEPS_tih+0x98>
  m_attr = FILE_ATTR_CLOSED;
   b64dc:	2000      	movs	r0, #0
   b64de:	7020      	strb	r0, [r4, #0]
  return false;
   b64e0:	e7f3      	b.n	b64ca <_ZN7FatFile15openCachedEntryEPS_tih+0xa6>
    m_firstCluster = firstCluster;
   b64e2:	6221      	str	r1, [r4, #32]
    m_fileSize = dir->fileSize;
   b64e4:	6cdb      	ldr	r3, [r3, #76]	; 0x4c
   b64e6:	61e3      	str	r3, [r4, #28]
   b64e8:	e7ec      	b.n	b64c4 <_ZN7FatFile15openCachedEntryEPS_tih+0xa0>
  if ((oflag & O_AT_END) && !seekSet(m_fileSize)) {
   b64ea:	69e1      	ldr	r1, [r4, #28]
   b64ec:	4620      	mov	r0, r4
   b64ee:	f7ff ff56 	bl	b639e <_ZN7FatFile7seekSetEm>
   b64f2:	2800      	cmp	r0, #0
   b64f4:	d1e8      	bne.n	b64c8 <_ZN7FatFile15openCachedEntryEPS_tih+0xa4>
   b64f6:	e7f1      	b.n	b64dc <_ZN7FatFile15openCachedEntryEPS_tih+0xb8>

000b64f8 <_ZN7FatFile4syncEv>:
}
//------------------------------------------------------------------------------
bool FatFile::sync() {
   b64f8:	b538      	push	{r3, r4, r5, lr}
  if (!isOpen()) {
   b64fa:	7803      	ldrb	r3, [r0, #0]
bool FatFile::sync() {
   b64fc:	4604      	mov	r4, r0
  if (!isOpen()) {
   b64fe:	b90b      	cbnz	r3, b6504 <_ZN7FatFile4syncEv+0xc>
    return true;
   b6500:	2001      	movs	r0, #1
  DBG_FAIL_MACRO;

fail:
  m_error |= WRITE_ERROR;
  return false;
}
   b6502:	bd38      	pop	{r3, r4, r5, pc}
  if (m_flags & F_FILE_DIR_DIRTY) {
   b6504:	7883      	ldrb	r3, [r0, #2]
   b6506:	075a      	lsls	r2, r3, #29
   b6508:	d523      	bpl.n	b6552 <_ZN7FatFile4syncEv+0x5a>
    dir_t* dir = cacheDirEntry(FatCache::CACHE_FOR_WRITE);
   b650a:	2101      	movs	r1, #1
   b650c:	f7ff fe52 	bl	b61b4 <_ZN7FatFile13cacheDirEntryEh>
    if (!dir || dir->name[0] == DIR_NAME_DELETED) {
   b6510:	4605      	mov	r5, r0
   b6512:	b928      	cbnz	r0, b6520 <_ZN7FatFile4syncEv+0x28>
  m_error |= WRITE_ERROR;
   b6514:	7863      	ldrb	r3, [r4, #1]
   b6516:	f043 0301 	orr.w	r3, r3, #1
   b651a:	7063      	strb	r3, [r4, #1]
  return false;
   b651c:	2000      	movs	r0, #0
   b651e:	e7f0      	b.n	b6502 <_ZN7FatFile4syncEv+0xa>
    if (!dir || dir->name[0] == DIR_NAME_DELETED) {
   b6520:	7803      	ldrb	r3, [r0, #0]
   b6522:	2be5      	cmp	r3, #229	; 0xe5
   b6524:	d0f6      	beq.n	b6514 <_ZN7FatFile4syncEv+0x1c>
    if (isFile()) {
   b6526:	7823      	ldrb	r3, [r4, #0]
   b6528:	071b      	lsls	r3, r3, #28
      dir->fileSize = m_fileSize;
   b652a:	bf44      	itt	mi
   b652c:	69e3      	ldrmi	r3, [r4, #28]
   b652e:	61c3      	strmi	r3, [r0, #28]
    dir->firstClusterLow = m_firstCluster & 0XFFFF;
   b6530:	6a23      	ldr	r3, [r4, #32]
   b6532:	8343      	strh	r3, [r0, #26]
    dir->firstClusterHigh = m_firstCluster >> 16;
   b6534:	8c63      	ldrh	r3, [r4, #34]	; 0x22
   b6536:	8283      	strh	r3, [r0, #20]
    if (m_dateTime) {
   b6538:	4b09      	ldr	r3, [pc, #36]	; (b6560 <_ZN7FatFile4syncEv+0x68>)
   b653a:	681b      	ldr	r3, [r3, #0]
   b653c:	b12b      	cbz	r3, b654a <_ZN7FatFile4syncEv+0x52>
      m_dateTime(&dir->lastWriteDate, &dir->lastWriteTime);
   b653e:	f100 0116 	add.w	r1, r0, #22
   b6542:	3018      	adds	r0, #24
   b6544:	4798      	blx	r3
      dir->lastAccessDate = dir->lastWriteDate;
   b6546:	8b2b      	ldrh	r3, [r5, #24]
   b6548:	826b      	strh	r3, [r5, #18]
    m_flags &= ~F_FILE_DIR_DIRTY;
   b654a:	78a3      	ldrb	r3, [r4, #2]
   b654c:	f023 0304 	bic.w	r3, r3, #4
   b6550:	70a3      	strb	r3, [r4, #2]
  if (m_vol->cacheSync()) {
   b6552:	68a0      	ldr	r0, [r4, #8]
   b6554:	f7ff fdd9 	bl	b610a <_ZN9FatVolume9cacheSyncEv>
   b6558:	2800      	cmp	r0, #0
   b655a:	d0db      	beq.n	b6514 <_ZN7FatFile4syncEv+0x1c>
   b655c:	e7d0      	b.n	b6500 <_ZN7FatFile4syncEv+0x8>
   b655e:	bf00      	nop
   b6560:	2003e67c 	.word	0x2003e67c

000b6564 <_ZN7FatFile5closeEv>:
bool FatFile::close() {
   b6564:	b510      	push	{r4, lr}
   b6566:	4604      	mov	r4, r0
  bool rtn = sync();
   b6568:	f7ff ffc6 	bl	b64f8 <_ZN7FatFile4syncEv>
  m_attr = FILE_ATTR_CLOSED;
   b656c:	2300      	movs	r3, #0
   b656e:	7023      	strb	r3, [r4, #0]
}
   b6570:	bd10      	pop	{r4, pc}

000b6572 <_ZN7FatFile4openEPS_PKci>:
bool FatFile::open(FatFile* dirFile, const char* path, oflag_t oflag) {
   b6572:	b5f0      	push	{r4, r5, r6, r7, lr}
   b6574:	b093      	sub	sp, #76	; 0x4c
   b6576:	461f      	mov	r7, r3
  FatFile() : m_attr(FILE_ATTR_CLOSED), m_error(0) {}
   b6578:	2300      	movs	r3, #0
   b657a:	9309      	str	r3, [sp, #36]	; 0x24
  if (isOpen() || !dirFile || !dirFile->isDir()) {
   b657c:	7803      	ldrb	r3, [r0, #0]
bool FatFile::open(FatFile* dirFile, const char* path, oflag_t oflag) {
   b657e:	9201      	str	r2, [sp, #4]
   b6580:	4606      	mov	r6, r0
   b6582:	460c      	mov	r4, r1
  if (isOpen() || !dirFile || !dirFile->isDir()) {
   b6584:	b113      	cbz	r3, b658c <_ZN7FatFile4openEPS_PKci+0x1a>
  return false;
   b6586:	2000      	movs	r0, #0
}
   b6588:	b013      	add	sp, #76	; 0x4c
   b658a:	bdf0      	pop	{r4, r5, r6, r7, pc}
  if (isOpen() || !dirFile || !dirFile->isDir()) {
   b658c:	2900      	cmp	r1, #0
   b658e:	d0fa      	beq.n	b6586 <_ZN7FatFile4openEPS_PKci+0x14>
   b6590:	780b      	ldrb	r3, [r1, #0]
   b6592:	f013 0f70 	tst.w	r3, #112	; 0x70
   b6596:	d0f6      	beq.n	b6586 <_ZN7FatFile4openEPS_PKci+0x14>
  if (isDirSeparator(*path)) {
   b6598:	7813      	ldrb	r3, [r2, #0]
   b659a:	2b2f      	cmp	r3, #47	; 0x2f
   b659c:	d112      	bne.n	b65c4 <_ZN7FatFile4openEPS_PKci+0x52>
    while (isDirSeparator(*path)) {
   b659e:	9a01      	ldr	r2, [sp, #4]
   b65a0:	7813      	ldrb	r3, [r2, #0]
   b65a2:	2b2f      	cmp	r3, #47	; 0x2f
   b65a4:	d102      	bne.n	b65ac <_ZN7FatFile4openEPS_PKci+0x3a>
      path++;
   b65a6:	3201      	adds	r2, #1
   b65a8:	9201      	str	r2, [sp, #4]
    while (isDirSeparator(*path)) {
   b65aa:	e7f8      	b.n	b659e <_ZN7FatFile4openEPS_PKci+0x2c>
      return openRoot(dirFile->m_vol);
   b65ac:	68a1      	ldr	r1, [r4, #8]
    if (*path == 0) {
   b65ae:	b91b      	cbnz	r3, b65b8 <_ZN7FatFile4openEPS_PKci+0x46>
      return openRoot(dirFile->m_vol);
   b65b0:	4630      	mov	r0, r6
   b65b2:	f7ff fe0e 	bl	b61d2 <_ZN7FatFile8openRootEP9FatVolume>
   b65b6:	e7e7      	b.n	b6588 <_ZN7FatFile4openEPS_PKci+0x16>
    return m_attr;
   b65b8:	a809      	add	r0, sp, #36	; 0x24
   b65ba:	f7ff fd90 	bl	b60de <_ZN7FatFile8openRootEP9FatVolume.part.0>
    if (!tmpDir.openRoot(dirFile->m_vol)) {
   b65be:	2800      	cmp	r0, #0
   b65c0:	d0e1      	beq.n	b6586 <_ZN7FatFile4openEPS_PKci+0x14>
    dirFile = &tmpDir;
   b65c2:	ac09      	add	r4, sp, #36	; 0x24
    if (!parsePathName(path, &fname, &path)) {
   b65c4:	9801      	ldr	r0, [sp, #4]
   b65c6:	aa01      	add	r2, sp, #4
   b65c8:	a903      	add	r1, sp, #12
   b65ca:	f000 f9fb 	bl	b69c4 <_ZN7FatFile13parsePathNameEPKcP7fname_tPS1_>
   b65ce:	2800      	cmp	r0, #0
   b65d0:	d0d9      	beq.n	b6586 <_ZN7FatFile4openEPS_PKci+0x14>
    if (*path == 0) {
   b65d2:	9b01      	ldr	r3, [sp, #4]
   b65d4:	781b      	ldrb	r3, [r3, #0]
   b65d6:	b19b      	cbz	r3, b6600 <_ZN7FatFile4openEPS_PKci+0x8e>
    if (!open(dirFile, &fname, O_RDONLY)) {
   b65d8:	2300      	movs	r3, #0
   b65da:	aa03      	add	r2, sp, #12
   b65dc:	4621      	mov	r1, r4
   b65de:	4630      	mov	r0, r6
   b65e0:	f000 fb84 	bl	b6cec <_ZN7FatFile4openEPS_P7fname_ti>
   b65e4:	2800      	cmp	r0, #0
   b65e6:	d0ce      	beq.n	b6586 <_ZN7FatFile4openEPS_PKci+0x14>
    tmpDir = *this;
   b65e8:	4635      	mov	r5, r6
   b65ea:	cd0f      	ldmia	r5!, {r0, r1, r2, r3}
   b65ec:	ac09      	add	r4, sp, #36	; 0x24
   b65ee:	c40f      	stmia	r4!, {r0, r1, r2, r3}
   b65f0:	cd0f      	ldmia	r5!, {r0, r1, r2, r3}
   b65f2:	c40f      	stmia	r4!, {r0, r1, r2, r3}
   b65f4:	682b      	ldr	r3, [r5, #0]
   b65f6:	6023      	str	r3, [r4, #0]
    close();
   b65f8:	4630      	mov	r0, r6
   b65fa:	f7ff ffb3 	bl	b6564 <_ZN7FatFile5closeEv>
  while (1) {
   b65fe:	e7e0      	b.n	b65c2 <_ZN7FatFile4openEPS_PKci+0x50>
  return open(dirFile, &fname, oflag);
   b6600:	463b      	mov	r3, r7
   b6602:	aa03      	add	r2, sp, #12
   b6604:	4621      	mov	r1, r4
   b6606:	4630      	mov	r0, r6
   b6608:	f000 fb70 	bl	b6cec <_ZN7FatFile4openEPS_P7fname_ti>
   b660c:	e7bc      	b.n	b6588 <_ZN7FatFile4openEPS_PKci+0x16>

000b660e <_ZN7FatFile6removeEPS_PKc>:
bool FatFile::remove(FatFile* dirFile, const char* path) {
   b660e:	b500      	push	{lr}
   b6610:	b08b      	sub	sp, #44	; 0x2c
  FatFile() : m_attr(FILE_ATTR_CLOSED), m_error(0) {}
   b6612:	2300      	movs	r3, #0
   b6614:	460a      	mov	r2, r1
   b6616:	9301      	str	r3, [sp, #4]
  if (!file.open(dirFile, path, O_WRONLY)) {
   b6618:	4601      	mov	r1, r0
   b661a:	2301      	movs	r3, #1
   b661c:	a801      	add	r0, sp, #4
   b661e:	f7ff ffa8 	bl	b6572 <_ZN7FatFile4openEPS_PKci>
   b6622:	b110      	cbz	r0, b662a <_ZN7FatFile6removeEPS_PKc+0x1c>
  return file.remove();
   b6624:	a801      	add	r0, sp, #4
   b6626:	f000 faab 	bl	b6b80 <_ZN7FatFile6removeEv>
}
   b662a:	b00b      	add	sp, #44	; 0x2c
   b662c:	f85d fb04 	ldr.w	pc, [sp], #4

000b6630 <_ZN7FatFile5mkdirEPS_P7fname_t>:
bool FatFile::mkdir(FatFile* parent, fname_t* fname) {
   b6630:	b5f0      	push	{r4, r5, r6, r7, lr}
   b6632:	4604      	mov	r4, r0
   b6634:	b089      	sub	sp, #36	; 0x24
  if (!parent || !parent->isDir()) {
   b6636:	460e      	mov	r6, r1
   b6638:	b911      	cbnz	r1, b6640 <_ZN7FatFile5mkdirEPS_P7fname_t+0x10>
  return false;
   b663a:	2000      	movs	r0, #0
}
   b663c:	b009      	add	sp, #36	; 0x24
   b663e:	bdf0      	pop	{r4, r5, r6, r7, pc}
  if (!parent || !parent->isDir()) {
   b6640:	780b      	ldrb	r3, [r1, #0]
   b6642:	f013 0f70 	tst.w	r3, #112	; 0x70
   b6646:	d0f8      	beq.n	b663a <_ZN7FatFile5mkdirEPS_P7fname_t+0xa>
  if (!open(parent, fname, O_RDWR | O_CREAT | O_EXCL)) {
   b6648:	f640 2302 	movw	r3, #2562	; 0xa02
   b664c:	f000 fb4e 	bl	b6cec <_ZN7FatFile4openEPS_P7fname_ti>
   b6650:	2800      	cmp	r0, #0
   b6652:	d0f2      	beq.n	b663a <_ZN7FatFile5mkdirEPS_P7fname_t+0xa>
  m_flags = F_READ;
   b6654:	2701      	movs	r7, #1
  m_attr = FILE_ATTR_SUBDIR;
   b6656:	2510      	movs	r5, #16
  m_flags = F_READ;
   b6658:	70a7      	strb	r7, [r4, #2]
  m_attr = FILE_ATTR_SUBDIR;
   b665a:	7025      	strb	r5, [r4, #0]
  if (!addDirCluster()) {
   b665c:	4620      	mov	r0, r4
   b665e:	f7ff fd6b 	bl	b6138 <_ZN7FatFile13addDirClusterEv>
   b6662:	2800      	cmp	r0, #0
   b6664:	d0e9      	beq.n	b663a <_ZN7FatFile5mkdirEPS_P7fname_t+0xa>
  m_firstCluster = m_curCluster;
   b6666:	6923      	ldr	r3, [r4, #16]
   b6668:	6223      	str	r3, [r4, #32]
    seekSet(0);
   b666a:	2100      	movs	r1, #0
   b666c:	4620      	mov	r0, r4
   b666e:	f7ff fe96 	bl	b639e <_ZN7FatFile7seekSetEm>
  if (!sync()) {
   b6672:	4620      	mov	r0, r4
   b6674:	f7ff ff40 	bl	b64f8 <_ZN7FatFile4syncEv>
   b6678:	2800      	cmp	r0, #0
   b667a:	d0de      	beq.n	b663a <_ZN7FatFile5mkdirEPS_P7fname_t+0xa>
  dir = cacheDirEntry(FatCache::CACHE_FOR_WRITE);
   b667c:	4639      	mov	r1, r7
   b667e:	4620      	mov	r0, r4
   b6680:	f7ff fd98 	bl	b61b4 <_ZN7FatFile13cacheDirEntryEh>
  if (!dir) {
   b6684:	2800      	cmp	r0, #0
   b6686:	d0d8      	beq.n	b663a <_ZN7FatFile5mkdirEPS_P7fname_t+0xa>
  memcpy(&dot, dir, sizeof(dot));
   b6688:	466a      	mov	r2, sp
  dir->attributes = DIR_ATT_DIRECTORY;
   b668a:	72c5      	strb	r5, [r0, #11]
  memcpy(&dot, dir, sizeof(dot));
   b668c:	4603      	mov	r3, r0
   b668e:	f100 0c20 	add.w	ip, r0, #32
   b6692:	4615      	mov	r5, r2
   b6694:	6818      	ldr	r0, [r3, #0]
   b6696:	6859      	ldr	r1, [r3, #4]
   b6698:	4617      	mov	r7, r2
   b669a:	c703      	stmia	r7!, {r0, r1}
   b669c:	3308      	adds	r3, #8
   b669e:	4563      	cmp	r3, ip
   b66a0:	463a      	mov	r2, r7
   b66a2:	d1f7      	bne.n	b6694 <_ZN7FatFile5mkdirEPS_P7fname_t+0x64>
    dot.name[i] = ' ';
   b66a4:	f04f 3320 	mov.w	r3, #538976288	; 0x20202020
  block = m_vol->clusterFirstBlock(m_firstCluster);
   b66a8:	6a21      	ldr	r1, [r4, #32]
   b66aa:	68a0      	ldr	r0, [r4, #8]
    dot.name[i] = ' ';
   b66ac:	f8cd 3001 	str.w	r3, [sp, #1]
   b66b0:	f8cd 3005 	str.w	r3, [sp, #5]
   b66b4:	f8ad 3009 	strh.w	r3, [sp, #9]
  block = m_vol->clusterFirstBlock(m_firstCluster);
   b66b8:	f000 fd2d 	bl	b7116 <_ZNK9FatVolume17clusterFirstBlockEm>
   b66bc:	4601      	mov	r1, r0
    return m_cache.read(blockNumber, options);
   b66be:	68a0      	ldr	r0, [r4, #8]
   b66c0:	2201      	movs	r2, #1
   b66c2:	3024      	adds	r0, #36	; 0x24
   b66c4:	f000 fd04 	bl	b70d0 <_ZN8FatCache4readEmh>
  if (!pc) {
   b66c8:	4603      	mov	r3, r0
   b66ca:	2800      	cmp	r0, #0
   b66cc:	d0b5      	beq.n	b663a <_ZN7FatFile5mkdirEPS_P7fname_t+0xa>
  memcpy(&pc->dir[0], &dot, sizeof(dot));
   b66ce:	222e      	movs	r2, #46	; 0x2e
   b66d0:	f88d 2000 	strb.w	r2, [sp]
   b66d4:	46ac      	mov	ip, r5
   b66d6:	4607      	mov	r7, r0
   b66d8:	f10d 0e20 	add.w	lr, sp, #32
   b66dc:	4662      	mov	r2, ip
   b66de:	ca03      	ldmia	r2!, {r0, r1}
   b66e0:	4572      	cmp	r2, lr
   b66e2:	6038      	str	r0, [r7, #0]
   b66e4:	6079      	str	r1, [r7, #4]
   b66e6:	4694      	mov	ip, r2
   b66e8:	f107 0708 	add.w	r7, r7, #8
   b66ec:	d1f6      	bne.n	b66dc <_ZN7FatFile5mkdirEPS_P7fname_t+0xac>
  dot.name[1] = '.';
   b66ee:	222e      	movs	r2, #46	; 0x2e
   b66f0:	f88d 2001 	strb.w	r2, [sp, #1]
  dot.firstClusterLow = parent->m_firstCluster & 0XFFFF;
   b66f4:	6a32      	ldr	r2, [r6, #32]
   b66f6:	f8ad 201a 	strh.w	r2, [sp, #26]
  dot.firstClusterHigh = parent->m_firstCluster >> 16;
   b66fa:	0c11      	lsrs	r1, r2, #16
   b66fc:	f8ad 1014 	strh.w	r1, [sp, #20]
  memcpy(&pc->dir[1], &dot, sizeof(dot));
   b6700:	462a      	mov	r2, r5
   b6702:	3320      	adds	r3, #32
   b6704:	ae08      	add	r6, sp, #32
   b6706:	4615      	mov	r5, r2
   b6708:	cd03      	ldmia	r5!, {r0, r1}
   b670a:	42b5      	cmp	r5, r6
   b670c:	6018      	str	r0, [r3, #0]
   b670e:	6059      	str	r1, [r3, #4]
   b6710:	462a      	mov	r2, r5
   b6712:	f103 0308 	add.w	r3, r3, #8
   b6716:	d1f6      	bne.n	b6706 <_ZN7FatFile5mkdirEPS_P7fname_t+0xd6>
  return m_vol->cacheSync();
   b6718:	68a0      	ldr	r0, [r4, #8]
   b671a:	f7ff fcf6 	bl	b610a <_ZN9FatVolume9cacheSyncEv>
   b671e:	e78d      	b.n	b663c <_ZN7FatFile5mkdirEPS_P7fname_t+0xc>

000b6720 <_ZN7FatFile5mkdirEPS_PKcb>:
bool FatFile::mkdir(FatFile* parent, const char* path, bool pFlag) {
   b6720:	b5f0      	push	{r4, r5, r6, r7, lr}
   b6722:	b093      	sub	sp, #76	; 0x4c
   b6724:	461f      	mov	r7, r3
  FatFile() : m_attr(FILE_ATTR_CLOSED), m_error(0) {}
   b6726:	2300      	movs	r3, #0
   b6728:	9309      	str	r3, [sp, #36]	; 0x24
  if (isOpen() || !parent || !parent->isDir()) {
   b672a:	7803      	ldrb	r3, [r0, #0]
bool FatFile::mkdir(FatFile* parent, const char* path, bool pFlag) {
   b672c:	9201      	str	r2, [sp, #4]
   b672e:	4606      	mov	r6, r0
   b6730:	460c      	mov	r4, r1
  if (isOpen() || !parent || !parent->isDir()) {
   b6732:	b113      	cbz	r3, b673a <_ZN7FatFile5mkdirEPS_PKcb+0x1a>
  return false;
   b6734:	2000      	movs	r0, #0
}
   b6736:	b013      	add	sp, #76	; 0x4c
   b6738:	bdf0      	pop	{r4, r5, r6, r7, pc}
  if (isOpen() || !parent || !parent->isDir()) {
   b673a:	2900      	cmp	r1, #0
   b673c:	d0fa      	beq.n	b6734 <_ZN7FatFile5mkdirEPS_PKcb+0x14>
   b673e:	780b      	ldrb	r3, [r1, #0]
   b6740:	f013 0f70 	tst.w	r3, #112	; 0x70
   b6744:	d0f6      	beq.n	b6734 <_ZN7FatFile5mkdirEPS_PKcb+0x14>
  if (isDirSeparator(*path)) {
   b6746:	7813      	ldrb	r3, [r2, #0]
   b6748:	2b2f      	cmp	r3, #47	; 0x2f
   b674a:	d10d      	bne.n	b6768 <_ZN7FatFile5mkdirEPS_PKcb+0x48>
    while (isDirSeparator(*path)) {
   b674c:	9a01      	ldr	r2, [sp, #4]
   b674e:	7813      	ldrb	r3, [r2, #0]
   b6750:	2b2f      	cmp	r3, #47	; 0x2f
   b6752:	d102      	bne.n	b675a <_ZN7FatFile5mkdirEPS_PKcb+0x3a>
      path++;
   b6754:	3201      	adds	r2, #1
   b6756:	9201      	str	r2, [sp, #4]
    while (isDirSeparator(*path)) {
   b6758:	e7f8      	b.n	b674c <_ZN7FatFile5mkdirEPS_PKcb+0x2c>
    return m_attr;
   b675a:	68a1      	ldr	r1, [r4, #8]
   b675c:	a809      	add	r0, sp, #36	; 0x24
   b675e:	f7ff fcbe 	bl	b60de <_ZN7FatFile8openRootEP9FatVolume.part.0>
    if (!tmpDir.openRoot(parent->m_vol)) {
   b6762:	2800      	cmp	r0, #0
   b6764:	d0e6      	beq.n	b6734 <_ZN7FatFile5mkdirEPS_PKcb+0x14>
    parent = &tmpDir;
   b6766:	ac09      	add	r4, sp, #36	; 0x24
    if (!parsePathName(path, &fname, &path)) {
   b6768:	9801      	ldr	r0, [sp, #4]
   b676a:	aa01      	add	r2, sp, #4
   b676c:	a903      	add	r1, sp, #12
   b676e:	f000 f929 	bl	b69c4 <_ZN7FatFile13parsePathNameEPKcP7fname_tPS1_>
   b6772:	2800      	cmp	r0, #0
   b6774:	d0de      	beq.n	b6734 <_ZN7FatFile5mkdirEPS_PKcb+0x14>
    if (!*path) {
   b6776:	9b01      	ldr	r3, [sp, #4]
   b6778:	781b      	ldrb	r3, [r3, #0]
   b677a:	b1e3      	cbz	r3, b67b6 <_ZN7FatFile5mkdirEPS_PKcb+0x96>
    if (!open(parent, &fname, O_RDONLY)) {
   b677c:	2300      	movs	r3, #0
   b677e:	aa03      	add	r2, sp, #12
   b6780:	4621      	mov	r1, r4
   b6782:	4630      	mov	r0, r6
   b6784:	f000 fab2 	bl	b6cec <_ZN7FatFile4openEPS_P7fname_ti>
   b6788:	b158      	cbz	r0, b67a2 <_ZN7FatFile5mkdirEPS_PKcb+0x82>
    tmpDir = *this;
   b678a:	4635      	mov	r5, r6
   b678c:	cd0f      	ldmia	r5!, {r0, r1, r2, r3}
   b678e:	ac09      	add	r4, sp, #36	; 0x24
   b6790:	c40f      	stmia	r4!, {r0, r1, r2, r3}
   b6792:	cd0f      	ldmia	r5!, {r0, r1, r2, r3}
   b6794:	c40f      	stmia	r4!, {r0, r1, r2, r3}
   b6796:	682b      	ldr	r3, [r5, #0]
   b6798:	6023      	str	r3, [r4, #0]
    close();
   b679a:	4630      	mov	r0, r6
   b679c:	f7ff fee2 	bl	b6564 <_ZN7FatFile5closeEv>
  while (1) {
   b67a0:	e7e1      	b.n	b6766 <_ZN7FatFile5mkdirEPS_PKcb+0x46>
      if (!pFlag || !mkdir(parent, &fname)) {
   b67a2:	2f00      	cmp	r7, #0
   b67a4:	d0c6      	beq.n	b6734 <_ZN7FatFile5mkdirEPS_PKcb+0x14>
   b67a6:	aa03      	add	r2, sp, #12
   b67a8:	4621      	mov	r1, r4
   b67aa:	4630      	mov	r0, r6
   b67ac:	f7ff ff40 	bl	b6630 <_ZN7FatFile5mkdirEPS_P7fname_t>
   b67b0:	2800      	cmp	r0, #0
   b67b2:	d1ea      	bne.n	b678a <_ZN7FatFile5mkdirEPS_PKcb+0x6a>
   b67b4:	e7be      	b.n	b6734 <_ZN7FatFile5mkdirEPS_PKcb+0x14>
  return mkdir(parent, &fname);
   b67b6:	aa03      	add	r2, sp, #12
   b67b8:	4621      	mov	r1, r4
   b67ba:	4630      	mov	r0, r6
   b67bc:	f7ff ff38 	bl	b6630 <_ZN7FatFile5mkdirEPS_P7fname_t>
   b67c0:	e7b9      	b.n	b6736 <_ZN7FatFile5mkdirEPS_PKcb+0x16>
	...

000b67c4 <_ZN7FatFile5writeEPKvj>:

fail:
  return false;
}
//------------------------------------------------------------------------------
int FatFile::write(const void* buf, size_t nbyte) {
   b67c4:	e92d 47f0 	stmdb	sp!, {r4, r5, r6, r7, r8, r9, sl, lr}
  uint8_t cacheOption;
  // number of bytes left to write  -  must be before goto statements
  size_t nToWrite = nbyte;
  size_t n;
  // error if not a normal file or is read-only
  if (!isFile() || !(m_flags & F_WRITE)) {
   b67c8:	7803      	ldrb	r3, [r0, #0]
int FatFile::write(const void* buf, size_t nbyte) {
   b67ca:	4689      	mov	r9, r1
  if (!isFile() || !(m_flags & F_WRITE)) {
   b67cc:	0719      	lsls	r1, r3, #28
int FatFile::write(const void* buf, size_t nbyte) {
   b67ce:	4604      	mov	r4, r0
   b67d0:	4617      	mov	r7, r2
  if (!isFile() || !(m_flags & F_WRITE)) {
   b67d2:	d55b      	bpl.n	b688c <_ZN7FatFile5writeEPKvj+0xc8>
   b67d4:	7883      	ldrb	r3, [r0, #2]
   b67d6:	079a      	lsls	r2, r3, #30
   b67d8:	d558      	bpl.n	b688c <_ZN7FatFile5writeEPKvj+0xc8>
    DBG_FAIL_MACRO;
    goto fail;
  }
  // seek to end of file if append flag
  if ((m_flags & F_APPEND)) {
   b67da:	071b      	lsls	r3, r3, #28
   b67dc:	d451      	bmi.n	b6882 <_ZN7FatFile5writeEPKvj+0xbe>
      DBG_FAIL_MACRO;
      goto fail;
    }
  }
  // Don't exceed max fileSize.
  if (nbyte > (0XFFFFFFFF - m_curPosition)) {
   b67de:	6963      	ldr	r3, [r4, #20]
   b67e0:	43db      	mvns	r3, r3
   b67e2:	42bb      	cmp	r3, r7
   b67e4:	d352      	bcc.n	b688c <_ZN7FatFile5writeEPKvj+0xc8>
   b67e6:	46b8      	mov	r8, r7
    uint8_t blockOfCluster = m_vol->blockOfCluster(m_curPosition);
    uint16_t blockOffset = m_curPosition & 0X1FF;
    if (blockOfCluster == 0 && blockOffset == 0) {
      // start of new cluster
      if (m_curCluster != 0) {
        int8_t fg = m_vol->fatGet(m_curCluster, &m_curCluster);
   b67e8:	f104 0a10 	add.w	sl, r4, #16
    uint8_t blockOfCluster = m_vol->blockOfCluster(m_curPosition);
   b67ec:	6966      	ldr	r6, [r4, #20]
  while (nToWrite) {
   b67ee:	f1b8 0f00 	cmp.w	r8, #0
   b67f2:	f000 8091 	beq.w	b6918 <_ZN7FatFile5writeEPKvj+0x154>
    uint8_t blockOfCluster = m_vol->blockOfCluster(m_curPosition);
   b67f6:	68a0      	ldr	r0, [r4, #8]
    return (position >> 9) & m_clusterBlockMask;
   b67f8:	7943      	ldrb	r3, [r0, #5]
    uint16_t blockOffset = m_curPosition & 0X1FF;
   b67fa:	f3c6 0508 	ubfx	r5, r6, #0, #9
    if (blockOfCluster == 0 && blockOffset == 0) {
   b67fe:	ea13 2656 	ands.w	r6, r3, r6, lsr #9
   b6802:	d10e      	bne.n	b6822 <_ZN7FatFile5writeEPKvj+0x5e>
   b6804:	b96d      	cbnz	r5, b6822 <_ZN7FatFile5writeEPKvj+0x5e>
      if (m_curCluster != 0) {
   b6806:	6921      	ldr	r1, [r4, #16]
   b6808:	2900      	cmp	r1, #0
   b680a:	d046      	beq.n	b689a <_ZN7FatFile5writeEPKvj+0xd6>
        int8_t fg = m_vol->fatGet(m_curCluster, &m_curCluster);
   b680c:	4652      	mov	r2, sl
   b680e:	f000 fc88 	bl	b7122 <_ZN9FatVolume6fatGetEmPm>
        if (fg < 0) {
   b6812:	2800      	cmp	r0, #0
   b6814:	db3a      	blt.n	b688c <_ZN7FatFile5writeEPKvj+0xc8>
          DBG_FAIL_MACRO;
          goto fail;
        }
        if (fg == 0) {
   b6816:	d104      	bne.n	b6822 <_ZN7FatFile5writeEPKvj+0x5e>
          // add cluster if at end of chain
          if (!addCluster()) {
   b6818:	4620      	mov	r0, r4
   b681a:	f7ff fc83 	bl	b6124 <_ZN7FatFile10addClusterEv>
   b681e:	2800      	cmp	r0, #0
   b6820:	d034      	beq.n	b688c <_ZN7FatFile5writeEPKvj+0xc8>
          m_curCluster = m_firstCluster;
        }
      }
    }
    // block for data write
    uint32_t block = m_vol->clusterFirstBlock(m_curCluster) + blockOfCluster;
   b6822:	6921      	ldr	r1, [r4, #16]
   b6824:	68a0      	ldr	r0, [r4, #8]
   b6826:	f000 fc76 	bl	b7116 <_ZNK9FatVolume17clusterFirstBlockEm>
   b682a:	1831      	adds	r1, r6, r0

    if (blockOffset != 0 || nToWrite < 512) {
   b682c:	68a0      	ldr	r0, [r4, #8]
   b682e:	b915      	cbnz	r5, b6836 <_ZN7FatFile5writeEPKvj+0x72>
   b6830:	f5b8 7f00 	cmp.w	r8, #512	; 0x200
   b6834:	d23f      	bcs.n	b68b6 <_ZN7FatFile5writeEPKvj+0xf2>
      // partial block - must use cache
      // max space in block
      n = 512 - blockOffset;
   b6836:	f5c5 7600 	rsb	r6, r5, #512	; 0x200
      // lesser of space and amount to write
      if (n > nToWrite) {
   b683a:	4546      	cmp	r6, r8
   b683c:	bf28      	it	cs
   b683e:	4646      	movcs	r6, r8
        n = nToWrite;
      }

      if (blockOffset == 0 && m_curPosition >= m_fileSize) {
   b6840:	2d00      	cmp	r5, #0
   b6842:	d136      	bne.n	b68b2 <_ZN7FatFile5writeEPKvj+0xee>
   b6844:	6962      	ldr	r2, [r4, #20]
   b6846:	69e3      	ldr	r3, [r4, #28]
        // start of new block don't need to read into cache
        cacheOption = FatCache::CACHE_RESERVE_FOR_WRITE;
   b6848:	429a      	cmp	r2, r3
   b684a:	bf34      	ite	cc
   b684c:	2201      	movcc	r2, #1
   b684e:	2205      	movcs	r2, #5
    return m_cache.read(blockNumber, options);
   b6850:	3024      	adds	r0, #36	; 0x24
   b6852:	f000 fc3d 	bl	b70d0 <_ZN8FatCache4readEmh>
      } else {
        // rewrite part of block
        cacheOption = FatCache::CACHE_FOR_WRITE;
      }
      pc = m_vol->cacheFetchData(block, cacheOption);
      if (!pc) {
   b6856:	b1c8      	cbz	r0, b688c <_ZN7FatFile5writeEPKvj+0xc8>
        DBG_FAIL_MACRO;
        goto fail;
      }
      uint8_t* dst = pc->data + blockOffset;
      memcpy(dst, src, n);
   b6858:	4428      	add	r0, r5
   b685a:	4632      	mov	r2, r6
   b685c:	4649      	mov	r1, r9
      if (512 == (n + blockOffset)) {
   b685e:	4435      	add	r5, r6
      memcpy(dst, src, n);
   b6860:	f005 fdc4 	bl	bc3ec <memcpy>
      if (512 == (n + blockOffset)) {
   b6864:	f5b5 7f00 	cmp.w	r5, #512	; 0x200
   b6868:	d104      	bne.n	b6874 <_ZN7FatFile5writeEPKvj+0xb0>
    return m_cache.sync();
   b686a:	68a0      	ldr	r0, [r4, #8]
   b686c:	3024      	adds	r0, #36	; 0x24
   b686e:	f000 fc07 	bl	b7080 <_ZN8FatCache4syncEv>
      if (m_vol->cacheBlockNumber() <= block
          && block < (m_vol->cacheBlockNumber() + nb)) {
        // invalidate cache if block is in cache
        m_vol->cacheInvalidate();
      }
      if (!m_vol->writeBlocks(block, src, nb)) {
   b6872:	b158      	cbz	r0, b688c <_ZN7FatFile5writeEPKvj+0xc8>
      if (!m_vol->writeBlock(block, src)) {
        DBG_FAIL_MACRO;
        goto fail;
      }
    }
    m_curPosition += n;
   b6874:	6963      	ldr	r3, [r4, #20]
   b6876:	4433      	add	r3, r6
   b6878:	6163      	str	r3, [r4, #20]
    src += n;
   b687a:	44b1      	add	r9, r6
    nToWrite -= n;
   b687c:	eba8 0806 	sub.w	r8, r8, r6
  while (nToWrite) {
   b6880:	e7b4      	b.n	b67ec <_ZN7FatFile5writeEPKvj+0x28>
    if (!seekSet(m_fileSize)) {
   b6882:	69c1      	ldr	r1, [r0, #28]
   b6884:	f7ff fd8b 	bl	b639e <_ZN7FatFile7seekSetEm>
   b6888:	2800      	cmp	r0, #0
   b688a:	d1a8      	bne.n	b67de <_ZN7FatFile5writeEPKvj+0x1a>
  }
  return nbyte;

fail:
  // return for write error
  m_error |= WRITE_ERROR;
   b688c:	7863      	ldrb	r3, [r4, #1]
   b688e:	f043 0301 	orr.w	r3, r3, #1
   b6892:	7063      	strb	r3, [r4, #1]
  return -1;
   b6894:	f04f 30ff 	mov.w	r0, #4294967295	; 0xffffffff
   b6898:	e050      	b.n	b693c <_ZN7FatFile5writeEPKvj+0x178>
        if (m_firstCluster == 0) {
   b689a:	6a23      	ldr	r3, [r4, #32]
   b689c:	b93b      	cbnz	r3, b68ae <_ZN7FatFile5writeEPKvj+0xea>
          if (!addCluster()) {
   b689e:	4620      	mov	r0, r4
   b68a0:	f7ff fc40 	bl	b6124 <_ZN7FatFile10addClusterEv>
   b68a4:	2800      	cmp	r0, #0
   b68a6:	d0f1      	beq.n	b688c <_ZN7FatFile5writeEPKvj+0xc8>
          m_firstCluster = m_curCluster;
   b68a8:	6923      	ldr	r3, [r4, #16]
   b68aa:	6223      	str	r3, [r4, #32]
   b68ac:	e7b9      	b.n	b6822 <_ZN7FatFile5writeEPKvj+0x5e>
          m_curCluster = m_firstCluster;
   b68ae:	6123      	str	r3, [r4, #16]
   b68b0:	e7b7      	b.n	b6822 <_ZN7FatFile5writeEPKvj+0x5e>
        cacheOption = FatCache::CACHE_FOR_WRITE;
   b68b2:	2201      	movs	r2, #1
   b68b4:	e7cc      	b.n	b6850 <_ZN7FatFile5writeEPKvj+0x8c>
    } else if (nToWrite >= 1024) {
   b68b6:	f5b8 6f80 	cmp.w	r8, #1024	; 0x400
    return m_lbn;
   b68ba:	6ac2      	ldr	r2, [r0, #44]	; 0x2c
   b68bc:	d31b      	bcc.n	b68f6 <_ZN7FatFile5writeEPKvj+0x132>
      uint8_t maxBlocks = m_vol->blocksPerCluster() - blockOfCluster;
   b68be:	f890 c004 	ldrb.w	ip, [r0, #4]
   b68c2:	ebac 0606 	sub.w	r6, ip, r6
      if (nb > maxBlocks) {
   b68c6:	b2f3      	uxtb	r3, r6
      size_t nb = nToWrite >> 9;
   b68c8:	ea4f 2e58 	mov.w	lr, r8, lsr #9
      if (nb > maxBlocks) {
   b68cc:	4573      	cmp	r3, lr
   b68ce:	bf28      	it	cs
   b68d0:	4673      	movcs	r3, lr
          && block < (m_vol->cacheBlockNumber() + nb)) {
   b68d2:	4291      	cmp	r1, r2
      n = 512*nb;
   b68d4:	ea4f 2643 	mov.w	r6, r3, lsl #9
          && block < (m_vol->cacheBlockNumber() + nb)) {
   b68d8:	d307      	bcc.n	b68ea <_ZN7FatFile5writeEPKvj+0x126>
   b68da:	441a      	add	r2, r3
   b68dc:	428a      	cmp	r2, r1
    m_lbn = 0XFFFFFFFF;
   b68de:	bf82      	ittt	hi
   b68e0:	f04f 32ff 	movhi.w	r2, #4294967295	; 0xffffffff
    m_status = 0;
   b68e4:	f880 5024 	strbhi.w	r5, [r0, #36]	; 0x24
    m_lbn = 0XFFFFFFFF;
   b68e8:	62c2      	strhi	r2, [r0, #44]	; 0x2c
    return m_blockDev->writeBlocks(block, src, nb);
   b68ea:	68a5      	ldr	r5, [r4, #8]
   b68ec:	464a      	mov	r2, r9
   b68ee:	6828      	ldr	r0, [r5, #0]
   b68f0:	f000 ffd3 	bl	b789a <_ZN9SdSpiCard11writeBlocksEmPKhj>
   b68f4:	e7bd      	b.n	b6872 <_ZN7FatFile5writeEPKvj+0xae>
      if (m_vol->cacheBlockNumber() == block) {
   b68f6:	4291      	cmp	r1, r2
    m_lbn = 0XFFFFFFFF;
   b68f8:	bf02      	ittt	eq
   b68fa:	f04f 33ff 	moveq.w	r3, #4294967295	; 0xffffffff
    m_status = 0;
   b68fe:	f880 5024 	strbeq.w	r5, [r0, #36]	; 0x24
    m_lbn = 0XFFFFFFFF;
   b6902:	62c3      	streq	r3, [r0, #44]	; 0x2c
    return m_blockDev->writeBlock(block, src);
   b6904:	68a3      	ldr	r3, [r4, #8]
   b6906:	464a      	mov	r2, r9
   b6908:	6818      	ldr	r0, [r3, #0]
   b690a:	f000 ff50 	bl	b77ae <_ZN9SdSpiCard10writeBlockEmPKh>
      if (!m_vol->writeBlock(block, src)) {
   b690e:	2800      	cmp	r0, #0
   b6910:	d0bc      	beq.n	b688c <_ZN7FatFile5writeEPKvj+0xc8>
      n = 512;
   b6912:	f44f 7600 	mov.w	r6, #512	; 0x200
   b6916:	e7ad      	b.n	b6874 <_ZN7FatFile5writeEPKvj+0xb0>
  if (m_curPosition > m_fileSize) {
   b6918:	69e2      	ldr	r2, [r4, #28]
    m_flags |= F_FILE_DIR_DIRTY;
   b691a:	78a3      	ldrb	r3, [r4, #2]
  if (m_curPosition > m_fileSize) {
   b691c:	42b2      	cmp	r2, r6
   b691e:	d204      	bcs.n	b692a <_ZN7FatFile5writeEPKvj+0x166>
    m_fileSize = m_curPosition;
   b6920:	61e6      	str	r6, [r4, #28]
    m_flags |= F_FILE_DIR_DIRTY;
   b6922:	f043 0304 	orr.w	r3, r3, #4
   b6926:	70a3      	strb	r3, [r4, #2]
   b6928:	e003      	b.n	b6932 <_ZN7FatFile5writeEPKvj+0x16e>
  } else if (m_dateTime) {
   b692a:	4a08      	ldr	r2, [pc, #32]	; (b694c <_ZN7FatFile5writeEPKvj+0x188>)
   b692c:	6812      	ldr	r2, [r2, #0]
   b692e:	2a00      	cmp	r2, #0
   b6930:	d1f7      	bne.n	b6922 <_ZN7FatFile5writeEPKvj+0x15e>
  if (m_flags & F_SYNC) {
   b6932:	f994 3002 	ldrsb.w	r3, [r4, #2]
   b6936:	2b00      	cmp	r3, #0
   b6938:	db02      	blt.n	b6940 <_ZN7FatFile5writeEPKvj+0x17c>
  return nbyte;
   b693a:	4638      	mov	r0, r7
}
   b693c:	e8bd 87f0 	ldmia.w	sp!, {r4, r5, r6, r7, r8, r9, sl, pc}
    if (!sync()) {
   b6940:	4620      	mov	r0, r4
   b6942:	f7ff fdd9 	bl	b64f8 <_ZN7FatFile4syncEv>
   b6946:	2800      	cmp	r0, #0
   b6948:	d1f7      	bne.n	b693a <_ZN7FatFile5writeEPKvj+0x176>
   b694a:	e79f      	b.n	b688c <_ZN7FatFile5writeEPKvj+0xc8>
   b694c:	2003e67c 	.word	0x2003e67c

000b6950 <_ZL10lfnGetCharP18longDirectoryEntryh>:
 * \param[in] ldir Pointer to long file name directory entry.
 * \param[in] i Index of character.
 * \return The 16-bit character.
 */
static uint16_t lfnGetChar(ldir_t *ldir, uint8_t i) {
  if (i < LDIR_NAME1_DIM) {
   b6950:	2904      	cmp	r1, #4
   b6952:	d804      	bhi.n	b695e <_ZL10lfnGetCharP18longDirectoryEntryh+0xe>
    return ldir->name1[i];
   b6954:	eb00 0041 	add.w	r0, r0, r1, lsl #1
   b6958:	f8b0 0001 	ldrh.w	r0, [r0, #1]
   b695c:	4770      	bx	lr
  } else if (i < (LDIR_NAME1_DIM + LDIR_NAME2_DIM)) {
   b695e:	290a      	cmp	r1, #10
    return ldir->name2[i - LDIR_NAME1_DIM];
   b6960:	bf9b      	ittet	ls
   b6962:	f101 31ff 	addls.w	r1, r1, #4294967295	; 0xffffffff
   b6966:	eb00 0041 	addls.w	r0, r0, r1, lsl #1
  } else if (i < (LDIR_NAME1_DIM + LDIR_NAME2_DIM + LDIR_NAME2_DIM)) {
    return ldir->name3[i - LDIR_NAME1_DIM - LDIR_NAME2_DIM];
   b696a:	3101      	addhi	r1, #1
    return ldir->name2[i - LDIR_NAME1_DIM];
   b696c:	88c0      	ldrhls	r0, [r0, #6]
    return ldir->name3[i - LDIR_NAME1_DIM - LDIR_NAME2_DIM];
   b696e:	bf84      	itt	hi
   b6970:	eb00 0041 	addhi.w	r0, r0, r1, lsl #1
   b6974:	8880      	ldrhhi	r0, [r0, #4]
  }
  return 0;
}
   b6976:	4770      	bx	lr

000b6978 <_ZN7FatFile11lfnChecksumEPh>:
  for (uint8_t i = 0; i < 11; i++) {
   b6978:	1e41      	subs	r1, r0, #1
   b697a:	f100 030a 	add.w	r3, r0, #10
  uint8_t sum = 0;
   b697e:	2000      	movs	r0, #0
    sum = (((sum & 1) << 7) | ((sum & 0xfe) >> 1)) + name[i];
   b6980:	0842      	lsrs	r2, r0, #1
   b6982:	ea42 10c0 	orr.w	r0, r2, r0, lsl #7
   b6986:	f811 2f01 	ldrb.w	r2, [r1, #1]!
   b698a:	fa52 f080 	uxtab	r0, r2, r0
  for (uint8_t i = 0; i < 11; i++) {
   b698e:	428b      	cmp	r3, r1
    sum = (((sum & 1) << 7) | ((sum & 0xfe) >> 1)) + name[i];
   b6990:	b2c0      	uxtb	r0, r0
  for (uint8_t i = 0; i < 11; i++) {
   b6992:	d1f5      	bne.n	b6980 <_ZN7FatFile11lfnChecksumEPh+0x8>
}
   b6994:	4770      	bx	lr

000b6996 <_ZN7FatFile11openClusterEPS_>:
fail:
  name[0] = 0;
  return false;
}
//------------------------------------------------------------------------------
bool FatFile::openCluster(FatFile* file) {
   b6996:	b538      	push	{r3, r4, r5, lr}
  if (file->m_dirCluster == 0) {
   b6998:	68cb      	ldr	r3, [r1, #12]
bool FatFile::openCluster(FatFile* file) {
   b699a:	4604      	mov	r4, r0
   b699c:	460d      	mov	r5, r1
  if (file->m_dirCluster == 0) {
   b699e:	b923      	cbnz	r3, b69aa <_ZN7FatFile11openClusterEPS_+0x14>
  m_attr = FILE_ATTR_SUBDIR;
  m_flags = F_READ;
  m_vol = file->m_vol;
  m_firstCluster = file->m_dirCluster;
  return true;
}
   b69a0:	e8bd 4038 	ldmia.w	sp!, {r3, r4, r5, lr}
    return openRoot(file->m_vol);
   b69a4:	6889      	ldr	r1, [r1, #8]
   b69a6:	f7ff bc14 	b.w	b61d2 <_ZN7FatFile8openRootEP9FatVolume>
  memset(this, 0, sizeof(FatFile));
   b69aa:	2224      	movs	r2, #36	; 0x24
   b69ac:	2100      	movs	r1, #0
   b69ae:	f005 fd45 	bl	bc43c <memset>
  m_attr = FILE_ATTR_SUBDIR;
   b69b2:	2310      	movs	r3, #16
  m_flags = F_READ;
   b69b4:	2001      	movs	r0, #1
  m_attr = FILE_ATTR_SUBDIR;
   b69b6:	7023      	strb	r3, [r4, #0]
  m_flags = F_READ;
   b69b8:	70a0      	strb	r0, [r4, #2]
  m_vol = file->m_vol;
   b69ba:	68ab      	ldr	r3, [r5, #8]
   b69bc:	60a3      	str	r3, [r4, #8]
  m_firstCluster = file->m_dirCluster;
   b69be:	68eb      	ldr	r3, [r5, #12]
   b69c0:	6223      	str	r3, [r4, #32]
}
   b69c2:	bd38      	pop	{r3, r4, r5, pc}

000b69c4 <_ZN7FatFile13parsePathNameEPKcP7fname_tPS1_>:
//------------------------------------------------------------------------------
bool FatFile::parsePathName(const char* path,
                            fname_t* fname, const char** ptr) {
   b69c4:	e92d 47f0 	stmdb	sp!, {r4, r5, r6, r7, r8, r9, sl, lr}
   b69c8:	4606      	mov	r6, r0
  int len = 0;
  int si;
  int dot;

  // Skip leading spaces.
  while (*path == ' ') {
   b69ca:	f810 3b01 	ldrb.w	r3, [r0], #1
   b69ce:	2b20      	cmp	r3, #32
   b69d0:	d0fa      	beq.n	b69c8 <_ZN7FatFile13parsePathNameEPKcP7fname_tPS1_+0x4>
  if (c == '/' || c == '\\' || c == '"' || c == '*' ||
   b69d2:	4d6a      	ldr	r5, [pc, #424]	; (b6b7c <_ZN7FatFile13parsePathNameEPKcP7fname_tPS1_+0x1b8>)
    path++;
  }
  fname->lfn = path;
   b69d4:	608e      	str	r6, [r1, #8]

  for (len = 0; ; len++) {
   b69d6:	2400      	movs	r4, #0
    c = path[len];
   b69d8:	5d33      	ldrb	r3, [r6, r4]
    if (c == 0 || isDirSeparator(c)) {
   b69da:	b1c3      	cbz	r3, b6a0e <_ZN7FatFile13parsePathNameEPKcP7fname_tPS1_+0x4a>
   b69dc:	2b2f      	cmp	r3, #47	; 0x2f
   b69de:	d016      	beq.n	b6a0e <_ZN7FatFile13parsePathNameEPKcP7fname_tPS1_+0x4a>
  if (c == '/' || c == '\\' || c == '"' || c == '*' ||
   b69e0:	2b5c      	cmp	r3, #92	; 0x5c
   b69e2:	d102      	bne.n	b69ea <_ZN7FatFile13parsePathNameEPKcP7fname_tPS1_+0x26>
      break;
    }
    if (!lfnLegalChar(c)) {
      return false;
   b69e4:	2000      	movs	r0, #0
    fname->flags = FNAME_FLAG_LOST_CHARS;
    fname->sfn[fname->seqPos] = '~';
    fname->sfn[fname->seqPos + 1] = '1';
  }
  return true;
}
   b69e6:	e8bd 87f0 	ldmia.w	sp!, {r4, r5, r6, r7, r8, r9, sl, pc}
  if (c == '/' || c == '\\' || c == '"' || c == '*' ||
   b69ea:	f1a3 0022 	sub.w	r0, r3, #34	; 0x22
   b69ee:	b2c0      	uxtb	r0, r0
   b69f0:	281d      	cmp	r0, #29
   b69f2:	d803      	bhi.n	b69fc <_ZN7FatFile13parsePathNameEPKcP7fname_tPS1_+0x38>
   b69f4:	fa25 f000 	lsr.w	r0, r5, r0
   b69f8:	07c0      	lsls	r0, r0, #31
   b69fa:	d4f3      	bmi.n	b69e4 <_ZN7FatFile13parsePathNameEPKcP7fname_tPS1_+0x20>
      c == ':' || c == '<' || c == '>' || c == '?' || c == '|') {
   b69fc:	f003 00bf 	and.w	r0, r3, #191	; 0xbf
   b6a00:	283c      	cmp	r0, #60	; 0x3c
   b6a02:	d0ef      	beq.n	b69e4 <_ZN7FatFile13parsePathNameEPKcP7fname_tPS1_+0x20>
    if (!lfnLegalChar(c)) {
   b6a04:	3b20      	subs	r3, #32
   b6a06:	2b5e      	cmp	r3, #94	; 0x5e
   b6a08:	d8ec      	bhi.n	b69e4 <_ZN7FatFile13parsePathNameEPKcP7fname_tPS1_+0x20>
  for (len = 0; ; len++) {
   b6a0a:	3401      	adds	r4, #1
    c = path[len];
   b6a0c:	e7e4      	b.n	b69d8 <_ZN7FatFile13parsePathNameEPKcP7fname_tPS1_+0x14>
   b6a0e:	1933      	adds	r3, r6, r4
  for (len = 0; ; len++) {
   b6a10:	4618      	mov	r0, r3
  for (end = len; path[end] ==  ' ' || isDirSeparator(path[end]); end++) {}
   b6a12:	4607      	mov	r7, r0
   b6a14:	f810 5b01 	ldrb.w	r5, [r0], #1
   b6a18:	2d20      	cmp	r5, #32
   b6a1a:	d0fa      	beq.n	b6a12 <_ZN7FatFile13parsePathNameEPKcP7fname_tPS1_+0x4e>
   b6a1c:	2d2f      	cmp	r5, #47	; 0x2f
   b6a1e:	d0f8      	beq.n	b6a12 <_ZN7FatFile13parsePathNameEPKcP7fname_tPS1_+0x4e>
  *ptr = &path[end];
   b6a20:	6017      	str	r7, [r2, #0]
  while (len) {
   b6a22:	b14c      	cbz	r4, b6a38 <_ZN7FatFile13parsePathNameEPKcP7fname_tPS1_+0x74>
    c = path[len - 1];
   b6a24:	f813 2d01 	ldrb.w	r2, [r3, #-1]!
    if (c != '.' && c != ' ') {
   b6a28:	2a2e      	cmp	r2, #46	; 0x2e
   b6a2a:	d001      	beq.n	b6a30 <_ZN7FatFile13parsePathNameEPKcP7fname_tPS1_+0x6c>
   b6a2c:	2a20      	cmp	r2, #32
   b6a2e:	d101      	bne.n	b6a34 <_ZN7FatFile13parsePathNameEPKcP7fname_tPS1_+0x70>
    len--;
   b6a30:	3c01      	subs	r4, #1
  while (len) {
   b6a32:	e7f6      	b.n	b6a22 <_ZN7FatFile13parsePathNameEPKcP7fname_tPS1_+0x5e>
  if (len > 255) {
   b6a34:	2cff      	cmp	r4, #255	; 0xff
   b6a36:	dcd5      	bgt.n	b69e4 <_ZN7FatFile13parsePathNameEPKcP7fname_tPS1_+0x20>
    fname->sfn[k] = ' ';
   b6a38:	f04f 3320 	mov.w	r3, #538976288	; 0x20202020
   b6a3c:	f8c1 3011 	str.w	r3, [r1, #17]
  fname->len = len;
   b6a40:	604c      	str	r4, [r1, #4]
    fname->sfn[k] = ' ';
   b6a42:	f8c1 300d 	str.w	r3, [r1, #13]
   b6a46:	614b      	str	r3, [r1, #20]
  for (si = 0; path[si] == '.' || path[si] == ' '; si++) {}
   b6a48:	f04f 0800 	mov.w	r8, #0
   b6a4c:	f816 3008 	ldrb.w	r3, [r6, r8]
   b6a50:	2b2e      	cmp	r3, #46	; 0x2e
   b6a52:	d001      	beq.n	b6a58 <_ZN7FatFile13parsePathNameEPKcP7fname_tPS1_+0x94>
   b6a54:	2b20      	cmp	r3, #32
   b6a56:	d102      	bne.n	b6a5e <_ZN7FatFile13parsePathNameEPKcP7fname_tPS1_+0x9a>
   b6a58:	f108 0801 	add.w	r8, r8, #1
   b6a5c:	e7f6      	b.n	b6a4c <_ZN7FatFile13parsePathNameEPKcP7fname_tPS1_+0x88>
  is83 = !si;
   b6a5e:	fab8 f088 	clz	r0, r8
   b6a62:	0940      	lsrs	r0, r0, #5
  for (dot = len - 1; dot >= 0 && path[dot] != '.'; dot--) {}
   b6a64:	1e65      	subs	r5, r4, #1
   b6a66:	1c6b      	adds	r3, r5, #1
   b6a68:	d002      	beq.n	b6a70 <_ZN7FatFile13parsePathNameEPKcP7fname_tPS1_+0xac>
   b6a6a:	5d73      	ldrb	r3, [r6, r5]
   b6a6c:	2b2e      	cmp	r3, #46	; 0x2e
   b6a6e:	d114      	bne.n	b6a9a <_ZN7FatFile13parsePathNameEPKcP7fname_tPS1_+0xd6>
  for (si = 0; path[si] == '.' || path[si] == ' '; si++) {}
   b6a70:	f04f 0900 	mov.w	r9, #0
   b6a74:	2707      	movs	r7, #7
   b6a76:	464a      	mov	r2, r9
   b6a78:	46ca      	mov	sl, r9
   b6a7a:	f04f 0e08 	mov.w	lr, #8
  for (; si < len; si++) {
   b6a7e:	45a0      	cmp	r8, r4
   b6a80:	da68      	bge.n	b6b54 <_ZN7FatFile13parsePathNameEPKcP7fname_tPS1_+0x190>
    c = path[si];
   b6a82:	f816 3008 	ldrb.w	r3, [r6, r8]
    if (c == ' ' || (c == '.' && dot != si)) {
   b6a86:	2b20      	cmp	r3, #32
   b6a88:	d003      	beq.n	b6a92 <_ZN7FatFile13parsePathNameEPKcP7fname_tPS1_+0xce>
   b6a8a:	2b2e      	cmp	r3, #46	; 0x2e
   b6a8c:	d107      	bne.n	b6a9e <_ZN7FatFile13parsePathNameEPKcP7fname_tPS1_+0xda>
   b6a8e:	45a8      	cmp	r8, r5
   b6a90:	d012      	beq.n	b6ab8 <_ZN7FatFile13parsePathNameEPKcP7fname_tPS1_+0xf4>
      is83 = false;
   b6a92:	2000      	movs	r0, #0
  for (; si < len; si++) {
   b6a94:	f108 0801 	add.w	r8, r8, #1
   b6a98:	e7f1      	b.n	b6a7e <_ZN7FatFile13parsePathNameEPKcP7fname_tPS1_+0xba>
  for (dot = len - 1; dot >= 0 && path[dot] != '.'; dot--) {}
   b6a9a:	3d01      	subs	r5, #1
   b6a9c:	e7e3      	b.n	b6a66 <_ZN7FatFile13parsePathNameEPKcP7fname_tPS1_+0xa2>
    if (c == '"' || c == '|') {
   b6a9e:	2b22      	cmp	r3, #34	; 0x22
   b6aa0:	d008      	beq.n	b6ab4 <_ZN7FatFile13parsePathNameEPKcP7fname_tPS1_+0xf0>
   b6aa2:	2b7c      	cmp	r3, #124	; 0x7c
   b6aa4:	d006      	beq.n	b6ab4 <_ZN7FatFile13parsePathNameEPKcP7fname_tPS1_+0xf0>
    if (0X2A <= c && c <= 0X2F && c != 0X2D) {
   b6aa6:	f1a3 0c2a 	sub.w	ip, r3, #42	; 0x2a
   b6aaa:	f1bc 0f05 	cmp.w	ip, #5
   b6aae:	d80a      	bhi.n	b6ac6 <_ZN7FatFile13parsePathNameEPKcP7fname_tPS1_+0x102>
   b6ab0:	2b2d      	cmp	r3, #45	; 0x2d
   b6ab2:	d012      	beq.n	b6ada <_ZN7FatFile13parsePathNameEPKcP7fname_tPS1_+0x116>
    if (!legal83Char(c) && si != dot) {
   b6ab4:	45a8      	cmp	r8, r5
   b6ab6:	d15b      	bne.n	b6b70 <_ZN7FatFile13parsePathNameEPKcP7fname_tPS1_+0x1ac>
      if (in == 10) {
   b6ab8:	2f0a      	cmp	r7, #10
   b6aba:	d04a      	beq.n	b6b52 <_ZN7FatFile13parsePathNameEPKcP7fname_tPS1_+0x18e>
      in = 10;  // Max index for full 8.3 name.
   b6abc:	270a      	movs	r7, #10
      i = 8;    // Place for extension.
   b6abe:	2208      	movs	r2, #8
      bit = DIR_NT_LC_EXT;  // bit for extension.
   b6ac0:	f04f 0e10 	mov.w	lr, #16
   b6ac4:	e7e6      	b.n	b6a94 <_ZN7FatFile13parsePathNameEPKcP7fname_tPS1_+0xd0>
    if (0X3A <= c && c <= 0X3F) {
   b6ac6:	f1a3 0c3a 	sub.w	ip, r3, #58	; 0x3a
   b6aca:	f1bc 0f05 	cmp.w	ip, #5
   b6ace:	d9f1      	bls.n	b6ab4 <_ZN7FatFile13parsePathNameEPKcP7fname_tPS1_+0xf0>
    if (0X5B <= c && c <= 0X5D) {
   b6ad0:	f1a3 0c5b 	sub.w	ip, r3, #91	; 0x5b
   b6ad4:	f1bc 0f02 	cmp.w	ip, #2
   b6ad8:	d9ec      	bls.n	b6ab4 <_ZN7FatFile13parsePathNameEPKcP7fname_tPS1_+0xf0>
    if (!legal83Char(c) && si != dot) {
   b6ada:	f1a3 0c21 	sub.w	ip, r3, #33	; 0x21
   b6ade:	f1bc 0f5d 	cmp.w	ip, #93	; 0x5d
   b6ae2:	d8e7      	bhi.n	b6ab4 <_ZN7FatFile13parsePathNameEPKcP7fname_tPS1_+0xf0>
    if (si == dot || i > in) {
   b6ae4:	45a8      	cmp	r8, r5
   b6ae6:	d0e7      	beq.n	b6ab8 <_ZN7FatFile13parsePathNameEPKcP7fname_tPS1_+0xf4>
   b6ae8:	42ba      	cmp	r2, r7
   b6aea:	d830      	bhi.n	b6b4e <_ZN7FatFile13parsePathNameEPKcP7fname_tPS1_+0x18a>
      if ('a' <= c && c <= 'z') {
   b6aec:	f1a3 0c61 	sub.w	ip, r3, #97	; 0x61
   b6af0:	f1bc 0f19 	cmp.w	ip, #25
   b6af4:	d81a      	bhi.n	b6b2c <_ZN7FatFile13parsePathNameEPKcP7fname_tPS1_+0x168>
        c += 'A' - 'a';
   b6af6:	3b20      	subs	r3, #32
        lc |= bit;
   b6af8:	ea4e 0909 	orr.w	r9, lr, r9
        c += 'A' - 'a';
   b6afc:	b2db      	uxtb	r3, r3
        lc |= bit;
   b6afe:	fa5f f989 	uxtb.w	r9, r9
      fname->sfn[i++] = c;
   b6b02:	f102 0c01 	add.w	ip, r2, #1
   b6b06:	fa5f fc8c 	uxtb.w	ip, ip
   b6b0a:	440a      	add	r2, r1
      if (i < 7) {
   b6b0c:	f1bc 0f06 	cmp.w	ip, #6
      fname->sfn[i++] = c;
   b6b10:	7353      	strb	r3, [r2, #13]
      if (i < 7) {
   b6b12:	d801      	bhi.n	b6b18 <_ZN7FatFile13parsePathNameEPKcP7fname_tPS1_+0x154>
        fname->seqPos = i;
   b6b14:	f881 c00c 	strb.w	ip, [r1, #12]
   b6b18:	4662      	mov	r2, ip
   b6b1a:	e7bb      	b.n	b6a94 <_ZN7FatFile13parsePathNameEPKcP7fname_tPS1_+0xd0>
      if (si > dot) {
   b6b1c:	45a8      	cmp	r8, r5
   b6b1e:	dc18      	bgt.n	b6b52 <_ZN7FatFile13parsePathNameEPKcP7fname_tPS1_+0x18e>
   b6b20:	46a8      	mov	r8, r5
      in = 10;  // Max index for full 8.3 name.
   b6b22:	270a      	movs	r7, #10
      i = 8;    // Place for extension.
   b6b24:	2208      	movs	r2, #8
      bit = DIR_NT_LC_EXT;  // bit for extension.
   b6b26:	f04f 0e10 	mov.w	lr, #16
   b6b2a:	e7b2      	b.n	b6a92 <_ZN7FatFile13parsePathNameEPKcP7fname_tPS1_+0xce>
      } else if ('A' <= c && c <= 'Z') {
   b6b2c:	f1a3 0c41 	sub.w	ip, r3, #65	; 0x41
   b6b30:	f1bc 0f19 	cmp.w	ip, #25
        uc |= bit;
   b6b34:	bf98      	it	ls
   b6b36:	ea4e 0a0a 	orrls.w	sl, lr, sl
   b6b3a:	e7e2      	b.n	b6b02 <_ZN7FatFile13parsePathNameEPKcP7fname_tPS1_+0x13e>
    fname->sfn[fname->seqPos] = '~';
   b6b3c:	7b0b      	ldrb	r3, [r1, #12]
    fname->flags = FNAME_FLAG_LOST_CHARS;
   b6b3e:	2001      	movs	r0, #1
   b6b40:	7008      	strb	r0, [r1, #0]
    fname->sfn[fname->seqPos] = '~';
   b6b42:	4419      	add	r1, r3
   b6b44:	237e      	movs	r3, #126	; 0x7e
   b6b46:	734b      	strb	r3, [r1, #13]
    fname->sfn[fname->seqPos + 1] = '1';
   b6b48:	2331      	movs	r3, #49	; 0x31
   b6b4a:	738b      	strb	r3, [r1, #14]
   b6b4c:	e74b      	b.n	b69e6 <_ZN7FatFile13parsePathNameEPKcP7fname_tPS1_+0x22>
      if (in == 10) {
   b6b4e:	2f0a      	cmp	r7, #10
   b6b50:	d1e4      	bne.n	b6b1c <_ZN7FatFile13parsePathNameEPKcP7fname_tPS1_+0x158>
        is83 = false;
   b6b52:	2000      	movs	r0, #0
  if (fname->sfn[0] == ' ') {
   b6b54:	7b4b      	ldrb	r3, [r1, #13]
   b6b56:	2b20      	cmp	r3, #32
   b6b58:	f43f af44 	beq.w	b69e4 <_ZN7FatFile13parsePathNameEPKcP7fname_tPS1_+0x20>
  if (is83) {
   b6b5c:	2800      	cmp	r0, #0
   b6b5e:	d0ed      	beq.n	b6b3c <_ZN7FatFile13parsePathNameEPKcP7fname_tPS1_+0x178>
    fname->flags = lc & uc ? FNAME_FLAG_MIXED_CASE : lc;
   b6b60:	ea1a 0f09 	tst.w	sl, r9
   b6b64:	bf18      	it	ne
   b6b66:	f04f 0902 	movne.w	r9, #2
   b6b6a:	f881 9000 	strb.w	r9, [r1]
   b6b6e:	e73a      	b.n	b69e6 <_ZN7FatFile13parsePathNameEPKcP7fname_tPS1_+0x22>
    if (si == dot || i > in) {
   b6b70:	42ba      	cmp	r2, r7
   b6b72:	d8ec      	bhi.n	b6b4e <_ZN7FatFile13parsePathNameEPKcP7fname_tPS1_+0x18a>
      is83 = false;
   b6b74:	2000      	movs	r0, #0
      c = '_';
   b6b76:	235f      	movs	r3, #95	; 0x5f
   b6b78:	e7c3      	b.n	b6b02 <_ZN7FatFile13parsePathNameEPKcP7fname_tPS1_+0x13e>
   b6b7a:	bf00      	nop
   b6b7c:	31000101 	.word	0x31000101

000b6b80 <_ZN7FatFile6removeEv>:

fail:
  return 0;
}
//------------------------------------------------------------------------------
bool FatFile::remove() {
   b6b80:	e92d 41f0 	stmdb	sp!, {r4, r5, r6, r7, r8, lr}
   b6b84:	b08a      	sub	sp, #40	; 0x28
  FatFile() : m_attr(FILE_ATTR_CLOSED), m_error(0) {}
   b6b86:	2300      	movs	r3, #0
   b6b88:	9301      	str	r3, [sp, #4]
  FatFile dirFile;
  dir_t* dir;
  ldir_t* ldir;

  // Cant' remove not open for write.
  if (!isFile() || !(m_flags & F_WRITE)) {
   b6b8a:	7803      	ldrb	r3, [r0, #0]
   b6b8c:	0719      	lsls	r1, r3, #28
bool FatFile::remove() {
   b6b8e:	4604      	mov	r4, r0
  if (!isFile() || !(m_flags & F_WRITE)) {
   b6b90:	d50a      	bpl.n	b6ba8 <_ZN7FatFile6removeEv+0x28>
   b6b92:	7883      	ldrb	r3, [r0, #2]
   b6b94:	079a      	lsls	r2, r3, #30
   b6b96:	d507      	bpl.n	b6ba8 <_ZN7FatFile6removeEv+0x28>
    DBG_FAIL_MACRO;
    goto fail;
  }
  // Free any clusters.
  if (m_firstCluster && !m_vol->freeChain(m_firstCluster)) {
   b6b98:	6a01      	ldr	r1, [r0, #32]
   b6b9a:	b939      	cbnz	r1, b6bac <_ZN7FatFile6removeEv+0x2c>
    DBG_FAIL_MACRO;
    goto fail;
  }
  // Cache directory entry.
  dir = cacheDirEntry(FatCache::CACHE_FOR_WRITE);
   b6b9c:	2101      	movs	r1, #1
   b6b9e:	4620      	mov	r0, r4
   b6ba0:	f7ff fb08 	bl	b61b4 <_ZN7FatFile13cacheDirEntryEh>
  if (!dir) {
   b6ba4:	4605      	mov	r5, r0
   b6ba6:	b938      	cbnz	r0, b6bb8 <_ZN7FatFile6removeEv+0x38>
  }
  // Fall into fail.
  DBG_FAIL_MACRO;

fail:
  return false;
   b6ba8:	2000      	movs	r0, #0
   b6baa:	e048      	b.n	b6c3e <_ZN7FatFile6removeEv+0xbe>
  if (m_firstCluster && !m_vol->freeChain(m_firstCluster)) {
   b6bac:	6880      	ldr	r0, [r0, #8]
   b6bae:	f000 fb58 	bl	b7262 <_ZN9FatVolume9freeChainEm>
   b6bb2:	2800      	cmp	r0, #0
   b6bb4:	d1f2      	bne.n	b6b9c <_ZN7FatFile6removeEv+0x1c>
   b6bb6:	e7f7      	b.n	b6ba8 <_ZN7FatFile6removeEv+0x28>
  chksum = lfnChecksum(dir->name);
   b6bb8:	f7ff fede 	bl	b6978 <_ZN7FatFile11lfnChecksumEPh>
  dir->name[0] = DIR_NAME_DELETED;
   b6bbc:	27e5      	movs	r7, #229	; 0xe5
   b6bbe:	702f      	strb	r7, [r5, #0]
  m_attr = FILE_ATTR_CLOSED;
   b6bc0:	2300      	movs	r3, #0
  chksum = lfnChecksum(dir->name);
   b6bc2:	4606      	mov	r6, r0
  m_attr = FILE_ATTR_CLOSED;
   b6bc4:	7023      	strb	r3, [r4, #0]
  if (!m_vol->cacheSync()) {
   b6bc6:	68a0      	ldr	r0, [r4, #8]
   b6bc8:	f7ff fa9f 	bl	b610a <_ZN9FatVolume9cacheSyncEv>
   b6bcc:	2800      	cmp	r0, #0
   b6bce:	d0eb      	beq.n	b6ba8 <_ZN7FatFile6removeEv+0x28>
  if (!isLFN()) {
   b6bd0:	78e3      	ldrb	r3, [r4, #3]
   b6bd2:	2b00      	cmp	r3, #0
   b6bd4:	d033      	beq.n	b6c3e <_ZN7FatFile6removeEv+0xbe>
  if (!dirFile.openCluster(this)) {
   b6bd6:	4621      	mov	r1, r4
   b6bd8:	a801      	add	r0, sp, #4
   b6bda:	f7ff fedc 	bl	b6996 <_ZN7FatFile11openClusterEPS_>
   b6bde:	2800      	cmp	r0, #0
   b6be0:	d0e2      	beq.n	b6ba8 <_ZN7FatFile6removeEv+0x28>
   b6be2:	2501      	movs	r5, #1
  for (ord = 1; ord <= m_lfnOrd; ord++) {
   b6be4:	78e3      	ldrb	r3, [r4, #3]
   b6be6:	fa5f f885 	uxtb.w	r8, r5
   b6bea:	4543      	cmp	r3, r8
   b6bec:	d3dc      	bcc.n	b6ba8 <_ZN7FatFile6removeEv+0x28>
    if (!dirFile.seekSet(32UL*(m_dirIndex - ord))) {
   b6bee:	88a1      	ldrh	r1, [r4, #4]
   b6bf0:	1b49      	subs	r1, r1, r5
   b6bf2:	0149      	lsls	r1, r1, #5
   b6bf4:	a801      	add	r0, sp, #4
   b6bf6:	f7ff fbd2 	bl	b639e <_ZN7FatFile7seekSetEm>
   b6bfa:	2800      	cmp	r0, #0
   b6bfc:	d0d4      	beq.n	b6ba8 <_ZN7FatFile6removeEv+0x28>
    ldir = reinterpret_cast<ldir_t*>(dirFile.readDirCache());
   b6bfe:	2100      	movs	r1, #0
   b6c00:	a801      	add	r0, sp, #4
   b6c02:	f7ff fbad 	bl	b6360 <_ZN7FatFile12readDirCacheEb>
    if (!ldir) {
   b6c06:	2800      	cmp	r0, #0
   b6c08:	d0ce      	beq.n	b6ba8 <_ZN7FatFile6removeEv+0x28>
    if (ldir->attr != DIR_ATT_LONG_NAME ||
   b6c0a:	7ac3      	ldrb	r3, [r0, #11]
   b6c0c:	2b0f      	cmp	r3, #15
   b6c0e:	d1cb      	bne.n	b6ba8 <_ZN7FatFile6removeEv+0x28>
        ord != (ldir->ord & 0X1F) ||
   b6c10:	7802      	ldrb	r2, [r0, #0]
    if (ldir->attr != DIR_ATT_LONG_NAME ||
   b6c12:	f002 031f 	and.w	r3, r2, #31
   b6c16:	4543      	cmp	r3, r8
   b6c18:	d1c6      	bne.n	b6ba8 <_ZN7FatFile6removeEv+0x28>
        ord != (ldir->ord & 0X1F) ||
   b6c1a:	7b43      	ldrb	r3, [r0, #13]
   b6c1c:	42b3      	cmp	r3, r6
   b6c1e:	d1c3      	bne.n	b6ba8 <_ZN7FatFile6removeEv+0x28>
    ldir->ord = DIR_NAME_DELETED;
   b6c20:	7007      	strb	r7, [r0, #0]
    m_vol->cacheDirty();
   b6c22:	68a1      	ldr	r1, [r4, #8]
    m_status |= CACHE_STATUS_DIRTY;
   b6c24:	f891 3024 	ldrb.w	r3, [r1, #36]	; 0x24
   b6c28:	f043 0301 	orr.w	r3, r3, #1
   b6c2c:	f881 3024 	strb.w	r3, [r1, #36]	; 0x24
    if (last) {
   b6c30:	0653      	lsls	r3, r2, #25
   b6c32:	f105 0501 	add.w	r5, r5, #1
   b6c36:	d5d5      	bpl.n	b6be4 <_ZN7FatFile6removeEv+0x64>
      if (!m_vol->cacheSync()) {
   b6c38:	68a0      	ldr	r0, [r4, #8]
   b6c3a:	f7ff fa66 	bl	b610a <_ZN9FatVolume9cacheSyncEv>
}
   b6c3e:	b00a      	add	sp, #40	; 0x28
   b6c40:	e8bd 81f0 	ldmia.w	sp!, {r4, r5, r6, r7, r8, pc}

000b6c44 <_ZN7FatFile12lfnUniqueSfnEP7fname_t>:
//------------------------------------------------------------------------------
bool FatFile::lfnUniqueSfn(fname_t* fname) {
   b6c44:	e92d 43f8 	stmdb	sp!, {r3, r4, r5, r6, r7, r8, r9, lr}
  const uint8_t FIRST_HASH_SEQ = 2;  // min value is 2
  uint8_t pos = fname->seqPos;;
   b6c48:	f891 900c 	ldrb.w	r9, [r1, #12]
bool FatFile::lfnUniqueSfn(fname_t* fname) {
   b6c4c:	4606      	mov	r6, r0
   b6c4e:	460c      	mov	r4, r1
  uint8_t pos = fname->seqPos;;
   b6c50:	2502      	movs	r5, #2
        uint8_t h = hex & 0XF;
        fname->sfn[i] = h < 10 ? h + '0' : h + 'A' - 10;
        hex >>= 4;
      }
    }
    fname->sfn[pos] = '~';
   b6c52:	277e      	movs	r7, #126	; 0x7e
        goto fail;
      }
      if (dir->name[0] == DIR_NAME_FREE) {
        goto done;
      }
      if (DIR_IS_FILE_OR_SUBDIR(dir) && !memcmp(fname->sfn, dir->name, 11)) {
   b6c54:	f101 080d 	add.w	r8, r1, #13
      hex = Bernstein(seq + fname->len, fname->lfn, fname->len);
   b6c58:	6861      	ldr	r1, [r4, #4]
   b6c5a:	68a2      	ldr	r2, [r4, #8]
   b6c5c:	186b      	adds	r3, r5, r1
   b6c5e:	b29b      	uxth	r3, r3
  for (size_t i = 0; i < len; i++) {
   b6c60:	4411      	add	r1, r2
   b6c62:	4291      	cmp	r1, r2
   b6c64:	d006      	beq.n	b6c74 <_ZN7FatFile12lfnUniqueSfnEP7fname_t+0x30>
    hash = ((hash << 5) + hash) ^ str[i];
   b6c66:	f812 0b01 	ldrb.w	r0, [r2], #1
   b6c6a:	eb03 1343 	add.w	r3, r3, r3, lsl #5
   b6c6e:	4043      	eors	r3, r0
   b6c70:	b29b      	uxth	r3, r3
  for (size_t i = 0; i < len; i++) {
   b6c72:	e7f6      	b.n	b6c62 <_ZN7FatFile12lfnUniqueSfnEP7fname_t+0x1e>
      if (pos > 3) {
   b6c74:	f1b9 0f03 	cmp.w	r9, #3
   b6c78:	bf28      	it	cs
   b6c7a:	f04f 0903 	movcs.w	r9, #3
      for (uint8_t i = pos + 4 ; i > pos; i--) {
   b6c7e:	f109 0204 	add.w	r2, r9, #4
   b6c82:	b2d2      	uxtb	r2, r2
        uint8_t h = hex & 0XF;
   b6c84:	f003 010f 	and.w	r1, r3, #15
        fname->sfn[i] = h < 10 ? h + '0' : h + 'A' - 10;
   b6c88:	18a0      	adds	r0, r4, r2
      for (uint8_t i = pos + 4 ; i > pos; i--) {
   b6c8a:	3a01      	subs	r2, #1
        fname->sfn[i] = h < 10 ? h + '0' : h + 'A' - 10;
   b6c8c:	2909      	cmp	r1, #9
      for (uint8_t i = pos + 4 ; i > pos; i--) {
   b6c8e:	b2d2      	uxtb	r2, r2
        fname->sfn[i] = h < 10 ? h + '0' : h + 'A' - 10;
   b6c90:	bf94      	ite	ls
   b6c92:	3130      	addls	r1, #48	; 0x30
   b6c94:	3137      	addhi	r1, #55	; 0x37
      for (uint8_t i = pos + 4 ; i > pos; i--) {
   b6c96:	4591      	cmp	r9, r2
        fname->sfn[i] = h < 10 ? h + '0' : h + 'A' - 10;
   b6c98:	7341      	strb	r1, [r0, #13]
        hex >>= 4;
   b6c9a:	ea4f 1313 	mov.w	r3, r3, lsr #4
      for (uint8_t i = pos + 4 ; i > pos; i--) {
   b6c9e:	d1f1      	bne.n	b6c84 <_ZN7FatFile12lfnUniqueSfnEP7fname_t+0x40>
    fname->sfn[pos] = '~';
   b6ca0:	eb04 0309 	add.w	r3, r4, r9
    seekSet(0);
   b6ca4:	2100      	movs	r1, #0
   b6ca6:	735f      	strb	r7, [r3, #13]
   b6ca8:	4630      	mov	r0, r6
   b6caa:	f7ff fb78 	bl	b639e <_ZN7FatFile7seekSetEm>
      dir = readDirCache(true);
   b6cae:	2101      	movs	r1, #1
   b6cb0:	4630      	mov	r0, r6
   b6cb2:	f7ff fb55 	bl	b6360 <_ZN7FatFile12readDirCacheEb>
      if (!dir) {
   b6cb6:	4601      	mov	r1, r0
   b6cb8:	b928      	cbnz	r0, b6cc6 <_ZN7FatFile12lfnUniqueSfnEP7fname_t+0x82>
        if (!getError()) {
   b6cba:	7870      	ldrb	r0, [r6, #1]
   b6cbc:	fab0 f080 	clz	r0, r0
   b6cc0:	0940      	lsrs	r0, r0, #5
fail:
  return false;

done:
  return true;
}
   b6cc2:	e8bd 83f8 	ldmia.w	sp!, {r3, r4, r5, r6, r7, r8, r9, pc}
      if (dir->name[0] == DIR_NAME_FREE) {
   b6cc6:	7803      	ldrb	r3, [r0, #0]
   b6cc8:	b16b      	cbz	r3, b6ce6 <_ZN7FatFile12lfnUniqueSfnEP7fname_t+0xa2>
      if (DIR_IS_FILE_OR_SUBDIR(dir) && !memcmp(fname->sfn, dir->name, 11)) {
   b6cca:	7ac3      	ldrb	r3, [r0, #11]
   b6ccc:	071b      	lsls	r3, r3, #28
   b6cce:	d4ee      	bmi.n	b6cae <_ZN7FatFile12lfnUniqueSfnEP7fname_t+0x6a>
   b6cd0:	220b      	movs	r2, #11
   b6cd2:	4640      	mov	r0, r8
   b6cd4:	f005 fb7a 	bl	bc3cc <memcmp>
   b6cd8:	2800      	cmp	r0, #0
   b6cda:	d1e8      	bne.n	b6cae <_ZN7FatFile12lfnUniqueSfnEP7fname_t+0x6a>
  for (uint8_t seq = 2; seq < 100; seq++) {
   b6cdc:	3501      	adds	r5, #1
   b6cde:	b2ad      	uxth	r5, r5
   b6ce0:	2d64      	cmp	r5, #100	; 0x64
   b6ce2:	d1b9      	bne.n	b6c58 <_ZN7FatFile12lfnUniqueSfnEP7fname_t+0x14>
   b6ce4:	e7ed      	b.n	b6cc2 <_ZN7FatFile12lfnUniqueSfnEP7fname_t+0x7e>
  return true;
   b6ce6:	2001      	movs	r0, #1
   b6ce8:	e7eb      	b.n	b6cc2 <_ZN7FatFile12lfnUniqueSfnEP7fname_t+0x7e>
	...

000b6cec <_ZN7FatFile4openEPS_P7fname_ti>:
bool FatFile::open(FatFile* dirFile, fname_t* fname, oflag_t oflag) {
   b6cec:	e92d 4ff0 	stmdb	sp!, {r4, r5, r6, r7, r8, r9, sl, fp, lr}
   b6cf0:	ed2d 8b02 	vpush	{d8}
   b6cf4:	b08b      	sub	sp, #44	; 0x2c
   b6cf6:	4617      	mov	r7, r2
   b6cf8:	9007      	str	r0, [sp, #28]
   b6cfa:	9306      	str	r3, [sp, #24]
  if (!dirFile || !dirFile->isDir() || isOpen()) {
   b6cfc:	460c      	mov	r4, r1
   b6cfe:	b929      	cbnz	r1, b6d0c <_ZN7FatFile4openEPS_P7fname_ti+0x20>
  return false;
   b6d00:	2000      	movs	r0, #0
}
   b6d02:	b00b      	add	sp, #44	; 0x2c
   b6d04:	ecbd 8b02 	vpop	{d8}
   b6d08:	e8bd 8ff0 	ldmia.w	sp!, {r4, r5, r6, r7, r8, r9, sl, fp, pc}
  if (!dirFile || !dirFile->isDir() || isOpen()) {
   b6d0c:	780b      	ldrb	r3, [r1, #0]
   b6d0e:	f013 0f70 	tst.w	r3, #112	; 0x70
   b6d12:	d0f5      	beq.n	b6d00 <_ZN7FatFile4openEPS_P7fname_ti+0x14>
    return m_attr;
   b6d14:	9b07      	ldr	r3, [sp, #28]
   b6d16:	781b      	ldrb	r3, [r3, #0]
   b6d18:	2b00      	cmp	r3, #0
   b6d1a:	d1f1      	bne.n	b6d00 <_ZN7FatFile4openEPS_P7fname_ti+0x14>
  size_t len = fname->len;
   b6d1c:	6853      	ldr	r3, [r2, #4]
   b6d1e:	9305      	str	r3, [sp, #20]
  freeNeed = fname->flags & FNAME_FLAG_NEED_LFN ? 1 + (len + 12)/13 : 1;
   b6d20:	7813      	ldrb	r3, [r2, #0]
   b6d22:	079d      	lsls	r5, r3, #30
   b6d24:	bf1f      	itttt	ne
   b6d26:	9b05      	ldrne	r3, [sp, #20]
   b6d28:	330c      	addne	r3, #12
   b6d2a:	220d      	movne	r2, #13
   b6d2c:	fbb3 f3f2 	udivne	r3, r3, r2
   b6d30:	bf1a      	itte	ne
   b6d32:	3301      	addne	r3, #1
   b6d34:	b2db      	uxtbne	r3, r3
   b6d36:	2301      	moveq	r3, #1
    seekSet(0);
   b6d38:	2100      	movs	r1, #0
   b6d3a:	4620      	mov	r0, r4
   b6d3c:	9303      	str	r3, [sp, #12]
   b6d3e:	f7ff fb2e 	bl	b639e <_ZN7FatFile7seekSetEm>
      if (!memcmp(dir->name, fname->sfn, sizeof(fname->sfn))) {
   b6d42:	f107 030d 	add.w	r3, r7, #13
  }
   b6d46:	f04f 0b00 	mov.w	fp, #0
   b6d4a:	ee08 3a10 	vmov	s16, r3
   b6d4e:	46da      	mov	sl, fp
   b6d50:	465d      	mov	r5, fp
   b6d52:	465e      	mov	r6, fp
   b6d54:	f8cd b010 	str.w	fp, [sp, #16]
   b6d58:	46d9      	mov	r9, fp
    curIndex = dirFile->m_curPosition/32;
   b6d5a:	6963      	ldr	r3, [r4, #20]
    dir = dirFile->readDirCache(true);
   b6d5c:	2101      	movs	r1, #1
   b6d5e:	4620      	mov	r0, r4
    curIndex = dirFile->m_curPosition/32;
   b6d60:	f3c3 184f 	ubfx	r8, r3, #5, #16
    dir = dirFile->readDirCache(true);
   b6d64:	f7ff fafc 	bl	b6360 <_ZN7FatFile12readDirCacheEb>
    if (!dir) {
   b6d68:	4603      	mov	r3, r0
   b6d6a:	2800      	cmp	r0, #0
   b6d6c:	d171      	bne.n	b6e52 <_ZN7FatFile4openEPS_P7fname_ti+0x166>
      if (dirFile->getError()) {
   b6d6e:	7863      	ldrb	r3, [r4, #1]
   b6d70:	2b00      	cmp	r3, #0
   b6d72:	d1c5      	bne.n	b6d00 <_ZN7FatFile4openEPS_P7fname_ti+0x14>
  if (!(oflag & O_CREAT) || !isWriteMode(oflag)) {
   b6d74:	9b06      	ldr	r3, [sp, #24]
   b6d76:	059a      	lsls	r2, r3, #22
   b6d78:	d5c2      	bpl.n	b6d00 <_ZN7FatFile4openEPS_P7fname_ti+0x14>

#define O_READ    O_RDONLY
#define O_WRITE   O_WRONLY

inline bool isWriteMode(oflag_t oflag) {
  oflag &= O_ACCMODE;
   b6d7a:	f003 0303 	and.w	r3, r3, #3
  return oflag == O_WRONLY || oflag == O_RDWR;
   b6d7e:	3b01      	subs	r3, #1
   b6d80:	2b01      	cmp	r3, #1
   b6d82:	d8bd      	bhi.n	b6d00 <_ZN7FatFile4openEPS_P7fname_ti+0x14>
  if (freeFound == 0) {
   b6d84:	9b04      	ldr	r3, [sp, #16]
   b6d86:	2d00      	cmp	r5, #0
   b6d88:	bf08      	it	eq
   b6d8a:	4643      	moveq	r3, r8
   b6d8c:	9304      	str	r3, [sp, #16]
  while (freeFound < freeNeed) {
   b6d8e:	9b03      	ldr	r3, [sp, #12]
   b6d90:	429d      	cmp	r5, r3
   b6d92:	f0c0 80f1 	bcc.w	b6f78 <_ZN7FatFile4openEPS_P7fname_ti+0x28c>
  if (fnameFound) {
   b6d96:	f1b9 0f00 	cmp.w	r9, #0
   b6d9a:	f040 810a 	bne.w	b6fb2 <_ZN7FatFile4openEPS_P7fname_ti+0x2c6>
  if (!dirFile->seekSet(32UL*freeIndex)) {
   b6d9e:	9b04      	ldr	r3, [sp, #16]
   b6da0:	4620      	mov	r0, r4
   b6da2:	0159      	lsls	r1, r3, #5
   b6da4:	f7ff fafb 	bl	b639e <_ZN7FatFile7seekSetEm>
   b6da8:	2800      	cmp	r0, #0
   b6daa:	d0a9      	beq.n	b6d00 <_ZN7FatFile4openEPS_P7fname_ti+0x14>
  lfnOrd = freeNeed - 1;
   b6dac:	9b03      	ldr	r3, [sp, #12]
   b6dae:	f103 39ff 	add.w	r9, r3, #4294967295	; 0xffffffff
   b6db2:	fa5f f989 	uxtb.w	r9, r9
  for (uint8_t ord = lfnOrd ; ord ; ord--) {
   b6db6:	464e      	mov	r6, r9
    ldir = reinterpret_cast<ldir_t*>(dirFile->readDirCache());
   b6db8:	f04f 0a00 	mov.w	sl, #0
    ldir->attr = DIR_ATT_LONG_NAME;
   b6dbc:	f04f 080f 	mov.w	r8, #15
  for (uint8_t ord = lfnOrd ; ord ; ord--) {
   b6dc0:	2e00      	cmp	r6, #0
   b6dc2:	f000 810d 	beq.w	b6fe0 <_ZN7FatFile4openEPS_P7fname_ti+0x2f4>
    ldir = reinterpret_cast<ldir_t*>(dirFile->readDirCache());
   b6dc6:	2100      	movs	r1, #0
   b6dc8:	4620      	mov	r0, r4
   b6dca:	f7ff fac9 	bl	b6360 <_ZN7FatFile12readDirCacheEb>
    if (!ldir) {
   b6dce:	4605      	mov	r5, r0
   b6dd0:	2800      	cmp	r0, #0
   b6dd2:	d095      	beq.n	b6d00 <_ZN7FatFile4openEPS_P7fname_ti+0x14>
    dirFile->m_vol->cacheDirty();
   b6dd4:	68a2      	ldr	r2, [r4, #8]
   b6dd6:	f892 3024 	ldrb.w	r3, [r2, #36]	; 0x24
    ldir->ord = ord == lfnOrd ? LDIR_ORD_LAST_LONG_ENTRY | ord : ord;
   b6dda:	454e      	cmp	r6, r9
   b6ddc:	f043 0301 	orr.w	r3, r3, #1
   b6de0:	bf0c      	ite	eq
   b6de2:	f046 0b40 	orreq.w	fp, r6, #64	; 0x40
   b6de6:	46b3      	movne	fp, r6
   b6de8:	f882 3024 	strb.w	r3, [r2, #36]	; 0x24
   b6dec:	f880 b000 	strb.w	fp, [r0]
    ldir->attr = DIR_ATT_LONG_NAME;
   b6df0:	f880 800b 	strb.w	r8, [r0, #11]
    ldir->type = 0;
   b6df4:	f880 a00c 	strb.w	sl, [r0, #12]
    ldir->chksum = lfnChecksum(fname->sfn);
   b6df8:	f107 000d 	add.w	r0, r7, #13
   b6dfc:	f7ff fdbc 	bl	b6978 <_ZN7FatFile11lfnChecksumEPh>
    ldir->mustBeZero = 0;
   b6e00:	f885 a01a 	strb.w	sl, [r5, #26]
    ldir->chksum = lfnChecksum(fname->sfn);
   b6e04:	7368      	strb	r0, [r5, #13]
    ldir->mustBeZero = 0;
   b6e06:	f885 a01b 	strb.w	sl, [r5, #27]
  size_t k = 13*((ldir->ord & 0X1F) - 1);
   b6e0a:	f00b 031f 	and.w	r3, fp, #31
   b6e0e:	220d      	movs	r2, #13
   b6e10:	3b01      	subs	r3, #1
    lfnPutName(ldir, fname->lfn, len);
   b6e12:	f8d7 c008 	ldr.w	ip, [r7, #8]
  size_t k = 13*((ldir->ord & 0X1F) - 1);
   b6e16:	4353      	muls	r3, r2
   b6e18:	2200      	movs	r2, #0
    uint16_t c = k < n ? name[k] : k == n ? 0 : 0XFFFF;
   b6e1a:	9905      	ldr	r1, [sp, #20]
   b6e1c:	4299      	cmp	r1, r3
   b6e1e:	f240 80d0 	bls.w	b6fc2 <_ZN7FatFile4openEPS_P7fname_ti+0x2d6>
   b6e22:	f81c 1003 	ldrb.w	r1, [ip, r3]
  if (i < LDIR_NAME1_DIM) {
   b6e26:	2a04      	cmp	r2, #4
   b6e28:	fa5f fe82 	uxtb.w	lr, r2
   b6e2c:	f102 0001 	add.w	r0, r2, #1
   b6e30:	f200 80cd 	bhi.w	b6fce <_ZN7FatFile4openEPS_P7fname_ti+0x2e2>
    ldir->name1[i] = c;
   b6e34:	eb05 0242 	add.w	r2, r5, r2, lsl #1
   b6e38:	f8a2 1001 	strh.w	r1, [r2, #1]
  for (uint8_t i = 0; i < 13; i++, k++) {
   b6e3c:	280d      	cmp	r0, #13
   b6e3e:	f103 0301 	add.w	r3, r3, #1
   b6e42:	4602      	mov	r2, r0
   b6e44:	d1e9      	bne.n	b6e1a <_ZN7FatFile4openEPS_P7fname_ti+0x12e>
  for (uint8_t ord = lfnOrd ; ord ; ord--) {
   b6e46:	3e01      	subs	r6, #1
   b6e48:	b2f6      	uxtb	r6, r6
   b6e4a:	e7b9      	b.n	b6dc0 <_ZN7FatFile4openEPS_P7fname_ti+0xd4>
        fnameFound = true;
   b6e4c:	f04f 0901 	mov.w	r9, #1
   b6e50:	e783      	b.n	b6d5a <_ZN7FatFile4openEPS_P7fname_ti+0x6e>
    if (dir->name[0] == DIR_NAME_DELETED || dir->name[0] == DIR_NAME_FREE) {
   b6e52:	7802      	ldrb	r2, [r0, #0]
   b6e54:	2ae5      	cmp	r2, #229	; 0xe5
   b6e56:	d000      	beq.n	b6e5a <_ZN7FatFile4openEPS_P7fname_ti+0x16e>
   b6e58:	b97a      	cbnz	r2, b6e7a <_ZN7FatFile4openEPS_P7fname_ti+0x18e>
    curIndex = dirFile->m_curPosition/32;
   b6e5a:	9904      	ldr	r1, [sp, #16]
   b6e5c:	2d00      	cmp	r5, #0
   b6e5e:	bf08      	it	eq
   b6e60:	4641      	moveq	r1, r8
   b6e62:	9104      	str	r1, [sp, #16]
      if (freeFound < freeNeed) {
   b6e64:	9903      	ldr	r1, [sp, #12]
   b6e66:	428d      	cmp	r5, r1
        freeFound++;
   b6e68:	bf3c      	itt	cc
   b6e6a:	3501      	addcc	r5, #1
   b6e6c:	b2ed      	uxtbcc	r5, r5
      if (dir->name[0] == DIR_NAME_FREE) {
   b6e6e:	2a00      	cmp	r2, #0
   b6e70:	d080      	beq.n	b6d74 <_ZN7FatFile4openEPS_P7fname_ti+0x88>
    if (dir->name[0] == DIR_NAME_DELETED || dir->name[0] == '.') {
   b6e72:	2ae5      	cmp	r2, #229	; 0xe5
   b6e74:	d105      	bne.n	b6e82 <_ZN7FatFile4openEPS_P7fname_ti+0x196>
      lfnOrd = 0;
   b6e76:	2600      	movs	r6, #0
   b6e78:	e76f      	b.n	b6d5a <_ZN7FatFile4openEPS_P7fname_ti+0x6e>
        freeFound = 0;
   b6e7a:	9903      	ldr	r1, [sp, #12]
   b6e7c:	428d      	cmp	r5, r1
   b6e7e:	bf38      	it	cc
   b6e80:	2500      	movcc	r5, #0
    if (dir->name[0] == DIR_NAME_DELETED || dir->name[0] == '.') {
   b6e82:	2a2e      	cmp	r2, #46	; 0x2e
   b6e84:	d0f7      	beq.n	b6e76 <_ZN7FatFile4openEPS_P7fname_ti+0x18a>
  return dir->attributes == DIR_ATT_LONG_NAME;
   b6e86:	7ad9      	ldrb	r1, [r3, #11]
    } else if (DIR_IS_LONG_NAME(dir)) {
   b6e88:	290f      	cmp	r1, #15
   b6e8a:	d14a      	bne.n	b6f22 <_ZN7FatFile4openEPS_P7fname_ti+0x236>
      if (!lfnOrd) {
   b6e8c:	bb16      	cbnz	r6, b6ed4 <_ZN7FatFile4openEPS_P7fname_ti+0x1e8>
        if ((ldir->ord & LDIR_ORD_LAST_LONG_ENTRY) == 0) {
   b6e8e:	f012 0640 	ands.w	r6, r2, #64	; 0x40
   b6e92:	f43f af62 	beq.w	b6d5a <_ZN7FatFile4openEPS_P7fname_ti+0x6e>
        lfnOrd = ord = ldir->ord & 0X1F;
   b6e96:	f002 061f 	and.w	r6, r2, #31
        chksum = ldir->chksum;
   b6e9a:	f893 b00d 	ldrb.w	fp, [r3, #13]
        lfnOrd = ord = ldir->ord & 0X1F;
   b6e9e:	46b2      	mov	sl, r6
      size_t k = 13*(ord - 1);
   b6ea0:	220d      	movs	r2, #13
   b6ea2:	f10a 38ff 	add.w	r8, sl, #4294967295	; 0xffffffff
   b6ea6:	fb02 f808 	mul.w	r8, r2, r8
      if (k >= len) {
   b6eaa:	9a05      	ldr	r2, [sp, #20]
   b6eac:	4542      	cmp	r2, r8
   b6eae:	d9e2      	bls.n	b6e76 <_ZN7FatFile4openEPS_P7fname_ti+0x18a>
   b6eb0:	eba2 0208 	sub.w	r2, r2, r8
   b6eb4:	9208      	str	r2, [sp, #32]
   b6eb6:	2200      	movs	r2, #0
   b6eb8:	eb02 0108 	add.w	r1, r2, r8
   b6ebc:	9109      	str	r1, [sp, #36]	; 0x24
        uint16_t u = lfnGetChar(ldir, i);
   b6ebe:	4618      	mov	r0, r3
   b6ec0:	b2d1      	uxtb	r1, r2
   b6ec2:	f7ff fd45 	bl	b6950 <_ZL10lfnGetCharP18longDirectoryEntryh>
        if (k == len) {
   b6ec6:	9908      	ldr	r1, [sp, #32]
   b6ec8:	428a      	cmp	r2, r1
   b6eca:	d10d      	bne.n	b6ee8 <_ZN7FatFile4openEPS_P7fname_ti+0x1fc>
            lfnOrd = 0;
   b6ecc:	2800      	cmp	r0, #0
   b6ece:	bf18      	it	ne
   b6ed0:	2600      	movne	r6, #0
   b6ed2:	e742      	b.n	b6d5a <_ZN7FatFile4openEPS_P7fname_ti+0x6e>
      } else if (ldir->ord != --ord || chksum != ldir->chksum) {
   b6ed4:	f10a 3aff 	add.w	sl, sl, #4294967295	; 0xffffffff
   b6ed8:	fa5f fa8a 	uxtb.w	sl, sl
   b6edc:	4552      	cmp	r2, sl
   b6ede:	d1ca      	bne.n	b6e76 <_ZN7FatFile4openEPS_P7fname_ti+0x18a>
   b6ee0:	7b5a      	ldrb	r2, [r3, #13]
   b6ee2:	455a      	cmp	r2, fp
   b6ee4:	d0dc      	beq.n	b6ea0 <_ZN7FatFile4openEPS_P7fname_ti+0x1b4>
   b6ee6:	e7c6      	b.n	b6e76 <_ZN7FatFile4openEPS_P7fname_ti+0x18a>
        if (u > 255 || lfnToLower(u) != lfnToLower(fname->lfn[k++])) {
   b6ee8:	28ff      	cmp	r0, #255	; 0xff
   b6eea:	d8c4      	bhi.n	b6e76 <_ZN7FatFile4openEPS_P7fname_ti+0x18a>
   b6eec:	fa5f fe80 	uxtb.w	lr, r0
  return 'A' <= c && c <= 'Z' ? c + 'a' - 'A' : c;
   b6ef0:	f1ae 0141 	sub.w	r1, lr, #65	; 0x41
   b6ef4:	2919      	cmp	r1, #25
        if (u > 255 || lfnToLower(u) != lfnToLower(fname->lfn[k++])) {
   b6ef6:	68b9      	ldr	r1, [r7, #8]
  return 'A' <= c && c <= 'Z' ? c + 'a' - 'A' : c;
   b6ef8:	bf9c      	itt	ls
   b6efa:	f10e 0020 	addls.w	r0, lr, #32
   b6efe:	fa5f fe80 	uxtbls.w	lr, r0
        if (u > 255 || lfnToLower(u) != lfnToLower(fname->lfn[k++])) {
   b6f02:	4608      	mov	r0, r1
   b6f04:	9909      	ldr	r1, [sp, #36]	; 0x24
   b6f06:	5c41      	ldrb	r1, [r0, r1]
  return 'A' <= c && c <= 'Z' ? c + 'a' - 'A' : c;
   b6f08:	f1a1 0c41 	sub.w	ip, r1, #65	; 0x41
   b6f0c:	f1bc 0f19 	cmp.w	ip, #25
   b6f10:	bf9c      	itt	ls
   b6f12:	3120      	addls	r1, #32
   b6f14:	b2c9      	uxtbls	r1, r1
        if (u > 255 || lfnToLower(u) != lfnToLower(fname->lfn[k++])) {
   b6f16:	4571      	cmp	r1, lr
   b6f18:	d1ad      	bne.n	b6e76 <_ZN7FatFile4openEPS_P7fname_ti+0x18a>
      for (uint8_t i = 0; i < 13; i++) {
   b6f1a:	3201      	adds	r2, #1
   b6f1c:	2a0d      	cmp	r2, #13
   b6f1e:	d1cb      	bne.n	b6eb8 <_ZN7FatFile4openEPS_P7fname_ti+0x1cc>
   b6f20:	e71b      	b.n	b6d5a <_ZN7FatFile4openEPS_P7fname_ti+0x6e>
    } else if (DIR_IS_FILE_OR_SUBDIR(dir)) {
   b6f22:	0708      	lsls	r0, r1, #28
   b6f24:	d4a7      	bmi.n	b6e76 <_ZN7FatFile4openEPS_P7fname_ti+0x18a>
      if (lfnOrd) {
   b6f26:	b15e      	cbz	r6, b6f40 <_ZN7FatFile4openEPS_P7fname_ti+0x254>
        if (1 == ord && lfnChecksum(dir->name) == chksum) {
   b6f28:	f1ba 0f01 	cmp.w	sl, #1
   b6f2c:	f47f aee8 	bne.w	b6d00 <_ZN7FatFile4openEPS_P7fname_ti+0x14>
   b6f30:	4618      	mov	r0, r3
   b6f32:	f7ff fd21 	bl	b6978 <_ZN7FatFile11lfnChecksumEPh>
   b6f36:	4558      	cmp	r0, fp
   b6f38:	f47f aee2 	bne.w	b6d00 <_ZN7FatFile4openEPS_P7fname_ti+0x14>
   b6f3c:	46b1      	mov	r9, r6
   b6f3e:	e00e      	b.n	b6f5e <_ZN7FatFile4openEPS_P7fname_ti+0x272>
      if (!memcmp(dir->name, fname->sfn, sizeof(fname->sfn))) {
   b6f40:	ee18 1a10 	vmov	r1, s16
   b6f44:	220b      	movs	r2, #11
   b6f46:	4618      	mov	r0, r3
   b6f48:	f005 fa40 	bl	bc3cc <memcmp>
   b6f4c:	2800      	cmp	r0, #0
   b6f4e:	f47f af04 	bne.w	b6d5a <_ZN7FatFile4openEPS_P7fname_ti+0x6e>
        if (!(fname->flags & FNAME_FLAG_LOST_CHARS)) {
   b6f52:	f897 9000 	ldrb.w	r9, [r7]
   b6f56:	f019 0901 	ands.w	r9, r9, #1
   b6f5a:	f47f af77 	bne.w	b6e4c <_ZN7FatFile4openEPS_P7fname_ti+0x160>
  if (oflag & O_EXCL) {
   b6f5e:	9b06      	ldr	r3, [sp, #24]
   b6f60:	0519      	lsls	r1, r3, #20
   b6f62:	f53f aecd 	bmi.w	b6d00 <_ZN7FatFile4openEPS_P7fname_ti+0x14>
  if (!openCachedEntry(dirFile, curIndex, oflag, lfnOrd)) {
   b6f66:	9b06      	ldr	r3, [sp, #24]
   b6f68:	9807      	ldr	r0, [sp, #28]
   b6f6a:	f8cd 9000 	str.w	r9, [sp]
   b6f6e:	4642      	mov	r2, r8
   b6f70:	4621      	mov	r1, r4
   b6f72:	f7ff fa57 	bl	b6424 <_ZN7FatFile15openCachedEntryEPS_tih>
   b6f76:	e6c4      	b.n	b6d02 <_ZN7FatFile4openEPS_P7fname_ti+0x16>
    dir = dirFile->readDirCache();
   b6f78:	2100      	movs	r1, #0
   b6f7a:	4620      	mov	r0, r4
   b6f7c:	f7ff f9f0 	bl	b6360 <_ZN7FatFile12readDirCacheEb>
    if (!dir) {
   b6f80:	b9a0      	cbnz	r0, b6fac <_ZN7FatFile4openEPS_P7fname_ti+0x2c0>
      if (dirFile->getError()) {
   b6f82:	7863      	ldrb	r3, [r4, #1]
   b6f84:	2b00      	cmp	r3, #0
   b6f86:	f47f aebb 	bne.w	b6d00 <_ZN7FatFile4openEPS_P7fname_ti+0x14>
    if (!dirFile->addDirCluster()) {
   b6f8a:	4620      	mov	r0, r4
   b6f8c:	f7ff f8d4 	bl	b6138 <_ZN7FatFile13addDirClusterEv>
   b6f90:	2800      	cmp	r0, #0
   b6f92:	f43f aeb5 	beq.w	b6d00 <_ZN7FatFile4openEPS_P7fname_ti+0x14>
    return m_blocksPerCluster;
   b6f96:	68a3      	ldr	r3, [r4, #8]
    if (dirFile->m_vol->blocksPerCluster() > 1) {
   b6f98:	791b      	ldrb	r3, [r3, #4]
   b6f9a:	2b01      	cmp	r3, #1
   b6f9c:	f63f aefb 	bhi.w	b6d96 <_ZN7FatFile4openEPS_P7fname_ti+0xaa>
  while (freeFound < freeNeed) {
   b6fa0:	9b03      	ldr	r3, [sp, #12]
    freeFound += 16;
   b6fa2:	3510      	adds	r5, #16
   b6fa4:	b2ed      	uxtb	r5, r5
  while (freeFound < freeNeed) {
   b6fa6:	42ab      	cmp	r3, r5
   b6fa8:	d8ef      	bhi.n	b6f8a <_ZN7FatFile4openEPS_P7fname_ti+0x29e>
   b6faa:	e6f4      	b.n	b6d96 <_ZN7FatFile4openEPS_P7fname_ti+0xaa>
    freeFound++;
   b6fac:	3501      	adds	r5, #1
   b6fae:	b2ed      	uxtb	r5, r5
  while (freeFound < freeNeed) {
   b6fb0:	e6ed      	b.n	b6d8e <_ZN7FatFile4openEPS_P7fname_ti+0xa2>
    if (!dirFile->lfnUniqueSfn(fname)) {
   b6fb2:	4639      	mov	r1, r7
   b6fb4:	4620      	mov	r0, r4
   b6fb6:	f7ff fe45 	bl	b6c44 <_ZN7FatFile12lfnUniqueSfnEP7fname_t>
   b6fba:	2800      	cmp	r0, #0
   b6fbc:	f47f aeef 	bne.w	b6d9e <_ZN7FatFile4openEPS_P7fname_ti+0xb2>
   b6fc0:	e69e      	b.n	b6d00 <_ZN7FatFile4openEPS_P7fname_ti+0x14>
    uint16_t c = k < n ? name[k] : k == n ? 0 : 0XFFFF;
   b6fc2:	bf14      	ite	ne
   b6fc4:	f04f 31ff 	movne.w	r1, #4294967295	; 0xffffffff
   b6fc8:	2100      	moveq	r1, #0
   b6fca:	b289      	uxth	r1, r1
   b6fcc:	e72b      	b.n	b6e26 <_ZN7FatFile4openEPS_P7fname_ti+0x13a>
  } else if (i < (LDIR_NAME1_DIM + LDIR_NAME2_DIM)) {
   b6fce:	f1be 0f0a 	cmp.w	lr, #10
    ldir->name2[i - LDIR_NAME1_DIM] = c;
   b6fd2:	bf94      	ite	ls
   b6fd4:	eb05 0242 	addls.w	r2, r5, r2, lsl #1
    ldir->name3[i - LDIR_NAME1_DIM - LDIR_NAME2_DIM] = c;
   b6fd8:	eb05 0240 	addhi.w	r2, r5, r0, lsl #1
   b6fdc:	8091      	strh	r1, [r2, #4]
   b6fde:	e72d      	b.n	b6e3c <_ZN7FatFile4openEPS_P7fname_ti+0x150>
  dir = dirFile->readDirCache();
   b6fe0:	4631      	mov	r1, r6
   b6fe2:	4620      	mov	r0, r4
  curIndex = dirFile->m_curPosition/32;
   b6fe4:	f8d4 8014 	ldr.w	r8, [r4, #20]
  dir = dirFile->readDirCache();
   b6fe8:	f7ff f9ba 	bl	b6360 <_ZN7FatFile12readDirCacheEb>
  if (!dir) {
   b6fec:	4605      	mov	r5, r0
   b6fee:	2800      	cmp	r0, #0
   b6ff0:	f43f ae86 	beq.w	b6d00 <_ZN7FatFile4openEPS_P7fname_ti+0x14>
  memset(dir, 0, sizeof(dir_t));
   b6ff4:	2220      	movs	r2, #32
   b6ff6:	4631      	mov	r1, r6
   b6ff8:	f005 fa20 	bl	bc43c <memset>
  memcpy(dir->name, fname->sfn, 11);
   b6ffc:	f8d7 300d 	ldr.w	r3, [r7, #13]
   b7000:	602b      	str	r3, [r5, #0]
   b7002:	f8d7 3011 	ldr.w	r3, [r7, #17]
   b7006:	606b      	str	r3, [r5, #4]
   b7008:	f8b7 3015 	ldrh.w	r3, [r7, #21]
   b700c:	812b      	strh	r3, [r5, #8]
   b700e:	7dfb      	ldrb	r3, [r7, #23]
   b7010:	72ab      	strb	r3, [r5, #10]
  dir->reservedNT =  (DIR_NT_LC_BASE | DIR_NT_LC_EXT) & fname->flags;
   b7012:	783b      	ldrb	r3, [r7, #0]
   b7014:	f003 0318 	and.w	r3, r3, #24
   b7018:	732b      	strb	r3, [r5, #12]
  if (m_dateTime) {
   b701a:	4b0f      	ldr	r3, [pc, #60]	; (b7058 <_ZN7FatFile4openEPS_P7fname_ti+0x36c>)
   b701c:	681b      	ldr	r3, [r3, #0]
   b701e:	b19b      	cbz	r3, b7048 <_ZN7FatFile4openEPS_P7fname_ti+0x35c>
    m_dateTime(&dir->creationDate, &dir->creationTime);
   b7020:	f105 010e 	add.w	r1, r5, #14
   b7024:	f105 0010 	add.w	r0, r5, #16
   b7028:	4798      	blx	r3
  dir->lastAccessDate = dir->creationDate;
   b702a:	8a2b      	ldrh	r3, [r5, #16]
   b702c:	826b      	strh	r3, [r5, #18]
  dir->lastWriteDate = dir->creationDate;
   b702e:	832b      	strh	r3, [r5, #24]
  dir->lastWriteTime = dir->creationTime;
   b7030:	89eb      	ldrh	r3, [r5, #14]
   b7032:	82eb      	strh	r3, [r5, #22]
  dirFile->m_vol->cacheDirty();
   b7034:	68a2      	ldr	r2, [r4, #8]
    m_status |= CACHE_STATUS_DIRTY;
   b7036:	f892 3024 	ldrb.w	r3, [r2, #36]	; 0x24
   b703a:	f043 0301 	orr.w	r3, r3, #1
  curIndex = dirFile->m_curPosition/32;
   b703e:	f3c8 184f 	ubfx	r8, r8, #5, #16
   b7042:	f882 3024 	strb.w	r3, [r2, #36]	; 0x24
  }
   b7046:	e78e      	b.n	b6f66 <_ZN7FatFile4openEPS_P7fname_ti+0x27a>
    dir->creationDate = FAT_DEFAULT_DATE;
   b7048:	2321      	movs	r3, #33	; 0x21
   b704a:	742b      	strb	r3, [r5, #16]
   b704c:	2328      	movs	r3, #40	; 0x28
   b704e:	746b      	strb	r3, [r5, #17]
    dir->creationTime = FAT_DEFAULT_TIME;
   b7050:	2308      	movs	r3, #8
   b7052:	73ae      	strb	r6, [r5, #14]
   b7054:	73eb      	strb	r3, [r5, #15]
   b7056:	e7e8      	b.n	b702a <_ZN7FatFile4openEPS_P7fname_ti+0x33e>
   b7058:	2003e67c 	.word	0x2003e67c

000b705c <_ZN5Print5writeEPKc>:
    size_t write(const char *str) {
   b705c:	b513      	push	{r0, r1, r4, lr}
   b705e:	4604      	mov	r4, r0
    }
   b7060:	4608      	mov	r0, r1
      if (str == NULL) return 0;
   b7062:	b159      	cbz	r1, b707c <_ZN5Print5writeEPKc+0x20>
      return write((const uint8_t *)str, strlen(str));
   b7064:	9101      	str	r1, [sp, #4]
   b7066:	f005 fa86 	bl	bc576 <strlen>
   b706a:	6823      	ldr	r3, [r4, #0]
   b706c:	9901      	ldr	r1, [sp, #4]
   b706e:	68db      	ldr	r3, [r3, #12]
   b7070:	4602      	mov	r2, r0
   b7072:	4620      	mov	r0, r4
    }
   b7074:	b002      	add	sp, #8
   b7076:	e8bd 4010 	ldmia.w	sp!, {r4, lr}
      return write((const uint8_t *)str, strlen(str));
   b707a:	4718      	bx	r3
    }
   b707c:	b002      	add	sp, #8
   b707e:	bd10      	pop	{r4, pc}

000b7080 <_ZN8FatCache4syncEv>:
fail:

  return 0;
}
//------------------------------------------------------------------------------
bool FatCache::sync() {
   b7080:	b537      	push	{r0, r1, r2, r4, r5, lr}
  if (m_status & CACHE_STATUS_DIRTY) {
   b7082:	7803      	ldrb	r3, [r0, #0]
   b7084:	07da      	lsls	r2, r3, #31
bool FatCache::sync() {
   b7086:	4604      	mov	r4, r0
  if (m_status & CACHE_STATUS_DIRTY) {
   b7088:	d520      	bpl.n	b70cc <_ZN8FatCache4syncEv+0x4c>
    return m_blockDev->writeBlock(block, src);
   b708a:	6843      	ldr	r3, [r0, #4]
   b708c:	6881      	ldr	r1, [r0, #8]
    if (!m_vol->writeBlock(m_lbn, m_block.data)) {
   b708e:	f100 020c 	add.w	r2, r0, #12
   b7092:	6818      	ldr	r0, [r3, #0]
   b7094:	9201      	str	r2, [sp, #4]
   b7096:	f000 fb8a 	bl	b77ae <_ZN9SdSpiCard10writeBlockEmPKh>
   b709a:	9a01      	ldr	r2, [sp, #4]
   b709c:	4605      	mov	r5, r0
   b709e:	b918      	cbnz	r0, b70a8 <_ZN8FatCache4syncEv+0x28>
    m_status &= ~CACHE_STATUS_DIRTY;
  }
  return true;

fail:
  return false;
   b70a0:	2500      	movs	r5, #0
}
   b70a2:	4628      	mov	r0, r5
   b70a4:	b003      	add	sp, #12
   b70a6:	bd30      	pop	{r4, r5, pc}
    if (m_status & CACHE_STATUS_MIRROR_FAT) {
   b70a8:	7823      	ldrb	r3, [r4, #0]
   b70aa:	079b      	lsls	r3, r3, #30
   b70ac:	d404      	bmi.n	b70b8 <_ZN8FatCache4syncEv+0x38>
    m_status &= ~CACHE_STATUS_DIRTY;
   b70ae:	7823      	ldrb	r3, [r4, #0]
   b70b0:	f023 0301 	bic.w	r3, r3, #1
   b70b4:	7023      	strb	r3, [r4, #0]
   b70b6:	e7f4      	b.n	b70a2 <_ZN8FatCache4syncEv+0x22>
      uint32_t lbn = m_lbn + m_vol->blocksPerFat();
   b70b8:	e9d4 3001 	ldrd	r3, r0, [r4, #4]
   b70bc:	6919      	ldr	r1, [r3, #16]
   b70be:	4401      	add	r1, r0
   b70c0:	6818      	ldr	r0, [r3, #0]
   b70c2:	f000 fb74 	bl	b77ae <_ZN9SdSpiCard10writeBlockEmPKh>
      if (!m_vol->writeBlock(lbn, m_block.data)) {
   b70c6:	2800      	cmp	r0, #0
   b70c8:	d1f1      	bne.n	b70ae <_ZN8FatCache4syncEv+0x2e>
   b70ca:	e7e9      	b.n	b70a0 <_ZN8FatCache4syncEv+0x20>
  return true;
   b70cc:	2501      	movs	r5, #1
   b70ce:	e7e8      	b.n	b70a2 <_ZN8FatCache4syncEv+0x22>

000b70d0 <_ZN8FatCache4readEmh>:
cache_t* FatCache::read(uint32_t lbn, uint8_t option) {
   b70d0:	b570      	push	{r4, r5, r6, lr}
  if (m_lbn != lbn) {
   b70d2:	6883      	ldr	r3, [r0, #8]
   b70d4:	428b      	cmp	r3, r1
cache_t* FatCache::read(uint32_t lbn, uint8_t option) {
   b70d6:	4604      	mov	r4, r0
   b70d8:	460e      	mov	r6, r1
   b70da:	4615      	mov	r5, r2
  if (m_lbn != lbn) {
   b70dc:	d009      	beq.n	b70f2 <_ZN8FatCache4readEmh+0x22>
    if (!sync()) {
   b70de:	f7ff ffcf 	bl	b7080 <_ZN8FatCache4syncEv>
   b70e2:	b908      	cbnz	r0, b70e8 <_ZN8FatCache4readEmh+0x18>
  return 0;
   b70e4:	2000      	movs	r0, #0
}
   b70e6:	bd70      	pop	{r4, r5, r6, pc}
    if (!(option & CACHE_OPTION_NO_READ)) {
   b70e8:	076b      	lsls	r3, r5, #29
   b70ea:	d50a      	bpl.n	b7102 <_ZN8FatCache4readEmh+0x32>
    m_status = 0;
   b70ec:	2300      	movs	r3, #0
   b70ee:	7023      	strb	r3, [r4, #0]
    m_lbn = lbn;
   b70f0:	60a6      	str	r6, [r4, #8]
  m_status |= option & CACHE_STATUS_MASK;
   b70f2:	7822      	ldrb	r2, [r4, #0]
   b70f4:	f005 0503 	and.w	r5, r5, #3
   b70f8:	4620      	mov	r0, r4
   b70fa:	4315      	orrs	r5, r2
   b70fc:	f800 5b0c 	strb.w	r5, [r0], #12
  return &m_block;
   b7100:	e7f1      	b.n	b70e6 <_ZN8FatCache4readEmh+0x16>
    return m_blockDev->readBlock(block, dst);
   b7102:	6863      	ldr	r3, [r4, #4]
   b7104:	f104 020c 	add.w	r2, r4, #12
   b7108:	6818      	ldr	r0, [r3, #0]
   b710a:	4631      	mov	r1, r6
   b710c:	f000 fac6 	bl	b769c <_ZN9SdSpiCard9readBlockEmPh>
      if (!m_vol->readBlock(lbn, m_block.data)) {
   b7110:	2800      	cmp	r0, #0
   b7112:	d1eb      	bne.n	b70ec <_ZN8FatCache4readEmh+0x1c>
   b7114:	e7e6      	b.n	b70e4 <_ZN8FatCache4readEmh+0x14>

000b7116 <_ZNK9FatVolume17clusterFirstBlockEm>:
fail:
  return false;
}
//------------------------------------------------------------------------------
uint32_t FatVolume::clusterFirstBlock(uint32_t cluster) const {
  return m_dataStartBlock + ((cluster - 2) << m_clusterSizeShift);
   b7116:	7983      	ldrb	r3, [r0, #6]
   b7118:	6940      	ldr	r0, [r0, #20]
   b711a:	3902      	subs	r1, #2
   b711c:	4099      	lsls	r1, r3
}
   b711e:	4408      	add	r0, r1
   b7120:	4770      	bx	lr

000b7122 <_ZN9FatVolume6fatGetEmPm>:
  uint32_t lba;
  uint32_t next;
  cache_t* pc;

  // error if reserved cluster of beyond FAT
  if (cluster < 2 || cluster > m_lastCluster) {
   b7122:	2901      	cmp	r1, #1
int8_t FatVolume::fatGet(uint32_t cluster, uint32_t* value) {
   b7124:	b570      	push	{r4, r5, r6, lr}
   b7126:	4605      	mov	r5, r0
   b7128:	460c      	mov	r4, r1
   b712a:	4616      	mov	r6, r2
  if (cluster < 2 || cluster > m_lastCluster) {
   b712c:	d802      	bhi.n	b7134 <_ZN9FatVolume6fatGetEmPm+0x12>
  }
  *value = next;
  return 1;

fail:
  return -1;
   b712e:	f04f 30ff 	mov.w	r0, #4294967295	; 0xffffffff
}
   b7132:	bd70      	pop	{r4, r5, r6, pc}
  if (cluster < 2 || cluster > m_lastCluster) {
   b7134:	69c3      	ldr	r3, [r0, #28]
   b7136:	428b      	cmp	r3, r1
   b7138:	d3f9      	bcc.n	b712e <_ZN9FatVolume6fatGetEmPm+0xc>
    return m_fatType;
   b713a:	79c3      	ldrb	r3, [r0, #7]
  if (fatType() == 32) {
   b713c:	2b20      	cmp	r3, #32
   b713e:	d116      	bne.n	b716e <_ZN9FatVolume6fatGetEmPm+0x4c>
    lba = m_fatStartBlock + (cluster >> 7);
   b7140:	6981      	ldr	r1, [r0, #24]
    return m_fatCache.read(blockNumber,
   b7142:	2202      	movs	r2, #2
   b7144:	eb01 11d4 	add.w	r1, r1, r4, lsr #7
   b7148:	f500 700c 	add.w	r0, r0, #560	; 0x230
   b714c:	f7ff ffc0 	bl	b70d0 <_ZN8FatCache4readEmh>
    if (!pc) {
   b7150:	2800      	cmp	r0, #0
   b7152:	d0ec      	beq.n	b712e <_ZN9FatVolume6fatGetEmPm+0xc>
    next = pc->fat32[cluster & 0X7F] & FAT32MASK;
   b7154:	f004 047f 	and.w	r4, r4, #127	; 0x7f
   b7158:	f850 3024 	ldr.w	r3, [r0, r4, lsl #2]
   b715c:	f023 4370 	bic.w	r3, r3, #4026531840	; 0xf0000000
  if (isEOC(next)) {
   b7160:	69ea      	ldr	r2, [r5, #28]
   b7162:	429a      	cmp	r2, r3
  *value = next;
   b7164:	bf26      	itte	cs
   b7166:	6033      	strcs	r3, [r6, #0]
  return 1;
   b7168:	2001      	movcs	r0, #1
    return 0;
   b716a:	2000      	movcc	r0, #0
   b716c:	e7e1      	b.n	b7132 <_ZN9FatVolume6fatGetEmPm+0x10>
  if (fatType() == 16) {
   b716e:	2b10      	cmp	r3, #16
   b7170:	d1dd      	bne.n	b712e <_ZN9FatVolume6fatGetEmPm+0xc>
    lba = m_fatStartBlock + ((cluster >> 8) & 0XFF);
   b7172:	f3c1 2307 	ubfx	r3, r1, #8, #8
   b7176:	6981      	ldr	r1, [r0, #24]
   b7178:	2202      	movs	r2, #2
   b717a:	4419      	add	r1, r3
   b717c:	f500 700c 	add.w	r0, r0, #560	; 0x230
   b7180:	f7ff ffa6 	bl	b70d0 <_ZN8FatCache4readEmh>
    if (!pc) {
   b7184:	2800      	cmp	r0, #0
   b7186:	d0d2      	beq.n	b712e <_ZN9FatVolume6fatGetEmPm+0xc>
    next = pc->fat16[cluster & 0XFF];
   b7188:	b2e4      	uxtb	r4, r4
   b718a:	f830 3014 	ldrh.w	r3, [r0, r4, lsl #1]
    goto done;
   b718e:	e7e7      	b.n	b7160 <_ZN9FatVolume6fatGetEmPm+0x3e>

000b7190 <_ZN9FatVolume6fatPutEmm>:
bool FatVolume::fatPut(uint32_t cluster, uint32_t value) {
  uint32_t lba;
  cache_t* pc;

  // error if reserved cluster of beyond FAT
  if (cluster < 2 || cluster > m_lastCluster) {
   b7190:	2901      	cmp	r1, #1
bool FatVolume::fatPut(uint32_t cluster, uint32_t value) {
   b7192:	b538      	push	{r3, r4, r5, lr}
   b7194:	460c      	mov	r4, r1
   b7196:	4615      	mov	r5, r2
  if (cluster < 2 || cluster > m_lastCluster) {
   b7198:	d801      	bhi.n	b719e <_ZN9FatVolume6fatPutEmm+0xe>
    DBG_FAIL_MACRO;
    goto fail;
  }

fail:
  return false;
   b719a:	2000      	movs	r0, #0
}
   b719c:	bd38      	pop	{r3, r4, r5, pc}
  if (cluster < 2 || cluster > m_lastCluster) {
   b719e:	69c3      	ldr	r3, [r0, #28]
   b71a0:	428b      	cmp	r3, r1
   b71a2:	d3fa      	bcc.n	b719a <_ZN9FatVolume6fatPutEmm+0xa>
    return m_fatType;
   b71a4:	79c3      	ldrb	r3, [r0, #7]
  if (fatType() == 32) {
   b71a6:	2b20      	cmp	r3, #32
   b71a8:	d10f      	bne.n	b71ca <_ZN9FatVolume6fatPutEmm+0x3a>
    lba = m_fatStartBlock + (cluster >> 7);
   b71aa:	6981      	ldr	r1, [r0, #24]
    return m_fatCache.read(blockNumber,
   b71ac:	2203      	movs	r2, #3
   b71ae:	eb01 11d4 	add.w	r1, r1, r4, lsr #7
   b71b2:	f500 700c 	add.w	r0, r0, #560	; 0x230
   b71b6:	f7ff ff8b 	bl	b70d0 <_ZN8FatCache4readEmh>
    if (!pc) {
   b71ba:	2800      	cmp	r0, #0
   b71bc:	d0ed      	beq.n	b719a <_ZN9FatVolume6fatPutEmm+0xa>
    pc->fat32[cluster & 0X7F] = value;
   b71be:	f004 047f 	and.w	r4, r4, #127	; 0x7f
   b71c2:	f840 5024 	str.w	r5, [r0, r4, lsl #2]
    return true;
   b71c6:	2001      	movs	r0, #1
   b71c8:	e7e8      	b.n	b719c <_ZN9FatVolume6fatPutEmm+0xc>
  if (fatType() == 16) {
   b71ca:	2b10      	cmp	r3, #16
   b71cc:	d1e5      	bne.n	b719a <_ZN9FatVolume6fatPutEmm+0xa>
    lba = m_fatStartBlock + ((cluster >> 8) & 0XFF);
   b71ce:	f3c1 2307 	ubfx	r3, r1, #8, #8
   b71d2:	6981      	ldr	r1, [r0, #24]
   b71d4:	2203      	movs	r2, #3
   b71d6:	4419      	add	r1, r3
   b71d8:	f500 700c 	add.w	r0, r0, #560	; 0x230
   b71dc:	f7ff ff78 	bl	b70d0 <_ZN8FatCache4readEmh>
    if (!pc) {
   b71e0:	2800      	cmp	r0, #0
   b71e2:	d0da      	beq.n	b719a <_ZN9FatVolume6fatPutEmm+0xa>
    pc->fat16[cluster & 0XFF] = value;
   b71e4:	b2e4      	uxtb	r4, r4
   b71e6:	f820 5014 	strh.w	r5, [r0, r4, lsl #1]
   b71ea:	e7ec      	b.n	b71c6 <_ZN9FatVolume6fatPutEmm+0x36>

000b71ec <_ZN9FatVolume15allocateClusterEmPm>:
bool FatVolume::allocateCluster(uint32_t current, uint32_t* next) {
   b71ec:	e92d 41f3 	stmdb	sp!, {r0, r1, r4, r5, r6, r7, r8, lr}
  if (m_allocSearchStart < current) {
   b71f0:	68c4      	ldr	r4, [r0, #12]
   b71f2:	428c      	cmp	r4, r1
bool FatVolume::allocateCluster(uint32_t current, uint32_t* next) {
   b71f4:	4605      	mov	r5, r0
   b71f6:	460e      	mov	r6, r1
   b71f8:	4690      	mov	r8, r2
  if (m_allocSearchStart < current) {
   b71fa:	d301      	bcc.n	b7200 <_ZN9FatVolume15allocateClusterEmPm+0x14>
      setStart = true;
   b71fc:	2701      	movs	r7, #1
   b71fe:	e001      	b.n	b7204 <_ZN9FatVolume15allocateClusterEmPm+0x18>
   b7200:	460c      	mov	r4, r1
    setStart = false;
   b7202:	2700      	movs	r7, #0
    if (find > m_lastCluster) {
   b7204:	69eb      	ldr	r3, [r5, #28]
    find++;
   b7206:	3401      	adds	r4, #1
    if (find > m_lastCluster) {
   b7208:	42a3      	cmp	r3, r4
   b720a:	d202      	bcs.n	b7212 <_ZN9FatVolume15allocateClusterEmPm+0x26>
      if (setStart) {
   b720c:	b9c7      	cbnz	r7, b7240 <_ZN9FatVolume15allocateClusterEmPm+0x54>
      find = m_allocSearchStart;
   b720e:	68ec      	ldr	r4, [r5, #12]
   b7210:	e7f4      	b.n	b71fc <_ZN9FatVolume15allocateClusterEmPm+0x10>
    if (find == current) {
   b7212:	42a6      	cmp	r6, r4
   b7214:	d014      	beq.n	b7240 <_ZN9FatVolume15allocateClusterEmPm+0x54>
    int8_t fg = fatGet(find, &f);
   b7216:	aa01      	add	r2, sp, #4
   b7218:	4621      	mov	r1, r4
   b721a:	4628      	mov	r0, r5
   b721c:	f7ff ff81 	bl	b7122 <_ZN9FatVolume6fatGetEmPm>
    if (fg < 0) {
   b7220:	2800      	cmp	r0, #0
   b7222:	db0d      	blt.n	b7240 <_ZN9FatVolume15allocateClusterEmPm+0x54>
    if (fg && f == 0) {
   b7224:	d0ee      	beq.n	b7204 <_ZN9FatVolume15allocateClusterEmPm+0x18>
   b7226:	9b01      	ldr	r3, [sp, #4]
   b7228:	2b00      	cmp	r3, #0
   b722a:	d1eb      	bne.n	b7204 <_ZN9FatVolume15allocateClusterEmPm+0x18>
  if (setStart) {
   b722c:	b107      	cbz	r7, b7230 <_ZN9FatVolume15allocateClusterEmPm+0x44>
    m_allocSearchStart = find;
   b722e:	60ec      	str	r4, [r5, #12]
  }
  uint32_t clusterFirstBlock(uint32_t cluster) const;
  int8_t fatGet(uint32_t cluster, uint32_t* value);
  bool fatPut(uint32_t cluster, uint32_t value);
  bool fatPutEOC(uint32_t cluster) {
    return fatPut(cluster, 0x0FFFFFFF);
   b7230:	f06f 4270 	mvn.w	r2, #4026531840	; 0xf0000000
   b7234:	4621      	mov	r1, r4
   b7236:	4628      	mov	r0, r5
   b7238:	f7ff ffaa 	bl	b7190 <_ZN9FatVolume6fatPutEmm>
  if (!fatPutEOC(find)) {
   b723c:	4607      	mov	r7, r0
   b723e:	b920      	cbnz	r0, b724a <_ZN9FatVolume15allocateClusterEmPm+0x5e>
  return false;
   b7240:	2700      	movs	r7, #0
}
   b7242:	4638      	mov	r0, r7
   b7244:	b002      	add	sp, #8
   b7246:	e8bd 81f0 	ldmia.w	sp!, {r4, r5, r6, r7, r8, pc}
  if (current) {
   b724a:	b916      	cbnz	r6, b7252 <_ZN9FatVolume15allocateClusterEmPm+0x66>
  *next = find;
   b724c:	f8c8 4000 	str.w	r4, [r8]
  return true;
   b7250:	e7f7      	b.n	b7242 <_ZN9FatVolume15allocateClusterEmPm+0x56>
    if (!fatPut(current, find)) {
   b7252:	4622      	mov	r2, r4
   b7254:	4631      	mov	r1, r6
   b7256:	4628      	mov	r0, r5
   b7258:	f7ff ff9a 	bl	b7190 <_ZN9FatVolume6fatPutEmm>
   b725c:	2800      	cmp	r0, #0
   b725e:	d1f5      	bne.n	b724c <_ZN9FatVolume15allocateClusterEmPm+0x60>
   b7260:	e7ee      	b.n	b7240 <_ZN9FatVolume15allocateClusterEmPm+0x54>

000b7262 <_ZN9FatVolume9freeChainEm>:
//------------------------------------------------------------------------------
// free a cluster chain
bool FatVolume::freeChain(uint32_t cluster) {
   b7262:	b573      	push	{r0, r1, r4, r5, r6, lr}
  uint32_t next = 0;
   b7264:	2300      	movs	r3, #0
bool FatVolume::freeChain(uint32_t cluster) {
   b7266:	4605      	mov	r5, r0
   b7268:	460c      	mov	r4, r1
  uint32_t next = 0;
   b726a:	9301      	str	r3, [sp, #4]
  int8_t fg;
  do {
    fg = fatGet(cluster, &next);
   b726c:	aa01      	add	r2, sp, #4
   b726e:	4621      	mov	r1, r4
   b7270:	4628      	mov	r0, r5
   b7272:	f7ff ff56 	bl	b7122 <_ZN9FatVolume6fatGetEmPm>
    if (fg < 0) {
   b7276:	1e06      	subs	r6, r0, #0
   b7278:	db10      	blt.n	b729c <_ZN9FatVolume9freeChainEm+0x3a>
      DBG_FAIL_MACRO;
      goto fail;
    }
    // free cluster
    if (!fatPut(cluster, 0)) {
   b727a:	2200      	movs	r2, #0
   b727c:	4621      	mov	r1, r4
   b727e:	4628      	mov	r0, r5
   b7280:	f7ff ff86 	bl	b7190 <_ZN9FatVolume6fatPutEmm>
   b7284:	b150      	cbz	r0, b729c <_ZN9FatVolume9freeChainEm+0x3a>
      goto fail;
    }
    // Add one to count of free clusters.
    updateFreeClusterCount(1);

    if (cluster <= m_allocSearchStart) {
   b7286:	68eb      	ldr	r3, [r5, #12]
   b7288:	42a3      	cmp	r3, r4
      m_allocSearchStart = cluster - 1;
   b728a:	bf24      	itt	cs
   b728c:	f104 34ff 	addcs.w	r4, r4, #4294967295	; 0xffffffff
   b7290:	60ec      	strcs	r4, [r5, #12]
    }
    cluster = next;
   b7292:	9c01      	ldr	r4, [sp, #4]
  } while (fg);
   b7294:	2e00      	cmp	r6, #0
   b7296:	d1e9      	bne.n	b726c <_ZN9FatVolume9freeChainEm+0xa>

  return true;

fail:
  return false;
}
   b7298:	b002      	add	sp, #8
   b729a:	bd70      	pop	{r4, r5, r6, pc}
  return false;
   b729c:	2000      	movs	r0, #0
   b729e:	e7fb      	b.n	b7298 <_ZN9FatVolume9freeChainEm+0x36>

000b72a0 <_ZN9FatVolume4initEh>:
  uint32_t volumeStartBlock = 0;
  fat32_boot_t* fbs;
  cache_t* pc;
  uint8_t tmp;
  m_fatType = 0;
  m_allocSearchStart = 1;
   b72a0:	2301      	movs	r3, #1
bool FatVolume::init(uint8_t part) {
   b72a2:	b570      	push	{r4, r5, r6, lr}
  m_fatType = 0;
   b72a4:	2200      	movs	r2, #0
  m_allocSearchStart = 1;
   b72a6:	60c3      	str	r3, [r0, #12]
    m_lbn = 0XFFFFFFFF;
   b72a8:	f04f 33ff 	mov.w	r3, #4294967295	; 0xffffffff
bool FatVolume::init(uint8_t part) {
   b72ac:	4604      	mov	r4, r0
  m_fatType = 0;
   b72ae:	71c2      	strb	r2, [r0, #7]
  m_cache.init(this);
   b72b0:	f100 0624 	add.w	r6, r0, #36	; 0x24
    m_vol = vol;
   b72b4:	6280      	str	r0, [r0, #40]	; 0x28
    m_status = 0;
   b72b6:	f880 2024 	strb.w	r2, [r0, #36]	; 0x24
    m_lbn = 0XFFFFFFFF;
   b72ba:	62c3      	str	r3, [r0, #44]	; 0x2c
    m_vol = vol;
   b72bc:	f8c0 0234 	str.w	r0, [r0, #564]	; 0x234
    m_status = 0;
   b72c0:	f880 2230 	strb.w	r2, [r0, #560]	; 0x230
    m_lbn = 0XFFFFFFFF;
   b72c4:	f8c0 3238 	str.w	r3, [r0, #568]	; 0x238
#if USE_SEPARATE_FAT_CACHE
  m_fatCache.init(this);
#endif  // USE_SEPARATE_FAT_CACHE
  // if part == 0 assume super floppy with FAT boot sector in block zero
  // if part > 0 assume mbr volume with partition table
  if (part) {
   b72c8:	460d      	mov	r5, r1
   b72ca:	b1b9      	cbz	r1, b72fc <_ZN9FatVolume4initEh+0x5c>
    if (part > 4) {
   b72cc:	2904      	cmp	r1, #4
   b72ce:	d901      	bls.n	b72d4 <_ZN9FatVolume4initEh+0x34>
    m_fatType = 32;
  }
  return true;

fail:
  return false;
   b72d0:	2000      	movs	r0, #0
}
   b72d2:	bd70      	pop	{r4, r5, r6, pc}
    return m_cache.read(blockNumber, options);
   b72d4:	4611      	mov	r1, r2
   b72d6:	4630      	mov	r0, r6
   b72d8:	f7ff fefa 	bl	b70d0 <_ZN8FatCache4readEmh>
    if (!pc) {
   b72dc:	2800      	cmp	r0, #0
   b72de:	d0f7      	beq.n	b72d0 <_ZN9FatVolume4initEh+0x30>
    if ((p->boot & 0X7F) != 0 || p->firstSector == 0) {
   b72e0:	eb00 1305 	add.w	r3, r0, r5, lsl #4
   b72e4:	f893 31ae 	ldrb.w	r3, [r3, #430]	; 0x1ae
   b72e8:	065b      	lsls	r3, r3, #25
   b72ea:	d1f1      	bne.n	b72d0 <_ZN9FatVolume4initEh+0x30>
   b72ec:	f105 011b 	add.w	r1, r5, #27
   b72f0:	eb00 1001 	add.w	r0, r0, r1, lsl #4
   b72f4:	f8d0 5006 	ldr.w	r5, [r0, #6]
   b72f8:	2d00      	cmp	r5, #0
   b72fa:	d0e9      	beq.n	b72d0 <_ZN9FatVolume4initEh+0x30>
   b72fc:	2200      	movs	r2, #0
   b72fe:	4629      	mov	r1, r5
   b7300:	4630      	mov	r0, r6
   b7302:	f7ff fee5 	bl	b70d0 <_ZN8FatCache4readEmh>
  if (!pc) {
   b7306:	2800      	cmp	r0, #0
   b7308:	d0e2      	beq.n	b72d0 <_ZN9FatVolume4initEh+0x30>
  if (fbs->bytesPerSector != 512 ||
   b730a:	f8b0 300b 	ldrh.w	r3, [r0, #11]
   b730e:	f5b3 7f00 	cmp.w	r3, #512	; 0x200
   b7312:	d1dd      	bne.n	b72d0 <_ZN9FatVolume4initEh+0x30>
   b7314:	7c03      	ldrb	r3, [r0, #16]
   b7316:	2b02      	cmp	r3, #2
   b7318:	d1da      	bne.n	b72d0 <_ZN9FatVolume4initEh+0x30>
      fbs->fatCount != 2 ||
   b731a:	89c3      	ldrh	r3, [r0, #14]
   b731c:	2b00      	cmp	r3, #0
   b731e:	d0d7      	beq.n	b72d0 <_ZN9FatVolume4initEh+0x30>
  m_blocksPerCluster = fbs->sectorsPerCluster;
   b7320:	7b41      	ldrb	r1, [r0, #13]
   b7322:	7121      	strb	r1, [r4, #4]
  m_clusterBlockMask = m_blocksPerCluster - 1;
   b7324:	1e4b      	subs	r3, r1, #1
   b7326:	7163      	strb	r3, [r4, #5]
  m_clusterSizeShift = 0;
   b7328:	2300      	movs	r3, #0
   b732a:	71a3      	strb	r3, [r4, #6]
   b732c:	2609      	movs	r6, #9
  for (tmp = 1; m_blocksPerCluster != tmp; tmp <<= 1, m_clusterSizeShift++) {
   b732e:	2301      	movs	r3, #1
   b7330:	4299      	cmp	r1, r3
   b7332:	d007      	beq.n	b7344 <_ZN9FatVolume4initEh+0xa4>
    if (tmp == 0) {
   b7334:	3e01      	subs	r6, #1
   b7336:	d0cb      	beq.n	b72d0 <_ZN9FatVolume4initEh+0x30>
  for (tmp = 1; m_blocksPerCluster != tmp; tmp <<= 1, m_clusterSizeShift++) {
   b7338:	79a2      	ldrb	r2, [r4, #6]
   b733a:	005b      	lsls	r3, r3, #1
   b733c:	3201      	adds	r2, #1
   b733e:	b2db      	uxtb	r3, r3
   b7340:	71a2      	strb	r2, [r4, #6]
   b7342:	e7f5      	b.n	b7330 <_ZN9FatVolume4initEh+0x90>
  m_blocksPerFat = fbs->sectorsPerFat16 ?
   b7344:	8ac1      	ldrh	r1, [r0, #22]
   b7346:	b901      	cbnz	r1, b734a <_ZN9FatVolume4initEh+0xaa>
   b7348:	6a41      	ldr	r1, [r0, #36]	; 0x24
   b734a:	6121      	str	r1, [r4, #16]
  m_fatStartBlock = volumeStartBlock + fbs->reservedSectorCount;
   b734c:	89c3      	ldrh	r3, [r0, #14]
   b734e:	442b      	add	r3, r5
   b7350:	61a3      	str	r3, [r4, #24]
  m_rootDirEntryCount = fbs->rootDirEntryCount;
   b7352:	f8b0 2011 	ldrh.w	r2, [r0, #17]
   b7356:	8122      	strh	r2, [r4, #8]
  m_rootDirStart = m_fatStartBlock + 2 * m_blocksPerFat;
   b7358:	eb03 0341 	add.w	r3, r3, r1, lsl #1
   b735c:	6223      	str	r3, [r4, #32]
  m_dataStartBlock = m_rootDirStart + ((32 * fbs->rootDirEntryCount + 511)/512);
   b735e:	f8b0 1011 	ldrh.w	r1, [r0, #17]
   b7362:	0149      	lsls	r1, r1, #5
   b7364:	f201 11ff 	addw	r1, r1, #511	; 0x1ff
   b7368:	eb03 2351 	add.w	r3, r3, r1, lsr #9
   b736c:	6163      	str	r3, [r4, #20]
  totalBlocks = fbs->totalSectors16 ?
   b736e:	f8b0 2013 	ldrh.w	r2, [r0, #19]
   b7372:	b902      	cbnz	r2, b7376 <_ZN9FatVolume4initEh+0xd6>
   b7374:	6a02      	ldr	r2, [r0, #32]
  clusterCount = totalBlocks - (m_dataStartBlock - volumeStartBlock);
   b7376:	1ae9      	subs	r1, r5, r3
  clusterCount >>= m_clusterSizeShift;
   b7378:	79a3      	ldrb	r3, [r4, #6]
  clusterCount = totalBlocks - (m_dataStartBlock - volumeStartBlock);
   b737a:	4411      	add	r1, r2
  clusterCount >>= m_clusterSizeShift;
   b737c:	40d9      	lsrs	r1, r3
  m_lastCluster = clusterCount + 1;
   b737e:	1c4b      	adds	r3, r1, #1
   b7380:	61e3      	str	r3, [r4, #28]
  if (clusterCount < 4085) {
   b7382:	f640 73f4 	movw	r3, #4084	; 0xff4
   b7386:	4299      	cmp	r1, r3
   b7388:	d802      	bhi.n	b7390 <_ZN9FatVolume4initEh+0xf0>
    m_fatType = 12;
   b738a:	230c      	movs	r3, #12
   b738c:	71e3      	strb	r3, [r4, #7]
   b738e:	e79f      	b.n	b72d0 <_ZN9FatVolume4initEh+0x30>
  } else if (clusterCount < 65525) {
   b7390:	f64f 73f4 	movw	r3, #65524	; 0xfff4
   b7394:	4299      	cmp	r1, r3
    m_rootDirStart = fbs->fat32RootCluster;
   b7396:	bf85      	ittet	hi
   b7398:	6ac3      	ldrhi	r3, [r0, #44]	; 0x2c
   b739a:	6223      	strhi	r3, [r4, #32]
    m_fatType = 16;
   b739c:	2310      	movls	r3, #16
    m_fatType = 32;
   b739e:	2320      	movhi	r3, #32
   b73a0:	71e3      	strb	r3, [r4, #7]
  return true;
   b73a2:	2001      	movs	r0, #1
   b73a4:	e795      	b.n	b72d2 <_ZN9FatVolume4initEh+0x32>

000b73a6 <_ZN9SdSpiCard7spiSendEh.isra.0>:
  }
  uint8_t spiReceive(uint8_t* buf, size_t n) {
    return  m_spiDriver->receive(buf, n);
  }
  void spiSend(uint8_t data) {
     m_spiDriver->send(data);
   b73a6:	f000 bacb 	b.w	b7940 <_ZN14SdSpiAltDriver4sendEh>

000b73aa <_ZN9SdSpiCard10spiReceiveEv.isra.0>:
    return m_spiDriver->receive();
   b73aa:	f000 baae 	b.w	b790a <_ZN14SdSpiAltDriver7receiveEv>
	...

000b73b0 <_ZN9SdSpiCard10isTimedOutEtt>:
    spiStop();
  }
  return rtn;
}
//------------------------------------------------------------------------------
bool SdSpiCard::isTimedOut(uint16_t startMS, uint16_t timeoutMS) {
   b73b0:	b570      	push	{r4, r5, r6, lr}
#if WDT_YIELD_TIME_MICROS
  static uint32_t last;
  if ((micros() - last) > WDT_YIELD_TIME_MICROS) {
   b73b2:	4e0e      	ldr	r6, [pc, #56]	; (b73ec <_ZN9SdSpiCard10isTimedOutEtt+0x3c>)
bool SdSpiCard::isTimedOut(uint16_t startMS, uint16_t timeoutMS) {
   b73b4:	460d      	mov	r5, r1
   b73b6:	4614      	mov	r4, r2
inline unsigned long micros(void) { return HAL_Timer_Get_Micro_Seconds(); }
   b73b8:	f000 fb2e 	bl	b7a18 <HAL_Timer_Get_Micro_Seconds>
  if ((micros() - last) > WDT_YIELD_TIME_MICROS) {
   b73bc:	6833      	ldr	r3, [r6, #0]
   b73be:	1ac0      	subs	r0, r0, r3
   b73c0:	4b0b      	ldr	r3, [pc, #44]	; (b73f0 <_ZN9SdSpiCard10isTimedOutEtt+0x40>)
   b73c2:	4298      	cmp	r0, r3
   b73c4:	d908      	bls.n	b73d8 <_ZN9SdSpiCard10isTimedOutEtt+0x28>
		return !timeout_fn;
	}

	static inline system_tick_t current_time()
	{
		return HAL_Timer_Get_Milli_Seconds();
   b73c6:	f000 fb2f 	bl	b7a28 <HAL_Timer_Get_Milli_Seconds>
	/**
	 * Lifesign that the application is still working normally.
	 */
	static void checkin()
	{
		last_checkin = current_time();
   b73ca:	4b0a      	ldr	r3, [pc, #40]	; (b73f4 <_ZN9SdSpiCard10isTimedOutEtt+0x44>)
   b73cc:	6018      	str	r0, [r3, #0]
    		spark_process();
   b73ce:	f000 fd2d 	bl	b7e2c <spark_process>
   b73d2:	f000 fb21 	bl	b7a18 <HAL_Timer_Get_Micro_Seconds>
    SysCall::yield();
    last = micros();
   b73d6:	6030      	str	r0, [r6, #0]
inline system_tick_t millis(void) { return HAL_Timer_Get_Milli_Seconds(); }
   b73d8:	f000 fb26 	bl	b7a28 <HAL_Timer_Get_Milli_Seconds>
  }
#endif  // WDT_YIELD_TIME_MICROS
  return (curTimeMS() - startMS) > timeoutMS;
   b73dc:	b280      	uxth	r0, r0
   b73de:	1b40      	subs	r0, r0, r5
}
   b73e0:	42a0      	cmp	r0, r4
   b73e2:	bfd4      	ite	le
   b73e4:	2000      	movle	r0, #0
   b73e6:	2001      	movgt	r0, #1
   b73e8:	bd70      	pop	{r4, r5, r6, pc}
   b73ea:	bf00      	nop
   b73ec:	2003e684 	.word	0x2003e684
   b73f0:	000186a0 	.word	0x000186a0
   b73f4:	2003e72c 	.word	0x2003e72c

000b73f8 <_ZN9SdSpiCard8spiStartEv>:
fail:
  spiStop();
  return false;
}
//-----------------------------------------------------------------------------
void SdSpiCard::spiStart() {
   b73f8:	b538      	push	{r3, r4, r5, lr}
  if (!m_spiActive) {
   b73fa:	7a05      	ldrb	r5, [r0, #8]
void SdSpiCard::spiStart() {
   b73fc:	4604      	mov	r4, r0
  if (!m_spiActive) {
   b73fe:	b94d      	cbnz	r5, b7414 <_ZN9SdSpiCard8spiStartEv+0x1c>
    m_spiDriver->activate();
   b7400:	6840      	ldr	r0, [r0, #4]
   b7402:	f000 fa6b 	bl	b78dc <_ZN14SdSpiAltDriver8activateEv>
     digitalWrite(m_csPin, LOW);
   b7406:	6863      	ldr	r3, [r4, #4]
   b7408:	4629      	mov	r1, r5
   b740a:	7d18      	ldrb	r0, [r3, #20]
   b740c:	f003 fbe1 	bl	babd2 <digitalWrite>
    spiActivate();
    spiSelect();
    m_spiActive = true;
   b7410:	2301      	movs	r3, #1
   b7412:	7223      	strb	r3, [r4, #8]
  }
}
   b7414:	bd38      	pop	{r3, r4, r5, pc}

000b7416 <_ZN9SdSpiCard7spiStopEv>:
//-----------------------------------------------------------------------------
void SdSpiCard::spiStop() {
   b7416:	b510      	push	{r4, lr}
  if (m_spiActive) {
   b7418:	7a03      	ldrb	r3, [r0, #8]
void SdSpiCard::spiStop() {
   b741a:	4604      	mov	r4, r0
  if (m_spiActive) {
   b741c:	b16b      	cbz	r3, b743a <_ZN9SdSpiCard7spiStopEv+0x24>
    digitalWrite(m_csPin, HIGH);
   b741e:	6843      	ldr	r3, [r0, #4]
   b7420:	2101      	movs	r1, #1
   b7422:	7d18      	ldrb	r0, [r3, #20]
   b7424:	f003 fbd5 	bl	babd2 <digitalWrite>
    spiUnselect();
    spiSend(0XFF);
   b7428:	6860      	ldr	r0, [r4, #4]
   b742a:	21ff      	movs	r1, #255	; 0xff
   b742c:	f7ff ffbb 	bl	b73a6 <_ZN9SdSpiCard7spiSendEh.isra.0>
    m_spiDriver->deactivate();
   b7430:	6860      	ldr	r0, [r4, #4]
   b7432:	f000 fa67 	bl	b7904 <_ZN14SdSpiAltDriver10deactivateEv>
    spiDeactivate();
    m_spiActive = false;
   b7436:	2300      	movs	r3, #0
   b7438:	7223      	strb	r3, [r4, #8]
  }
}
   b743a:	bd10      	pop	{r4, pc}

000b743c <_ZN9SdSpiCard8readDataEPhj>:
bool SdSpiCard::readData(uint8_t* dst, size_t count) {
   b743c:	b5f8      	push	{r3, r4, r5, r6, r7, lr}
   b743e:	4604      	mov	r4, r0
   b7440:	460d      	mov	r5, r1
   b7442:	4616      	mov	r6, r2
   b7444:	f000 faf0 	bl	b7a28 <HAL_Timer_Get_Milli_Seconds>
#define F(str) (str)
#endif  // F
//------------------------------------------------------------------------------
/** \return the time in milliseconds. */
inline uint16_t curTimeMS() {
  return millis();
   b7448:	b287      	uxth	r7, r0
  while ((m_status = spiReceive()) == 0XFF) {
   b744a:	6860      	ldr	r0, [r4, #4]
   b744c:	f7ff ffad 	bl	b73aa <_ZN9SdSpiCard10spiReceiveEv.isra.0>
   b7450:	28ff      	cmp	r0, #255	; 0xff
   b7452:	7260      	strb	r0, [r4, #9]
   b7454:	d10e      	bne.n	b7474 <_ZN9SdSpiCard8readDataEPhj+0x38>
    if (isTimedOut(t0, SD_READ_TIMEOUT)) {
   b7456:	f44f 727a 	mov.w	r2, #1000	; 0x3e8
   b745a:	4639      	mov	r1, r7
   b745c:	4620      	mov	r0, r4
   b745e:	f7ff ffa7 	bl	b73b0 <_ZN9SdSpiCard10isTimedOutEtt>
   b7462:	2800      	cmp	r0, #0
   b7464:	d0f1      	beq.n	b744a <_ZN9SdSpiCard8readDataEPhj+0xe>
    m_errorCode = code;
   b7466:	2355      	movs	r3, #85	; 0x55
  spiStop();
   b7468:	4620      	mov	r0, r4
   b746a:	7023      	strb	r3, [r4, #0]
   b746c:	f7ff ffd3 	bl	b7416 <_ZN9SdSpiCard7spiStopEv>
  return false;
   b7470:	2000      	movs	r0, #0
}
   b7472:	bdf8      	pop	{r3, r4, r5, r6, r7, pc}
  if (m_status != DATA_START_BLOCK) {
   b7474:	28fe      	cmp	r0, #254	; 0xfe
   b7476:	d001      	beq.n	b747c <_ZN9SdSpiCard8readDataEPhj+0x40>
   b7478:	2350      	movs	r3, #80	; 0x50
   b747a:	e7f5      	b.n	b7468 <_ZN9SdSpiCard8readDataEPhj+0x2c>
    return  m_spiDriver->receive(buf, n);
   b747c:	6860      	ldr	r0, [r4, #4]
   b747e:	4632      	mov	r2, r6
   b7480:	4629      	mov	r1, r5
   b7482:	f000 fa47 	bl	b7914 <_ZN14SdSpiAltDriver7receiveEPhj>
  if ((m_status = spiReceive(dst, count))) {
   b7486:	7260      	strb	r0, [r4, #9]
   b7488:	b108      	cbz	r0, b748e <_ZN9SdSpiCard8readDataEPhj+0x52>
    m_errorCode = code;
   b748a:	2360      	movs	r3, #96	; 0x60
   b748c:	e7ec      	b.n	b7468 <_ZN9SdSpiCard8readDataEPhj+0x2c>
  spiReceive();
   b748e:	6860      	ldr	r0, [r4, #4]
   b7490:	f7ff ff8b 	bl	b73aa <_ZN9SdSpiCard10spiReceiveEv.isra.0>
  spiReceive();
   b7494:	6860      	ldr	r0, [r4, #4]
   b7496:	f7ff ff88 	bl	b73aa <_ZN9SdSpiCard10spiReceiveEv.isra.0>
  return true;
   b749a:	2001      	movs	r0, #1
   b749c:	e7e9      	b.n	b7472 <_ZN9SdSpiCard8readDataEPhj+0x36>

000b749e <_ZN9SdSpiCard11waitNotBusyEt>:
  spiStop();
  return false;
}
//------------------------------------------------------------------------------
// wait for card to go not busy
bool SdSpiCard::waitNotBusy(uint16_t timeoutMS) {
   b749e:	b570      	push	{r4, r5, r6, lr}
   b74a0:	4604      	mov	r4, r0
   b74a2:	460e      	mov	r6, r1
   b74a4:	f000 fac0 	bl	b7a28 <HAL_Timer_Get_Milli_Seconds>
   b74a8:	b285      	uxth	r5, r0
  uint16_t t0 = curTimeMS();
#if WDT_YIELD_TIME_MICROS
  // Call isTimedOut first to insure yield is called.
  while (!isTimedOut(t0, timeoutMS)) {
   b74aa:	4632      	mov	r2, r6
   b74ac:	4629      	mov	r1, r5
   b74ae:	4620      	mov	r0, r4
   b74b0:	f7ff ff7e 	bl	b73b0 <_ZN9SdSpiCard10isTimedOutEtt>
   b74b4:	b930      	cbnz	r0, b74c4 <_ZN9SdSpiCard11waitNotBusyEt+0x26>
    if (spiReceive() == 0XFF) {
   b74b6:	6860      	ldr	r0, [r4, #4]
   b74b8:	f7ff ff77 	bl	b73aa <_ZN9SdSpiCard10spiReceiveEv.isra.0>
   b74bc:	28ff      	cmp	r0, #255	; 0xff
   b74be:	d1f4      	bne.n	b74aa <_ZN9SdSpiCard11waitNotBusyEt+0xc>
      return true;
   b74c0:	2001      	movs	r0, #1
      return false;
    }
  }
  return true;
#endif  // WDT_YIELD_TIME_MICROS
}
   b74c2:	bd70      	pop	{r4, r5, r6, pc}
  return false;
   b74c4:	2000      	movs	r0, #0
   b74c6:	e7fc      	b.n	b74c2 <_ZN9SdSpiCard11waitNotBusyEt+0x24>

000b74c8 <_ZN9SdSpiCard11cardCommandEhm>:
uint8_t SdSpiCard::cardCommand(uint8_t cmd, uint32_t arg) {
   b74c8:	b5f7      	push	{r0, r1, r2, r4, r5, r6, r7, lr}
  if (!m_spiActive) {
   b74ca:	7a03      	ldrb	r3, [r0, #8]
uint8_t SdSpiCard::cardCommand(uint8_t cmd, uint32_t arg) {
   b74cc:	9201      	str	r2, [sp, #4]
   b74ce:	4604      	mov	r4, r0
   b74d0:	460d      	mov	r5, r1
  if (!m_spiActive) {
   b74d2:	b90b      	cbnz	r3, b74d8 <_ZN9SdSpiCard11cardCommandEhm+0x10>
    spiStart();
   b74d4:	f7ff ff90 	bl	b73f8 <_ZN9SdSpiCard8spiStartEv>
  if (cmd != CMD0) {
   b74d8:	b125      	cbz	r5, b74e4 <_ZN9SdSpiCard11cardCommandEhm+0x1c>
    waitNotBusy(SD_CMD_TIMEOUT);
   b74da:	f44f 7196 	mov.w	r1, #300	; 0x12c
   b74de:	4620      	mov	r0, r4
   b74e0:	f7ff ffdd 	bl	b749e <_ZN9SdSpiCard11waitNotBusyEt>
  spiSend(cmd | 0x40);
   b74e4:	6860      	ldr	r0, [r4, #4]
   b74e6:	f045 0140 	orr.w	r1, r5, #64	; 0x40
   b74ea:	f7ff ff5c 	bl	b73a6 <_ZN9SdSpiCard7spiSendEh.isra.0>
   b74ee:	2603      	movs	r6, #3
    spiSend(pa[i]);
   b74f0:	af01      	add	r7, sp, #4
   b74f2:	5db9      	ldrb	r1, [r7, r6]
   b74f4:	6860      	ldr	r0, [r4, #4]
   b74f6:	f7ff ff56 	bl	b73a6 <_ZN9SdSpiCard7spiSendEh.isra.0>
  for (int8_t i = 3; i >= 0; i--) {
   b74fa:	3e01      	subs	r6, #1
   b74fc:	d2f9      	bcs.n	b74f2 <_ZN9SdSpiCard11cardCommandEhm+0x2a>
  spiSend(cmd == CMD0 ? 0X95 : 0X87);
   b74fe:	2d00      	cmp	r5, #0
   b7500:	6860      	ldr	r0, [r4, #4]
   b7502:	bf0c      	ite	eq
   b7504:	2195      	moveq	r1, #149	; 0x95
   b7506:	2187      	movne	r1, #135	; 0x87
   b7508:	f7ff ff4d 	bl	b73a6 <_ZN9SdSpiCard7spiSendEh.isra.0>
  spiReceive();
   b750c:	6860      	ldr	r0, [r4, #4]
   b750e:	f7ff ff4c 	bl	b73aa <_ZN9SdSpiCard10spiReceiveEv.isra.0>
   b7512:	250b      	movs	r5, #11
  for (uint8_t i = 0; ((m_status = spiReceive()) & 0X80) && i < 10; i++) {
   b7514:	6860      	ldr	r0, [r4, #4]
   b7516:	f7ff ff48 	bl	b73aa <_ZN9SdSpiCard10spiReceiveEv.isra.0>
   b751a:	0603      	lsls	r3, r0, #24
   b751c:	7260      	strb	r0, [r4, #9]
   b751e:	d503      	bpl.n	b7528 <_ZN9SdSpiCard11cardCommandEhm+0x60>
   b7520:	3d01      	subs	r5, #1
   b7522:	f015 05ff 	ands.w	r5, r5, #255	; 0xff
   b7526:	d1f5      	bne.n	b7514 <_ZN9SdSpiCard11cardCommandEhm+0x4c>
}
   b7528:	b003      	add	sp, #12
   b752a:	bdf0      	pop	{r4, r5, r6, r7, pc}

000b752c <_ZN9SdSpiCard8cardAcmdEhm>:
  uint8_t cardAcmd(uint8_t cmd, uint32_t arg) {
   b752c:	b570      	push	{r4, r5, r6, lr}
   b752e:	4604      	mov	r4, r0
   b7530:	460d      	mov	r5, r1
   b7532:	4616      	mov	r6, r2
    cardCommand(CMD55, 0);
   b7534:	2137      	movs	r1, #55	; 0x37
   b7536:	2200      	movs	r2, #0
   b7538:	f7ff ffc6 	bl	b74c8 <_ZN9SdSpiCard11cardCommandEhm>
    return cardCommand(cmd, arg);
   b753c:	4632      	mov	r2, r6
   b753e:	4629      	mov	r1, r5
   b7540:	4620      	mov	r0, r4
  }
   b7542:	e8bd 4070 	ldmia.w	sp!, {r4, r5, r6, lr}
    return cardCommand(cmd, arg);
   b7546:	f7ff bfbf 	b.w	b74c8 <_ZN9SdSpiCard11cardCommandEhm>
	...

000b754c <_ZN9SdSpiCard5beginEP14SdSpiAltDriverhN8particle11SPISettingsE>:
bool SdSpiCard::begin(SdSpiDriver* spi, uint8_t csPin, SPISettings settings) {
   b754c:	e92d 41f0 	stmdb	sp!, {r4, r5, r6, r7, r8, lr}
  m_spiActive = false;
   b7550:	2500      	movs	r5, #0
   b7552:	7205      	strb	r5, [r0, #8]
  m_errorCode = SD_CARD_ERROR_NONE;
   b7554:	7005      	strb	r5, [r0, #0]
  m_type = 0;
   b7556:	7285      	strb	r5, [r0, #10]
  m_spiDriver = spi;
   b7558:	6041      	str	r1, [r0, #4]
bool SdSpiCard::begin(SdSpiDriver* spi, uint8_t csPin, SPISettings settings) {
   b755a:	4604      	mov	r4, r0
   b755c:	4690      	mov	r8, r2
   b755e:	461e      	mov	r6, r3
   b7560:	f000 fa62 	bl	b7a28 <HAL_Timer_Get_Milli_Seconds>
  m_spiDriver->begin(csPin);
   b7564:	4641      	mov	r1, r8
   b7566:	4607      	mov	r7, r0
   b7568:	6860      	ldr	r0, [r4, #4]
   b756a:	f000 f9bb 	bl	b78e4 <_ZN14SdSpiAltDriver5beginEh>
  m_spiDriver->setSpiSettings(SD_SCK_HZ(250000));
   b756e:	6863      	ldr	r3, [r4, #4]
class SPISettings : public Printable {
   b7570:	4a49      	ldr	r2, [pc, #292]	; (b7698 <_ZN9SdSpiCard5beginEP14SdSpiAltDriverhN8particle11SPISettingsE+0x14c>)
   b7572:	721d      	strb	r5, [r3, #8]
   b7574:	2501      	movs	r5, #1
   b7576:	60da      	str	r2, [r3, #12]
   b7578:	821d      	strh	r5, [r3, #16]
  spiStart();
   b757a:	4620      	mov	r0, r4
   b757c:	f7ff ff3c 	bl	b73f8 <_ZN9SdSpiCard8spiStartEv>
   b7580:	6863      	ldr	r3, [r4, #4]
   b7582:	4629      	mov	r1, r5
   b7584:	7d18      	ldrb	r0, [r3, #20]
   b7586:	f003 fb24 	bl	babd2 <digitalWrite>
   b758a:	250a      	movs	r5, #10
    spiSend(0XFF);
   b758c:	6860      	ldr	r0, [r4, #4]
   b758e:	21ff      	movs	r1, #255	; 0xff
  for (uint8_t i = 0; i < 10; i++) {
   b7590:	3d01      	subs	r5, #1
    spiSend(0XFF);
   b7592:	f7ff ff08 	bl	b73a6 <_ZN9SdSpiCard7spiSendEh.isra.0>
  for (uint8_t i = 0; i < 10; i++) {
   b7596:	f015 05ff 	ands.w	r5, r5, #255	; 0xff
   b759a:	d1f7      	bne.n	b758c <_ZN9SdSpiCard5beginEP14SdSpiAltDriverhN8particle11SPISettingsE+0x40>
     digitalWrite(m_csPin, LOW);
   b759c:	6863      	ldr	r3, [r4, #4]
   b759e:	4629      	mov	r1, r5
   b75a0:	7d18      	ldrb	r0, [r3, #20]
   b75a2:	f003 fb16 	bl	babd2 <digitalWrite>
  }
   b75a6:	250a      	movs	r5, #10
    if (cardCommand(CMD0, 0) == R1_IDLE_STATE) {
   b75a8:	2200      	movs	r2, #0
   b75aa:	4611      	mov	r1, r2
   b75ac:	4620      	mov	r0, r4
   b75ae:	f7ff ff8b 	bl	b74c8 <_ZN9SdSpiCard11cardCommandEhm>
   b75b2:	2801      	cmp	r0, #1
   b75b4:	4680      	mov	r8, r0
   b75b6:	d018      	beq.n	b75ea <_ZN9SdSpiCard5beginEP14SdSpiAltDriverhN8particle11SPISettingsE+0x9e>
    if (i == SD_CMD0_RETRY) {
   b75b8:	3d01      	subs	r5, #1
   b75ba:	f015 05ff 	ands.w	r5, r5, #255	; 0xff
   b75be:	d107      	bne.n	b75d0 <_ZN9SdSpiCard5beginEP14SdSpiAltDriverhN8particle11SPISettingsE+0x84>
    m_errorCode = code;
   b75c0:	2320      	movs	r3, #32
  spiStop();
   b75c2:	4620      	mov	r0, r4
   b75c4:	7023      	strb	r3, [r4, #0]
   b75c6:	f7ff ff26 	bl	b7416 <_ZN9SdSpiCard7spiStopEv>
  return false;
   b75ca:	2000      	movs	r0, #0
}
   b75cc:	e8bd 81f0 	ldmia.w	sp!, {r4, r5, r6, r7, r8, pc}
    spiSend(STOP_TRAN_TOKEN);
   b75d0:	6860      	ldr	r0, [r4, #4]
   b75d2:	21fd      	movs	r1, #253	; 0xfd
   b75d4:	f7ff fee7 	bl	b73a6 <_ZN9SdSpiCard7spiSendEh.isra.0>
   b75d8:	f44f 7802 	mov.w	r8, #520	; 0x208
      spiReceive();
   b75dc:	6860      	ldr	r0, [r4, #4]
   b75de:	f7ff fee4 	bl	b73aa <_ZN9SdSpiCard10spiReceiveEv.isra.0>
    for (int i = 0; i < 520; i++) {
   b75e2:	f1b8 0801 	subs.w	r8, r8, #1
   b75e6:	d1f9      	bne.n	b75dc <_ZN9SdSpiCard5beginEP14SdSpiAltDriverhN8particle11SPISettingsE+0x90>
   b75e8:	e7de      	b.n	b75a8 <_ZN9SdSpiCard5beginEP14SdSpiAltDriverhN8particle11SPISettingsE+0x5c>
  if (cardCommand(CMD8, 0x1AA) == (R1_ILLEGAL_COMMAND | R1_IDLE_STATE)) {
   b75ea:	f44f 72d5 	mov.w	r2, #426	; 0x1aa
   b75ee:	2108      	movs	r1, #8
   b75f0:	4620      	mov	r0, r4
   b75f2:	f7ff ff69 	bl	b74c8 <_ZN9SdSpiCard11cardCommandEhm>
   b75f6:	2805      	cmp	r0, #5
   b75f8:	d114      	bne.n	b7624 <_ZN9SdSpiCard5beginEP14SdSpiAltDriverhN8particle11SPISettingsE+0xd8>
    m_type = value;
   b75fa:	f884 800a 	strb.w	r8, [r4, #10]
  arg = type() == SD_CARD_TYPE_SD2 ? 0X40000000 : 0;
   b75fe:	2500      	movs	r5, #0
   b7600:	b2bf      	uxth	r7, r7
  while (cardAcmd(ACMD41, arg) != R1_READY_STATE) {
   b7602:	462a      	mov	r2, r5
   b7604:	2129      	movs	r1, #41	; 0x29
   b7606:	4620      	mov	r0, r4
   b7608:	f7ff ff90 	bl	b752c <_ZN9SdSpiCard8cardAcmdEhm>
   b760c:	4602      	mov	r2, r0
   b760e:	b1d8      	cbz	r0, b7648 <_ZN9SdSpiCard5beginEP14SdSpiAltDriverhN8particle11SPISettingsE+0xfc>
    if (isTimedOut(t0, SD_INIT_TIMEOUT)) {
   b7610:	f44f 62fa 	mov.w	r2, #2000	; 0x7d0
   b7614:	4639      	mov	r1, r7
   b7616:	4620      	mov	r0, r4
   b7618:	f7ff feca 	bl	b73b0 <_ZN9SdSpiCard10isTimedOutEtt>
   b761c:	2800      	cmp	r0, #0
   b761e:	d0f0      	beq.n	b7602 <_ZN9SdSpiCard5beginEP14SdSpiAltDriverhN8particle11SPISettingsE+0xb6>
    m_errorCode = code;
   b7620:	2343      	movs	r3, #67	; 0x43
   b7622:	e7ce      	b.n	b75c2 <_ZN9SdSpiCard5beginEP14SdSpiAltDriverhN8particle11SPISettingsE+0x76>
   b7624:	2504      	movs	r5, #4
      m_status = spiReceive();
   b7626:	6860      	ldr	r0, [r4, #4]
   b7628:	f7ff febf 	bl	b73aa <_ZN9SdSpiCard10spiReceiveEv.isra.0>
    for (uint8_t i = 0; i < 4; i++) {
   b762c:	3d01      	subs	r5, #1
   b762e:	f015 05ff 	ands.w	r5, r5, #255	; 0xff
      m_status = spiReceive();
   b7632:	7260      	strb	r0, [r4, #9]
    for (uint8_t i = 0; i < 4; i++) {
   b7634:	d1f7      	bne.n	b7626 <_ZN9SdSpiCard5beginEP14SdSpiAltDriverhN8particle11SPISettingsE+0xda>
    if (m_status == 0XAA) {
   b7636:	28aa      	cmp	r0, #170	; 0xaa
   b7638:	d104      	bne.n	b7644 <_ZN9SdSpiCard5beginEP14SdSpiAltDriverhN8particle11SPISettingsE+0xf8>
    m_type = value;
   b763a:	2302      	movs	r3, #2
   b763c:	72a3      	strb	r3, [r4, #10]
  arg = type() == SD_CARD_TYPE_SD2 ? 0X40000000 : 0;
   b763e:	f04f 4580 	mov.w	r5, #1073741824	; 0x40000000
   b7642:	e7dd      	b.n	b7600 <_ZN9SdSpiCard5beginEP14SdSpiAltDriverhN8particle11SPISettingsE+0xb4>
    m_errorCode = code;
   b7644:	2325      	movs	r3, #37	; 0x25
   b7646:	e7bc      	b.n	b75c2 <_ZN9SdSpiCard5beginEP14SdSpiAltDriverhN8particle11SPISettingsE+0x76>
  if (type() == SD_CARD_TYPE_SD2) {
   b7648:	7aa3      	ldrb	r3, [r4, #10]
   b764a:	2b02      	cmp	r3, #2
   b764c:	d118      	bne.n	b7680 <_ZN9SdSpiCard5beginEP14SdSpiAltDriverhN8particle11SPISettingsE+0x134>
    if (cardCommand(CMD58, 0)) {
   b764e:	213a      	movs	r1, #58	; 0x3a
   b7650:	4620      	mov	r0, r4
   b7652:	f7ff ff39 	bl	b74c8 <_ZN9SdSpiCard11cardCommandEhm>
   b7656:	b108      	cbz	r0, b765c <_ZN9SdSpiCard5beginEP14SdSpiAltDriverhN8particle11SPISettingsE+0x110>
   b7658:	2337      	movs	r3, #55	; 0x37
   b765a:	e7b2      	b.n	b75c2 <_ZN9SdSpiCard5beginEP14SdSpiAltDriverhN8particle11SPISettingsE+0x76>
    if ((spiReceive() & 0XC0) == 0XC0) {
   b765c:	6860      	ldr	r0, [r4, #4]
   b765e:	f7ff fea4 	bl	b73aa <_ZN9SdSpiCard10spiReceiveEv.isra.0>
   b7662:	f000 00c0 	and.w	r0, r0, #192	; 0xc0
   b7666:	28c0      	cmp	r0, #192	; 0xc0
    m_type = value;
   b7668:	bf04      	itt	eq
   b766a:	2303      	moveq	r3, #3
   b766c:	72a3      	strbeq	r3, [r4, #10]
      spiReceive();
   b766e:	6860      	ldr	r0, [r4, #4]
   b7670:	f7ff fe9b 	bl	b73aa <_ZN9SdSpiCard10spiReceiveEv.isra.0>
   b7674:	6860      	ldr	r0, [r4, #4]
   b7676:	f7ff fe98 	bl	b73aa <_ZN9SdSpiCard10spiReceiveEv.isra.0>
   b767a:	6860      	ldr	r0, [r4, #4]
   b767c:	f7ff fe95 	bl	b73aa <_ZN9SdSpiCard10spiReceiveEv.isra.0>
  spiStop();
   b7680:	4620      	mov	r0, r4
   b7682:	f7ff fec8 	bl	b7416 <_ZN9SdSpiCard7spiStopEv>
  m_spiDriver->setSpiSettings(settings);
   b7686:	6863      	ldr	r3, [r4, #4]
   b7688:	7930      	ldrb	r0, [r6, #4]
   b768a:	68b1      	ldr	r1, [r6, #8]
   b768c:	89b2      	ldrh	r2, [r6, #12]
   b768e:	821a      	strh	r2, [r3, #16]
   b7690:	7218      	strb	r0, [r3, #8]
   b7692:	60d9      	str	r1, [r3, #12]
  return true;
   b7694:	2001      	movs	r0, #1
   b7696:	e799      	b.n	b75cc <_ZN9SdSpiCard5beginEP14SdSpiAltDriverhN8particle11SPISettingsE+0x80>
   b7698:	0003d090 	.word	0x0003d090

000b769c <_ZN9SdSpiCard9readBlockEmPh>:
bool SdSpiCard::readBlock(uint32_t blockNumber, uint8_t* dst) {
   b769c:	b538      	push	{r3, r4, r5, lr}
  if (type() != SD_CARD_TYPE_SDHC) {
   b769e:	7a83      	ldrb	r3, [r0, #10]
   b76a0:	2b03      	cmp	r3, #3
    blockNumber <<= 9;
   b76a2:	bf18      	it	ne
   b76a4:	0249      	lslne	r1, r1, #9
bool SdSpiCard::readBlock(uint32_t blockNumber, uint8_t* dst) {
   b76a6:	4615      	mov	r5, r2
  if (cardCommand(CMD17, blockNumber)) {
   b76a8:	460a      	mov	r2, r1
   b76aa:	2111      	movs	r1, #17
bool SdSpiCard::readBlock(uint32_t blockNumber, uint8_t* dst) {
   b76ac:	4604      	mov	r4, r0
  if (cardCommand(CMD17, blockNumber)) {
   b76ae:	f7ff ff0b 	bl	b74c8 <_ZN9SdSpiCard11cardCommandEhm>
   b76b2:	b130      	cbz	r0, b76c2 <_ZN9SdSpiCard9readBlockEmPh+0x26>
    m_errorCode = code;
   b76b4:	2330      	movs	r3, #48	; 0x30
   b76b6:	7023      	strb	r3, [r4, #0]
  spiStop();
   b76b8:	4620      	mov	r0, r4
   b76ba:	f7ff feac 	bl	b7416 <_ZN9SdSpiCard7spiStopEv>
  return false;
   b76be:	2500      	movs	r5, #0
   b76c0:	e00b      	b.n	b76da <_ZN9SdSpiCard9readBlockEmPh+0x3e>
  if (!readData(dst, 512)) {
   b76c2:	4629      	mov	r1, r5
   b76c4:	f44f 7200 	mov.w	r2, #512	; 0x200
   b76c8:	4620      	mov	r0, r4
   b76ca:	f7ff feb7 	bl	b743c <_ZN9SdSpiCard8readDataEPhj>
   b76ce:	4605      	mov	r5, r0
   b76d0:	2800      	cmp	r0, #0
   b76d2:	d0f1      	beq.n	b76b8 <_ZN9SdSpiCard9readBlockEmPh+0x1c>
  spiStop();
   b76d4:	4620      	mov	r0, r4
   b76d6:	f7ff fe9e 	bl	b7416 <_ZN9SdSpiCard7spiStopEv>
}
   b76da:	4628      	mov	r0, r5
   b76dc:	bd38      	pop	{r3, r4, r5, pc}

000b76de <_ZN9SdSpiCard9readStartEm>:
bool SdSpiCard::readStart(uint32_t blockNumber) {
   b76de:	b510      	push	{r4, lr}
  if (type() != SD_CARD_TYPE_SDHC) {
   b76e0:	7a83      	ldrb	r3, [r0, #10]
   b76e2:	2b03      	cmp	r3, #3
bool SdSpiCard::readStart(uint32_t blockNumber) {
   b76e4:	460a      	mov	r2, r1
    blockNumber <<= 9;
   b76e6:	bf18      	it	ne
   b76e8:	024a      	lslne	r2, r1, #9
  if (cardCommand(CMD18, blockNumber)) {
   b76ea:	2112      	movs	r1, #18
bool SdSpiCard::readStart(uint32_t blockNumber) {
   b76ec:	4604      	mov	r4, r0
  if (cardCommand(CMD18, blockNumber)) {
   b76ee:	f7ff feeb 	bl	b74c8 <_ZN9SdSpiCard11cardCommandEhm>
   b76f2:	b130      	cbz	r0, b7702 <_ZN9SdSpiCard9readStartEm+0x24>
   b76f4:	2331      	movs	r3, #49	; 0x31
  spiStop();
   b76f6:	4620      	mov	r0, r4
   b76f8:	7023      	strb	r3, [r4, #0]
   b76fa:	f7ff fe8c 	bl	b7416 <_ZN9SdSpiCard7spiStopEv>
  return false;
   b76fe:	2000      	movs	r0, #0
}
   b7700:	bd10      	pop	{r4, pc}
  return true;
   b7702:	2001      	movs	r0, #1
   b7704:	e7fc      	b.n	b7700 <_ZN9SdSpiCard9readStartEm+0x22>

000b7706 <_ZN9SdSpiCard8readStopEv>:
bool SdSpiCard::readStop() {
   b7706:	b510      	push	{r4, lr}
  if (cardCommand(CMD12, 0)) {
   b7708:	2200      	movs	r2, #0
   b770a:	210c      	movs	r1, #12
bool SdSpiCard::readStop() {
   b770c:	4604      	mov	r4, r0
  if (cardCommand(CMD12, 0)) {
   b770e:	f7ff fedb 	bl	b74c8 <_ZN9SdSpiCard11cardCommandEhm>
   b7712:	b130      	cbz	r0, b7722 <_ZN9SdSpiCard8readStopEv+0x1c>
   b7714:	2328      	movs	r3, #40	; 0x28
  spiStop();
   b7716:	4620      	mov	r0, r4
   b7718:	7023      	strb	r3, [r4, #0]
   b771a:	f7ff fe7c 	bl	b7416 <_ZN9SdSpiCard7spiStopEv>
  return false;
   b771e:	2000      	movs	r0, #0
}
   b7720:	bd10      	pop	{r4, pc}
  spiStop();
   b7722:	4620      	mov	r0, r4
   b7724:	f7ff fe77 	bl	b7416 <_ZN9SdSpiCard7spiStopEv>
  return true;
   b7728:	2001      	movs	r0, #1
   b772a:	e7f9      	b.n	b7720 <_ZN9SdSpiCard8readStopEv+0x1a>

000b772c <_ZN9SdSpiCard10readBlocksEmPhj>:
bool SdSpiCard::readBlocks(uint32_t block, uint8_t* dst, size_t count) {
   b772c:	b5f8      	push	{r3, r4, r5, r6, r7, lr}
   b772e:	4604      	mov	r4, r0
   b7730:	4616      	mov	r6, r2
   b7732:	461f      	mov	r7, r3
  if (!readStart(block)) {
   b7734:	f7ff ffd3 	bl	b76de <_ZN9SdSpiCard9readStartEm>
   b7738:	b168      	cbz	r0, b7756 <_ZN9SdSpiCard10readBlocksEmPhj+0x2a>
   b773a:	2500      	movs	r5, #0
  for (uint16_t b = 0; b < count; b++, dst += 512) {
   b773c:	b2ab      	uxth	r3, r5
   b773e:	429f      	cmp	r7, r3
   b7740:	eb06 2145 	add.w	r1, r6, r5, lsl #9
   b7744:	d909      	bls.n	b775a <_ZN9SdSpiCard10readBlocksEmPhj+0x2e>
    if (!readData(dst, 512)) {
   b7746:	f44f 7200 	mov.w	r2, #512	; 0x200
   b774a:	4620      	mov	r0, r4
   b774c:	f7ff fe76 	bl	b743c <_ZN9SdSpiCard8readDataEPhj>
   b7750:	3501      	adds	r5, #1
   b7752:	2800      	cmp	r0, #0
   b7754:	d1f2      	bne.n	b773c <_ZN9SdSpiCard10readBlocksEmPhj+0x10>
}
   b7756:	2000      	movs	r0, #0
   b7758:	bdf8      	pop	{r3, r4, r5, r6, r7, pc}
  return readStop();
   b775a:	4620      	mov	r0, r4
}
   b775c:	e8bd 40f8 	ldmia.w	sp!, {r3, r4, r5, r6, r7, lr}
  return readStop();
   b7760:	f7ff bfd1 	b.w	b7706 <_ZN9SdSpiCard8readStopEv>

000b7764 <_ZN9SdSpiCard9writeDataEhPKh>:
  spiStop();
  return false;
}
//------------------------------------------------------------------------------
// send one block of data for write block or write multiple blocks
bool SdSpiCard::writeData(uint8_t token, const uint8_t* src) {
   b7764:	b538      	push	{r3, r4, r5, lr}
   b7766:	4604      	mov	r4, r0
   b7768:	4615      	mov	r5, r2
#if USE_SD_CRC
  uint16_t crc = CRC_CCITT(src, 512);
#else  // USE_SD_CRC
  uint16_t crc = 0XFFFF;
#endif  // USE_SD_CRC
  spiSend(token);
   b776a:	6840      	ldr	r0, [r0, #4]
   b776c:	f7ff fe1b 	bl	b73a6 <_ZN9SdSpiCard7spiSendEh.isra.0>
  }
  void spiSend(const uint8_t* buf, size_t n) {
    m_spiDriver->send(buf, n);
   b7770:	f44f 7200 	mov.w	r2, #512	; 0x200
   b7774:	6860      	ldr	r0, [r4, #4]
   b7776:	4629      	mov	r1, r5
   b7778:	f000 f8e6 	bl	b7948 <_ZN14SdSpiAltDriver4sendEPKhj>
  spiSend(src, 512);
  spiSend(crc >> 8);
   b777c:	6860      	ldr	r0, [r4, #4]
   b777e:	21ff      	movs	r1, #255	; 0xff
   b7780:	f7ff fe11 	bl	b73a6 <_ZN9SdSpiCard7spiSendEh.isra.0>
  spiSend(crc & 0XFF);
   b7784:	6860      	ldr	r0, [r4, #4]
   b7786:	21ff      	movs	r1, #255	; 0xff
   b7788:	f7ff fe0d 	bl	b73a6 <_ZN9SdSpiCard7spiSendEh.isra.0>

  m_status = spiReceive();
   b778c:	6860      	ldr	r0, [r4, #4]
   b778e:	f7ff fe0c 	bl	b73aa <_ZN9SdSpiCard10spiReceiveEv.isra.0>
   b7792:	7260      	strb	r0, [r4, #9]
  if ((m_status & DATA_RES_MASK) != DATA_RES_ACCEPTED) {
   b7794:	f000 001f 	and.w	r0, r0, #31
   b7798:	2805      	cmp	r0, #5
   b779a:	d006      	beq.n	b77aa <_ZN9SdSpiCard9writeDataEhPKh+0x46>
    m_errorCode = code;
   b779c:	2357      	movs	r3, #87	; 0x57
    goto fail;
  }
  return true;

fail:
  spiStop();
   b779e:	4620      	mov	r0, r4
   b77a0:	7023      	strb	r3, [r4, #0]
   b77a2:	f7ff fe38 	bl	b7416 <_ZN9SdSpiCard7spiStopEv>
  return false;
   b77a6:	2000      	movs	r0, #0
}
   b77a8:	bd38      	pop	{r3, r4, r5, pc}
  return true;
   b77aa:	2001      	movs	r0, #1
   b77ac:	e7fc      	b.n	b77a8 <_ZN9SdSpiCard9writeDataEhPKh+0x44>

000b77ae <_ZN9SdSpiCard10writeBlockEmPKh>:
bool SdSpiCard::writeBlock(uint32_t blockNumber, const uint8_t* src) {
   b77ae:	b570      	push	{r4, r5, r6, lr}
  if (type() != SD_CARD_TYPE_SDHC) {
   b77b0:	7a83      	ldrb	r3, [r0, #10]
   b77b2:	2b03      	cmp	r3, #3
    blockNumber <<= 9;
   b77b4:	bf18      	it	ne
   b77b6:	0249      	lslne	r1, r1, #9
bool SdSpiCard::writeBlock(uint32_t blockNumber, const uint8_t* src) {
   b77b8:	4615      	mov	r5, r2
  if (cardCommand(CMD24, blockNumber)) {
   b77ba:	460a      	mov	r2, r1
   b77bc:	2118      	movs	r1, #24
bool SdSpiCard::writeBlock(uint32_t blockNumber, const uint8_t* src) {
   b77be:	4604      	mov	r4, r0
  if (cardCommand(CMD24, blockNumber)) {
   b77c0:	f7ff fe82 	bl	b74c8 <_ZN9SdSpiCard11cardCommandEhm>
   b77c4:	4606      	mov	r6, r0
   b77c6:	b130      	cbz	r0, b77d6 <_ZN9SdSpiCard10writeBlockEmPKh+0x28>
   b77c8:	2332      	movs	r3, #50	; 0x32
   b77ca:	7023      	strb	r3, [r4, #0]
  spiStop();
   b77cc:	4620      	mov	r0, r4
   b77ce:	f7ff fe22 	bl	b7416 <_ZN9SdSpiCard7spiStopEv>
  return false;
   b77d2:	2500      	movs	r5, #0
   b77d4:	e01f      	b.n	b7816 <_ZN9SdSpiCard10writeBlockEmPKh+0x68>
  if (!writeData(DATA_START_BLOCK, src)) {
   b77d6:	462a      	mov	r2, r5
   b77d8:	21fe      	movs	r1, #254	; 0xfe
   b77da:	4620      	mov	r0, r4
   b77dc:	f7ff ffc2 	bl	b7764 <_ZN9SdSpiCard9writeDataEhPKh>
   b77e0:	2800      	cmp	r0, #0
   b77e2:	d0f3      	beq.n	b77cc <_ZN9SdSpiCard10writeBlockEmPKh+0x1e>
  if (!waitNotBusy(SD_WRITE_TIMEOUT)) {
   b77e4:	f44f 61fa 	mov.w	r1, #2000	; 0x7d0
   b77e8:	4620      	mov	r0, r4
   b77ea:	f7ff fe58 	bl	b749e <_ZN9SdSpiCard11waitNotBusyEt>
   b77ee:	4605      	mov	r5, r0
   b77f0:	b908      	cbnz	r0, b77f6 <_ZN9SdSpiCard10writeBlockEmPKh+0x48>
   b77f2:	235a      	movs	r3, #90	; 0x5a
   b77f4:	e7e9      	b.n	b77ca <_ZN9SdSpiCard10writeBlockEmPKh+0x1c>
  if (cardCommand(CMD13, 0) || spiReceive()) {
   b77f6:	4632      	mov	r2, r6
   b77f8:	210d      	movs	r1, #13
   b77fa:	4620      	mov	r0, r4
   b77fc:	f7ff fe64 	bl	b74c8 <_ZN9SdSpiCard11cardCommandEhm>
   b7800:	b108      	cbz	r0, b7806 <_ZN9SdSpiCard10writeBlockEmPKh+0x58>
   b7802:	2329      	movs	r3, #41	; 0x29
   b7804:	e7e1      	b.n	b77ca <_ZN9SdSpiCard10writeBlockEmPKh+0x1c>
   b7806:	6860      	ldr	r0, [r4, #4]
   b7808:	f7ff fdcf 	bl	b73aa <_ZN9SdSpiCard10spiReceiveEv.isra.0>
   b780c:	2800      	cmp	r0, #0
   b780e:	d1f8      	bne.n	b7802 <_ZN9SdSpiCard10writeBlockEmPKh+0x54>
  spiStop();
   b7810:	4620      	mov	r0, r4
   b7812:	f7ff fe00 	bl	b7416 <_ZN9SdSpiCard7spiStopEv>
}
   b7816:	4628      	mov	r0, r5
   b7818:	bd70      	pop	{r4, r5, r6, pc}

000b781a <_ZN9SdSpiCard9writeDataEPKh>:
bool SdSpiCard::writeData(const uint8_t* src) {
   b781a:	b513      	push	{r0, r1, r4, lr}
   b781c:	9101      	str	r1, [sp, #4]
  if (!waitNotBusy(SD_WRITE_TIMEOUT)) {
   b781e:	f44f 61fa 	mov.w	r1, #2000	; 0x7d0
bool SdSpiCard::writeData(const uint8_t* src) {
   b7822:	4604      	mov	r4, r0
  if (!waitNotBusy(SD_WRITE_TIMEOUT)) {
   b7824:	f7ff fe3b 	bl	b749e <_ZN9SdSpiCard11waitNotBusyEt>
   b7828:	9a01      	ldr	r2, [sp, #4]
   b782a:	b930      	cbnz	r0, b783a <_ZN9SdSpiCard9writeDataEPKh+0x20>
   b782c:	235b      	movs	r3, #91	; 0x5b
   b782e:	7023      	strb	r3, [r4, #0]
  spiStop();
   b7830:	4620      	mov	r0, r4
   b7832:	f7ff fdf0 	bl	b7416 <_ZN9SdSpiCard7spiStopEv>
  return false;
   b7836:	2000      	movs	r0, #0
   b7838:	e005      	b.n	b7846 <_ZN9SdSpiCard9writeDataEPKh+0x2c>
  if (!writeData(WRITE_MULTIPLE_TOKEN, src)) {
   b783a:	21fc      	movs	r1, #252	; 0xfc
   b783c:	4620      	mov	r0, r4
   b783e:	f7ff ff91 	bl	b7764 <_ZN9SdSpiCard9writeDataEhPKh>
   b7842:	2800      	cmp	r0, #0
   b7844:	d0f4      	beq.n	b7830 <_ZN9SdSpiCard9writeDataEPKh+0x16>
}
   b7846:	b002      	add	sp, #8
   b7848:	bd10      	pop	{r4, pc}

000b784a <_ZN9SdSpiCard10writeStartEm>:
//------------------------------------------------------------------------------
bool SdSpiCard::writeStart(uint32_t blockNumber) {
   b784a:	b510      	push	{r4, lr}
  // use address if not SDHC card
  if (type() != SD_CARD_TYPE_SDHC) {
   b784c:	7a83      	ldrb	r3, [r0, #10]
   b784e:	2b03      	cmp	r3, #3
bool SdSpiCard::writeStart(uint32_t blockNumber) {
   b7850:	460a      	mov	r2, r1
    blockNumber <<= 9;
   b7852:	bf18      	it	ne
   b7854:	024a      	lslne	r2, r1, #9
  }
  if (cardCommand(CMD25, blockNumber)) {
   b7856:	2119      	movs	r1, #25
bool SdSpiCard::writeStart(uint32_t blockNumber) {
   b7858:	4604      	mov	r4, r0
  if (cardCommand(CMD25, blockNumber)) {
   b785a:	f7ff fe35 	bl	b74c8 <_ZN9SdSpiCard11cardCommandEhm>
   b785e:	b130      	cbz	r0, b786e <_ZN9SdSpiCard10writeStartEm+0x24>
   b7860:	2333      	movs	r3, #51	; 0x33
    goto fail;
  }
  return true;

fail:
  spiStop();
   b7862:	4620      	mov	r0, r4
   b7864:	7023      	strb	r3, [r4, #0]
   b7866:	f7ff fdd6 	bl	b7416 <_ZN9SdSpiCard7spiStopEv>
  return false;
   b786a:	2000      	movs	r0, #0
}
   b786c:	bd10      	pop	{r4, pc}
  return true;
   b786e:	2001      	movs	r0, #1
   b7870:	e7fc      	b.n	b786c <_ZN9SdSpiCard10writeStartEm+0x22>

000b7872 <_ZN9SdSpiCard9writeStopEv>:
fail:
  spiStop();
  return false;
}
//------------------------------------------------------------------------------
bool SdSpiCard::writeStop() {
   b7872:	b538      	push	{r3, r4, r5, lr}
  DBG_BEGIN_TIME(DBG_WRITE_STOP);
  if (!waitNotBusy(SD_WRITE_TIMEOUT)) {
   b7874:	f44f 61fa 	mov.w	r1, #2000	; 0x7d0
bool SdSpiCard::writeStop() {
   b7878:	4604      	mov	r4, r0
  if (!waitNotBusy(SD_WRITE_TIMEOUT)) {
   b787a:	f7ff fe10 	bl	b749e <_ZN9SdSpiCard11waitNotBusyEt>
   b787e:	4605      	mov	r5, r0
   b7880:	b930      	cbnz	r0, b7890 <_ZN9SdSpiCard9writeStopEv+0x1e>
   b7882:	2356      	movs	r3, #86	; 0x56
   b7884:	7023      	strb	r3, [r4, #0]
    goto fail;
  }
  DBG_END_TIME(DBG_WRITE_STOP);
  spiSend(STOP_TRAN_TOKEN);
  spiStop();
   b7886:	4620      	mov	r0, r4
   b7888:	f7ff fdc5 	bl	b7416 <_ZN9SdSpiCard7spiStopEv>

fail:
  error(SD_CARD_ERROR_STOP_TRAN);
  spiStop();
  return false;
}
   b788c:	4628      	mov	r0, r5
   b788e:	bd38      	pop	{r3, r4, r5, pc}
  spiSend(STOP_TRAN_TOKEN);
   b7890:	6860      	ldr	r0, [r4, #4]
   b7892:	21fd      	movs	r1, #253	; 0xfd
   b7894:	f7ff fd87 	bl	b73a6 <_ZN9SdSpiCard7spiSendEh.isra.0>
   b7898:	e7f5      	b.n	b7886 <_ZN9SdSpiCard9writeStopEv+0x14>

000b789a <_ZN9SdSpiCard11writeBlocksEmPKhj>:
bool SdSpiCard::writeBlocks(uint32_t block, const uint8_t* src, size_t count) {
   b789a:	b5f8      	push	{r3, r4, r5, r6, r7, lr}
   b789c:	4604      	mov	r4, r0
   b789e:	4616      	mov	r6, r2
   b78a0:	461f      	mov	r7, r3
  if (!writeStart(block)) {
   b78a2:	f7ff ffd2 	bl	b784a <_ZN9SdSpiCard10writeStartEm>
   b78a6:	b170      	cbz	r0, b78c6 <_ZN9SdSpiCard11writeBlocksEmPKhj+0x2c>
  for (size_t b = 0; b < count; b++, src += 512) {
   b78a8:	2500      	movs	r5, #0
   b78aa:	42bd      	cmp	r5, r7
   b78ac:	eb06 2145 	add.w	r1, r6, r5, lsl #9
  return writeStop();
   b78b0:	4620      	mov	r0, r4
  for (size_t b = 0; b < count; b++, src += 512) {
   b78b2:	d004      	beq.n	b78be <_ZN9SdSpiCard11writeBlocksEmPKhj+0x24>
    if (!writeData(src)) {
   b78b4:	f7ff ffb1 	bl	b781a <_ZN9SdSpiCard9writeDataEPKh>
   b78b8:	b128      	cbz	r0, b78c6 <_ZN9SdSpiCard11writeBlocksEmPKhj+0x2c>
  for (size_t b = 0; b < count; b++, src += 512) {
   b78ba:	3501      	adds	r5, #1
   b78bc:	e7f5      	b.n	b78aa <_ZN9SdSpiCard11writeBlocksEmPKhj+0x10>
}
   b78be:	e8bd 40f8 	ldmia.w	sp!, {r3, r4, r5, r6, r7, lr}
  return writeStop();
   b78c2:	f7ff bfd6 	b.w	b7872 <_ZN9SdSpiCard9writeStopEv>
  spiStop();
   b78c6:	4620      	mov	r0, r4
   b78c8:	f7ff fda5 	bl	b7416 <_ZN9SdSpiCard7spiStopEv>
}
   b78cc:	2000      	movs	r0, #0
   b78ce:	bdf8      	pop	{r3, r4, r5, r6, r7, pc}

000b78d0 <_ZL36SD_SPI_DMA_TransferComplete_Callbackv>:
#if defined(PLATFORM_ID)
#include "SdSpiDriver.h"
static volatile bool SPI_DMA_TransferCompleted = false;
//-----------------------------------------------------------------------------
static void SD_SPI_DMA_TransferComplete_Callback(void) {
    SPI_DMA_TransferCompleted = true;
   b78d0:	4b01      	ldr	r3, [pc, #4]	; (b78d8 <_ZL36SD_SPI_DMA_TransferComplete_Callbackv+0x8>)
   b78d2:	2201      	movs	r2, #1
   b78d4:	701a      	strb	r2, [r3, #0]
}
   b78d6:	4770      	bx	lr
   b78d8:	2003e688 	.word	0x2003e688

000b78dc <_ZN14SdSpiAltDriver8activateEv>:
/** Set SPI options for access to SD/SDHC cards.
 *
 * \param[in] divisor SCK clock divider relative to the APB1 or APB2 clock.
 */
void SdSpiAltDriver::activate() {
  m_spi->beginTransaction(m_spiSettings);
   b78dc:	1d01      	adds	r1, r0, #4
   b78de:	6800      	ldr	r0, [r0, #0]
   b78e0:	f002 bc34 	b.w	ba14c <_ZN8SPIClass16beginTransactionERKN8particle11SPISettingsE>

000b78e4 <_ZN14SdSpiAltDriver5beginEh>:
//------------------------------------------------------------------------------
/** Initialize the SPI bus.
 *
 * \param[in] chipSelectPin SD card chip select pin.
 */
void SdSpiAltDriver::begin(uint8_t csPin) {
   b78e4:	b510      	push	{r4, lr}
   b78e6:	4604      	mov	r4, r0
  m_csPin = csPin;
   b78e8:	7501      	strb	r1, [r0, #20]
  m_spi->begin();
   b78ea:	6800      	ldr	r0, [r0, #0]
   b78ec:	f002 fc00 	bl	ba0f0 <_ZN8SPIClass5beginEv>
  pinMode(m_csPin, OUTPUT);
   b78f0:	7d20      	ldrb	r0, [r4, #20]
   b78f2:	2101      	movs	r1, #1
   b78f4:	f003 f95c 	bl	babb0 <pinMode>
  digitalWrite(m_csPin, HIGH);
   b78f8:	7d20      	ldrb	r0, [r4, #20]
   b78fa:	2101      	movs	r1, #1
}
   b78fc:	e8bd 4010 	ldmia.w	sp!, {r4, lr}
  digitalWrite(m_csPin, HIGH);
   b7900:	f003 b967 	b.w	babd2 <digitalWrite>

000b7904 <_ZN14SdSpiAltDriver10deactivateEv>:
//------------------------------------------------------------------------------
/**
 * End SPI transaction.
 */
void SdSpiAltDriver::deactivate() {
  m_spi->endTransaction();
   b7904:	6800      	ldr	r0, [r0, #0]
   b7906:	f002 bc07 	b.w	ba118 <_ZN8SPIClass14endTransactionEv>

000b790a <_ZN14SdSpiAltDriver7receiveEv>:
/** Receive a byte.
 *
 * \return The byte.
 */
uint8_t SdSpiAltDriver::receive() {
  return m_spi->transfer(0XFF);
   b790a:	6800      	ldr	r0, [r0, #0]
   b790c:	21ff      	movs	r1, #255	; 0xff
   b790e:	f002 bc8b 	b.w	ba228 <_ZN8SPIClass8transferEh>
	...

000b7914 <_ZN14SdSpiAltDriver7receiveEPhj>:
 * \param[out] buf Buffer to receive the data.
 * \param[in] n Number of bytes to receive.
 *
 * \return Zero for no error or nonzero error code.
 */
uint8_t SdSpiAltDriver::receive(uint8_t* buf, size_t n) {
   b7914:	b537      	push	{r0, r1, r2, r4, r5, lr}
   b7916:	4613      	mov	r3, r2
  SPI_DMA_TransferCompleted = false;
  m_spi->transfer(nullptr, buf, n, SD_SPI_DMA_TransferComplete_Callback);
   b7918:	4a07      	ldr	r2, [pc, #28]	; (b7938 <_ZN14SdSpiAltDriver7receiveEPhj+0x24>)
   b791a:	9200      	str	r2, [sp, #0]
  SPI_DMA_TransferCompleted = false;
   b791c:	2500      	movs	r5, #0
   b791e:	4c07      	ldr	r4, [pc, #28]	; (b793c <_ZN14SdSpiAltDriver7receiveEPhj+0x28>)
  m_spi->transfer(nullptr, buf, n, SD_SPI_DMA_TransferComplete_Callback);
   b7920:	6800      	ldr	r0, [r0, #0]
  SPI_DMA_TransferCompleted = false;
   b7922:	7025      	strb	r5, [r4, #0]
  m_spi->transfer(nullptr, buf, n, SD_SPI_DMA_TransferComplete_Callback);
   b7924:	460a      	mov	r2, r1
   b7926:	4629      	mov	r1, r5
   b7928:	f002 fc84 	bl	ba234 <_ZN8SPIClass8transferEPKvPvjPFvvE>
  while (!SPI_DMA_TransferCompleted) {}
   b792c:	7823      	ldrb	r3, [r4, #0]
   b792e:	2b00      	cmp	r3, #0
   b7930:	d0fc      	beq.n	b792c <_ZN14SdSpiAltDriver7receiveEPhj+0x18>
  return 0;
}
   b7932:	2000      	movs	r0, #0
   b7934:	b003      	add	sp, #12
   b7936:	bd30      	pop	{r4, r5, pc}
   b7938:	000b78d1 	.word	0x000b78d1
   b793c:	2003e688 	.word	0x2003e688

000b7940 <_ZN14SdSpiAltDriver4sendEh>:
/** Send a byte.
 *
 * \param[in] b Byte to send
 */
void SdSpiAltDriver::send(uint8_t b) {
  m_spi->transfer(b);
   b7940:	6800      	ldr	r0, [r0, #0]
   b7942:	f002 bc71 	b.w	ba228 <_ZN8SPIClass8transferEh>
	...

000b7948 <_ZN14SdSpiAltDriver4sendEPKhj>:
/** Send multiple bytes.
 *
 * \param[in] buf Buffer for data to be sent.
 * \param[in] n Number of bytes to send.
 */
void SdSpiAltDriver::send(const uint8_t* buf , size_t n) {
   b7948:	b537      	push	{r0, r1, r2, r4, r5, lr}
   b794a:	4613      	mov	r3, r2
  SPI_DMA_TransferCompleted = false;

  m_spi->transfer(const_cast<uint8_t*>(buf), nullptr, n,
   b794c:	4a06      	ldr	r2, [pc, #24]	; (b7968 <_ZN14SdSpiAltDriver4sendEPKhj+0x20>)
   b794e:	9200      	str	r2, [sp, #0]
  SPI_DMA_TransferCompleted = false;
   b7950:	2500      	movs	r5, #0
   b7952:	4c06      	ldr	r4, [pc, #24]	; (b796c <_ZN14SdSpiAltDriver4sendEPKhj+0x24>)
  m_spi->transfer(const_cast<uint8_t*>(buf), nullptr, n,
   b7954:	6800      	ldr	r0, [r0, #0]
  SPI_DMA_TransferCompleted = false;
   b7956:	7025      	strb	r5, [r4, #0]
  m_spi->transfer(const_cast<uint8_t*>(buf), nullptr, n,
   b7958:	462a      	mov	r2, r5
   b795a:	f002 fc6b 	bl	ba234 <_ZN8SPIClass8transferEPKvPvjPFvvE>
                            SD_SPI_DMA_TransferComplete_Callback);

  while (!SPI_DMA_TransferCompleted) {}
   b795e:	7823      	ldrb	r3, [r4, #0]
   b7960:	2b00      	cmp	r3, #0
   b7962:	d0fc      	beq.n	b795e <_ZN14SdSpiAltDriver4sendEPKhj+0x16>
}
   b7964:	b003      	add	sp, #12
   b7966:	bd30      	pop	{r4, r5, pc}
   b7968:	000b78d1 	.word	0x000b78d1
   b796c:	2003e688 	.word	0x2003e688

000b7970 <hal_ble_stack_init>:

DYNALIB_BEGIN(hal_ble)

DYNALIB_FN(0, hal_ble, hal_ble_lock, int(void*))
DYNALIB_FN(1, hal_ble, hal_ble_unlock, int(void*))
DYNALIB_FN(2, hal_ble, hal_ble_stack_init, int(void*))
   b7970:	b508      	push	{r3, lr}
   b7972:	4b02      	ldr	r3, [pc, #8]	; (b797c <hal_ble_stack_init+0xc>)
   b7974:	681b      	ldr	r3, [r3, #0]
   b7976:	689b      	ldr	r3, [r3, #8]
   b7978:	9301      	str	r3, [sp, #4]
   b797a:	bd08      	pop	{r3, pc}
   b797c:	00030278 	.word	0x00030278

000b7980 <hal_ble_stack_deinit>:
DYNALIB_FN(3, hal_ble, hal_ble_stack_deinit, int(void*))
   b7980:	b508      	push	{r3, lr}
   b7982:	4b02      	ldr	r3, [pc, #8]	; (b798c <hal_ble_stack_deinit+0xc>)
   b7984:	681b      	ldr	r3, [r3, #0]
   b7986:	68db      	ldr	r3, [r3, #12]
   b7988:	9301      	str	r3, [sp, #4]
   b798a:	bd08      	pop	{r3, pc}
   b798c:	00030278 	.word	0x00030278

000b7990 <hal_ble_gap_disconnect>:
DYNALIB_FN(33, hal_ble, hal_ble_gap_stop_scan, int(void*))
DYNALIB_FN(34, hal_ble, hal_ble_gap_connect_deprecated, int(const hal_ble_addr_t*, void*))
DYNALIB_FN(35, hal_ble, hal_ble_gap_is_connecting, bool(const hal_ble_addr_t*, void*))
DYNALIB_FN(36, hal_ble, hal_ble_gap_is_connected, bool(const hal_ble_addr_t*, void*))
DYNALIB_FN(37, hal_ble, hal_ble_gap_connect_cancel, int(const hal_ble_addr_t*, void*))
DYNALIB_FN(38, hal_ble, hal_ble_gap_disconnect, int(hal_ble_conn_handle_t, void*))
   b7990:	b508      	push	{r3, lr}
   b7992:	4b03      	ldr	r3, [pc, #12]	; (b79a0 <hal_ble_gap_disconnect+0x10>)
   b7994:	681b      	ldr	r3, [r3, #0]
   b7996:	f8d3 3098 	ldr.w	r3, [r3, #152]	; 0x98
   b799a:	9301      	str	r3, [sp, #4]
   b799c:	bd08      	pop	{r3, pc}
   b799e:	0000      	.short	0x0000
   b79a0:	00030278 	.word	0x00030278

000b79a4 <hal_ble_set_callback_on_periph_link_events>:
DYNALIB_FN(56, hal_ble, hal_ble_gatt_client_read, ssize_t(hal_ble_conn_handle_t, hal_ble_attr_handle_t, uint8_t*, size_t, void*))

DYNALIB_FN(57, hal_ble, hal_ble_gap_connect, int(const hal_ble_conn_cfg_t*, hal_ble_conn_handle_t*, void*))
DYNALIB_FN(58, hal_ble, hal_ble_gap_get_connection_info, int(hal_ble_conn_handle_t, hal_ble_conn_info_t*, void*))
DYNALIB_FN(59, hal_ble, hal_ble_gatt_server_add_characteristic, int(const hal_ble_char_init_t*, hal_ble_char_handles_t*, void*))
DYNALIB_FN(60, hal_ble, hal_ble_set_callback_on_periph_link_events, int(hal_ble_on_link_evt_cb_t, void*, void*))
   b79a4:	b508      	push	{r3, lr}
   b79a6:	4b03      	ldr	r3, [pc, #12]	; (b79b4 <hal_ble_set_callback_on_periph_link_events+0x10>)
   b79a8:	681b      	ldr	r3, [r3, #0]
   b79aa:	f8d3 30f0 	ldr.w	r3, [r3, #240]	; 0xf0
   b79ae:	9301      	str	r3, [sp, #4]
   b79b0:	bd08      	pop	{r3, pc}
   b79b2:	0000      	.short	0x0000
   b79b4:	00030278 	.word	0x00030278

000b79b8 <os_mutex_recursive_create>:
DYNALIB_FN(13, hal_concurrent, os_mutex_destroy, int(os_mutex_t))
DYNALIB_FN(14, hal_concurrent, os_mutex_lock, int(os_mutex_t))
DYNALIB_FN(15, hal_concurrent, os_mutex_trylock, int(os_mutex_t))
DYNALIB_FN(16, hal_concurrent, os_mutex_unlock, int(os_mutex_t))

DYNALIB_FN(17, hal_concurrent, os_mutex_recursive_create, int(os_mutex_recursive_t*))
   b79b8:	b508      	push	{r3, lr}
   b79ba:	4b02      	ldr	r3, [pc, #8]	; (b79c4 <os_mutex_recursive_create+0xc>)
   b79bc:	681b      	ldr	r3, [r3, #0]
   b79be:	6c5b      	ldr	r3, [r3, #68]	; 0x44
   b79c0:	9301      	str	r3, [sp, #4]
   b79c2:	bd08      	pop	{r3, pc}
   b79c4:	00030248 	.word	0x00030248

000b79c8 <os_mutex_recursive_destroy>:
DYNALIB_FN(18, hal_concurrent, os_mutex_recursive_destroy, int(os_mutex_recursive_t))
   b79c8:	b508      	push	{r3, lr}
   b79ca:	4b02      	ldr	r3, [pc, #8]	; (b79d4 <os_mutex_recursive_destroy+0xc>)
   b79cc:	681b      	ldr	r3, [r3, #0]
   b79ce:	6c9b      	ldr	r3, [r3, #72]	; 0x48
   b79d0:	9301      	str	r3, [sp, #4]
   b79d2:	bd08      	pop	{r3, pc}
   b79d4:	00030248 	.word	0x00030248

000b79d8 <os_mutex_recursive_lock>:
DYNALIB_FN(19, hal_concurrent, os_mutex_recursive_lock, int(os_mutex_recursive_t))
   b79d8:	b508      	push	{r3, lr}
   b79da:	4b02      	ldr	r3, [pc, #8]	; (b79e4 <os_mutex_recursive_lock+0xc>)
   b79dc:	681b      	ldr	r3, [r3, #0]
   b79de:	6cdb      	ldr	r3, [r3, #76]	; 0x4c
   b79e0:	9301      	str	r3, [sp, #4]
   b79e2:	bd08      	pop	{r3, pc}
   b79e4:	00030248 	.word	0x00030248

000b79e8 <os_mutex_recursive_unlock>:
DYNALIB_FN(20, hal_concurrent, os_mutex_recursive_trylock, int(os_mutex_recursive_t))
DYNALIB_FN(21, hal_concurrent, os_mutex_recursive_unlock, int(os_mutex_recursive_t))
   b79e8:	b508      	push	{r3, lr}
   b79ea:	4b02      	ldr	r3, [pc, #8]	; (b79f4 <os_mutex_recursive_unlock+0xc>)
   b79ec:	681b      	ldr	r3, [r3, #0]
   b79ee:	6d5b      	ldr	r3, [r3, #84]	; 0x54
   b79f0:	9301      	str	r3, [sp, #4]
   b79f2:	bd08      	pop	{r3, pc}
   b79f4:	00030248 	.word	0x00030248

000b79f8 <HAL_RNG_GetRandomNumber>:

DYNALIB_BEGIN(hal)

#if PLATFORM_ID > PLATFORM_GCC
DYNALIB_FN(0, hal, HAL_RNG_Configuration, void(void))
DYNALIB_FN(1, hal, HAL_RNG_GetRandomNumber, uint32_t(void))
   b79f8:	b508      	push	{r3, lr}
   b79fa:	4b02      	ldr	r3, [pc, #8]	; (b7a04 <HAL_RNG_GetRandomNumber+0xc>)
   b79fc:	681b      	ldr	r3, [r3, #0]
   b79fe:	685b      	ldr	r3, [r3, #4]
   b7a00:	9301      	str	r3, [sp, #4]
   b7a02:	bd08      	pop	{r3, pc}
   b7a04:	00030218 	.word	0x00030218

000b7a08 <HAL_Delay_Microseconds>:
#else
#define BASE_IDX 0
#endif // PLATFORM_ID > PLATFORM_GCC

DYNALIB_FN(BASE_IDX + 0, hal, HAL_Delay_Milliseconds, void(uint32_t))
DYNALIB_FN(BASE_IDX + 1, hal, HAL_Delay_Microseconds, void(uint32_t))
   b7a08:	b508      	push	{r3, lr}
   b7a0a:	4b02      	ldr	r3, [pc, #8]	; (b7a14 <HAL_Delay_Microseconds+0xc>)
   b7a0c:	681b      	ldr	r3, [r3, #0]
   b7a0e:	68db      	ldr	r3, [r3, #12]
   b7a10:	9301      	str	r3, [sp, #4]
   b7a12:	bd08      	pop	{r3, pc}
   b7a14:	00030218 	.word	0x00030218

000b7a18 <HAL_Timer_Get_Micro_Seconds>:
DYNALIB_FN(BASE_IDX + 2, hal, HAL_Timer_Get_Micro_Seconds, system_tick_t(void))
   b7a18:	b508      	push	{r3, lr}
   b7a1a:	4b02      	ldr	r3, [pc, #8]	; (b7a24 <HAL_Timer_Get_Micro_Seconds+0xc>)
   b7a1c:	681b      	ldr	r3, [r3, #0]
   b7a1e:	691b      	ldr	r3, [r3, #16]
   b7a20:	9301      	str	r3, [sp, #4]
   b7a22:	bd08      	pop	{r3, pc}
   b7a24:	00030218 	.word	0x00030218

000b7a28 <HAL_Timer_Get_Milli_Seconds>:
DYNALIB_FN(BASE_IDX + 3, hal, HAL_Timer_Get_Milli_Seconds, system_tick_t(void))
   b7a28:	b508      	push	{r3, lr}
   b7a2a:	4b02      	ldr	r3, [pc, #8]	; (b7a34 <HAL_Timer_Get_Milli_Seconds+0xc>)
   b7a2c:	681b      	ldr	r3, [r3, #0]
   b7a2e:	695b      	ldr	r3, [r3, #20]
   b7a30:	9301      	str	r3, [sp, #4]
   b7a32:	bd08      	pop	{r3, pc}
   b7a34:	00030218 	.word	0x00030218

000b7a38 <HAL_Validate_Pin_Function>:
// GNINRAW

DYNALIB_BEGIN(hal_gpio)

DYNALIB_FN(0, hal_gpio, HAL_Pin_Map, Hal_Pin_Info*(void))
DYNALIB_FN(1, hal_gpio, HAL_Validate_Pin_Function, PinFunction(pin_t, PinFunction))
   b7a38:	b508      	push	{r3, lr}
   b7a3a:	4b02      	ldr	r3, [pc, #8]	; (b7a44 <HAL_Validate_Pin_Function+0xc>)
   b7a3c:	681b      	ldr	r3, [r3, #0]
   b7a3e:	685b      	ldr	r3, [r3, #4]
   b7a40:	9301      	str	r3, [sp, #4]
   b7a42:	bd08      	pop	{r3, pc}
   b7a44:	0003022c 	.word	0x0003022c

000b7a48 <HAL_Pin_Mode>:
DYNALIB_FN(2, hal_gpio, HAL_Pin_Mode, void(pin_t, PinMode))
   b7a48:	b508      	push	{r3, lr}
   b7a4a:	4b02      	ldr	r3, [pc, #8]	; (b7a54 <HAL_Pin_Mode+0xc>)
   b7a4c:	681b      	ldr	r3, [r3, #0]
   b7a4e:	689b      	ldr	r3, [r3, #8]
   b7a50:	9301      	str	r3, [sp, #4]
   b7a52:	bd08      	pop	{r3, pc}
   b7a54:	0003022c 	.word	0x0003022c

000b7a58 <HAL_Get_Pin_Mode>:
DYNALIB_FN(3, hal_gpio, HAL_Get_Pin_Mode, PinMode(pin_t))
   b7a58:	b508      	push	{r3, lr}
   b7a5a:	4b02      	ldr	r3, [pc, #8]	; (b7a64 <HAL_Get_Pin_Mode+0xc>)
   b7a5c:	681b      	ldr	r3, [r3, #0]
   b7a5e:	68db      	ldr	r3, [r3, #12]
   b7a60:	9301      	str	r3, [sp, #4]
   b7a62:	bd08      	pop	{r3, pc}
   b7a64:	0003022c 	.word	0x0003022c

000b7a68 <HAL_GPIO_Write>:
DYNALIB_FN(4, hal_gpio, HAL_GPIO_Write, void(pin_t, uint8_t))
   b7a68:	b508      	push	{r3, lr}
   b7a6a:	4b02      	ldr	r3, [pc, #8]	; (b7a74 <HAL_GPIO_Write+0xc>)
   b7a6c:	681b      	ldr	r3, [r3, #0]
   b7a6e:	691b      	ldr	r3, [r3, #16]
   b7a70:	9301      	str	r3, [sp, #4]
   b7a72:	bd08      	pop	{r3, pc}
   b7a74:	0003022c 	.word	0x0003022c

000b7a78 <HAL_Interrupts_Attach>:
DYNALIB_FN(5, hal_gpio, HAL_GPIO_Read, int32_t(pin_t))
DYNALIB_FN(6, hal_gpio, HAL_Interrupts_Attach, int(uint16_t, HAL_InterruptHandler, void*, InterruptMode, HAL_InterruptExtraConfiguration*))
   b7a78:	b508      	push	{r3, lr}
   b7a7a:	4b02      	ldr	r3, [pc, #8]	; (b7a84 <HAL_Interrupts_Attach+0xc>)
   b7a7c:	681b      	ldr	r3, [r3, #0]
   b7a7e:	699b      	ldr	r3, [r3, #24]
   b7a80:	9301      	str	r3, [sp, #4]
   b7a82:	bd08      	pop	{r3, pc}
   b7a84:	0003022c 	.word	0x0003022c

000b7a88 <HAL_Interrupts_Detach>:
DYNALIB_FN(7, hal_gpio, HAL_Interrupts_Detach, int(uint16_t))
   b7a88:	b508      	push	{r3, lr}
   b7a8a:	4b02      	ldr	r3, [pc, #8]	; (b7a94 <HAL_Interrupts_Detach+0xc>)
   b7a8c:	681b      	ldr	r3, [r3, #0]
   b7a8e:	69db      	ldr	r3, [r3, #28]
   b7a90:	9301      	str	r3, [sp, #4]
   b7a92:	bd08      	pop	{r3, pc}
   b7a94:	0003022c 	.word	0x0003022c

000b7a98 <hal_adc_read>:
DYNALIB_FN(8, hal_gpio, HAL_Interrupts_Enable_All, void(void))
DYNALIB_FN(9, hal_gpio, HAL_Interrupts_Disable_All, void(void))

DYNALIB_FN(10, hal_gpio, HAL_DAC_Write, void(pin_t, uint16_t))
DYNALIB_FN(11, hal_gpio, hal_adc_set_sample_time, void(uint8_t))
DYNALIB_FN(12, hal_gpio, hal_adc_read, int32_t(uint16_t))
   b7a98:	b508      	push	{r3, lr}
   b7a9a:	4b02      	ldr	r3, [pc, #8]	; (b7aa4 <hal_adc_read+0xc>)
   b7a9c:	681b      	ldr	r3, [r3, #0]
   b7a9e:	6b1b      	ldr	r3, [r3, #48]	; 0x30
   b7aa0:	9301      	str	r3, [sp, #4]
   b7aa2:	bd08      	pop	{r3, pc}
   b7aa4:	0003022c 	.word	0x0003022c

000b7aa8 <hal_i2c_begin>:
DYNALIB_BEGIN(hal_i2c)

DYNALIB_FN(0, hal_i2c, hal_i2c_set_speed, void(hal_i2c_interface_t, uint32_t, void*))
DYNALIB_FN(1, hal_i2c, hal_i2c_enable_dma_mode, void(hal_i2c_interface_t, bool, void*))
DYNALIB_FN(2, hal_i2c, hal_i2c_stretch_clock, void(hal_i2c_interface_t, bool, void*))
DYNALIB_FN(3, hal_i2c, hal_i2c_begin, void(hal_i2c_interface_t, hal_i2c_mode_t, uint8_t, void*))
   b7aa8:	b508      	push	{r3, lr}
   b7aaa:	4b02      	ldr	r3, [pc, #8]	; (b7ab4 <hal_i2c_begin+0xc>)
   b7aac:	681b      	ldr	r3, [r3, #0]
   b7aae:	68db      	ldr	r3, [r3, #12]
   b7ab0:	9301      	str	r3, [sp, #4]
   b7ab2:	bd08      	pop	{r3, pc}
   b7ab4:	00030228 	.word	0x00030228

000b7ab8 <hal_i2c_begin_transmission>:
DYNALIB_FN(4, hal_i2c, hal_i2c_end, void(hal_i2c_interface_t, void*))
DYNALIB_FN(5, hal_i2c, hal_i2c_request, uint32_t(hal_i2c_interface_t, uint8_t, uint8_t, uint8_t, void*))
DYNALIB_FN(6, hal_i2c, hal_i2c_begin_transmission, void(hal_i2c_interface_t, uint8_t, const hal_i2c_transmission_config_t*))
   b7ab8:	b508      	push	{r3, lr}
   b7aba:	4b02      	ldr	r3, [pc, #8]	; (b7ac4 <hal_i2c_begin_transmission+0xc>)
   b7abc:	681b      	ldr	r3, [r3, #0]
   b7abe:	699b      	ldr	r3, [r3, #24]
   b7ac0:	9301      	str	r3, [sp, #4]
   b7ac2:	bd08      	pop	{r3, pc}
   b7ac4:	00030228 	.word	0x00030228

000b7ac8 <hal_i2c_end_transmission>:
DYNALIB_FN(7, hal_i2c, hal_i2c_end_transmission, uint8_t(hal_i2c_interface_t, uint8_t, void*))
   b7ac8:	b508      	push	{r3, lr}
   b7aca:	4b02      	ldr	r3, [pc, #8]	; (b7ad4 <hal_i2c_end_transmission+0xc>)
   b7acc:	681b      	ldr	r3, [r3, #0]
   b7ace:	69db      	ldr	r3, [r3, #28]
   b7ad0:	9301      	str	r3, [sp, #4]
   b7ad2:	bd08      	pop	{r3, pc}
   b7ad4:	00030228 	.word	0x00030228

000b7ad8 <hal_i2c_write>:
DYNALIB_FN(8, hal_i2c, hal_i2c_write, uint32_t(hal_i2c_interface_t, uint8_t, void*))
   b7ad8:	b508      	push	{r3, lr}
   b7ada:	4b02      	ldr	r3, [pc, #8]	; (b7ae4 <hal_i2c_write+0xc>)
   b7adc:	681b      	ldr	r3, [r3, #0]
   b7ade:	6a1b      	ldr	r3, [r3, #32]
   b7ae0:	9301      	str	r3, [sp, #4]
   b7ae2:	bd08      	pop	{r3, pc}
   b7ae4:	00030228 	.word	0x00030228

000b7ae8 <hal_i2c_available>:
DYNALIB_FN(9, hal_i2c, hal_i2c_available, int32_t(hal_i2c_interface_t, void*))
   b7ae8:	b508      	push	{r3, lr}
   b7aea:	4b02      	ldr	r3, [pc, #8]	; (b7af4 <hal_i2c_available+0xc>)
   b7aec:	681b      	ldr	r3, [r3, #0]
   b7aee:	6a5b      	ldr	r3, [r3, #36]	; 0x24
   b7af0:	9301      	str	r3, [sp, #4]
   b7af2:	bd08      	pop	{r3, pc}
   b7af4:	00030228 	.word	0x00030228

000b7af8 <hal_i2c_read>:
DYNALIB_FN(10, hal_i2c, hal_i2c_read, int32_t(hal_i2c_interface_t, void*))
   b7af8:	b508      	push	{r3, lr}
   b7afa:	4b02      	ldr	r3, [pc, #8]	; (b7b04 <hal_i2c_read+0xc>)
   b7afc:	681b      	ldr	r3, [r3, #0]
   b7afe:	6a9b      	ldr	r3, [r3, #40]	; 0x28
   b7b00:	9301      	str	r3, [sp, #4]
   b7b02:	bd08      	pop	{r3, pc}
   b7b04:	00030228 	.word	0x00030228

000b7b08 <hal_i2c_peek>:
DYNALIB_FN(11, hal_i2c, hal_i2c_peek, int32_t(hal_i2c_interface_t, void*))
   b7b08:	b508      	push	{r3, lr}
   b7b0a:	4b02      	ldr	r3, [pc, #8]	; (b7b14 <hal_i2c_peek+0xc>)
   b7b0c:	681b      	ldr	r3, [r3, #0]
   b7b0e:	6adb      	ldr	r3, [r3, #44]	; 0x2c
   b7b10:	9301      	str	r3, [sp, #4]
   b7b12:	bd08      	pop	{r3, pc}
   b7b14:	00030228 	.word	0x00030228

000b7b18 <hal_i2c_flush>:
DYNALIB_FN(12, hal_i2c, hal_i2c_flush, void(hal_i2c_interface_t, void*))
   b7b18:	b508      	push	{r3, lr}
   b7b1a:	4b02      	ldr	r3, [pc, #8]	; (b7b24 <hal_i2c_flush+0xc>)
   b7b1c:	681b      	ldr	r3, [r3, #0]
   b7b1e:	6b1b      	ldr	r3, [r3, #48]	; 0x30
   b7b20:	9301      	str	r3, [sp, #4]
   b7b22:	bd08      	pop	{r3, pc}
   b7b24:	00030228 	.word	0x00030228

000b7b28 <hal_i2c_is_enabled>:
DYNALIB_FN(13, hal_i2c, hal_i2c_is_enabled, bool(hal_i2c_interface_t, void*))
   b7b28:	b508      	push	{r3, lr}
   b7b2a:	4b02      	ldr	r3, [pc, #8]	; (b7b34 <hal_i2c_is_enabled+0xc>)
   b7b2c:	681b      	ldr	r3, [r3, #0]
   b7b2e:	6b5b      	ldr	r3, [r3, #52]	; 0x34
   b7b30:	9301      	str	r3, [sp, #4]
   b7b32:	bd08      	pop	{r3, pc}
   b7b34:	00030228 	.word	0x00030228

000b7b38 <hal_i2c_init>:
DYNALIB_FN(14, hal_i2c, hal_i2c_set_callback_on_received, void(hal_i2c_interface_t, void(*)(int), void*))
DYNALIB_FN(15, hal_i2c, hal_i2c_set_callback_on_requested, void(hal_i2c_interface_t, void(*)(void), void*))
DYNALIB_FN(16, hal_i2c, hal_i2c_init, int(hal_i2c_interface_t, const hal_i2c_config_t*))
   b7b38:	b508      	push	{r3, lr}
   b7b3a:	4b02      	ldr	r3, [pc, #8]	; (b7b44 <hal_i2c_init+0xc>)
   b7b3c:	681b      	ldr	r3, [r3, #0]
   b7b3e:	6c1b      	ldr	r3, [r3, #64]	; 0x40
   b7b40:	9301      	str	r3, [sp, #4]
   b7b42:	bd08      	pop	{r3, pc}
   b7b44:	00030228 	.word	0x00030228

000b7b48 <hal_i2c_request_ex>:
DYNALIB_FN(17, hal_i2c, hal_i2c_reset, uint8_t(hal_i2c_interface_t, uint32_t, void*))
DYNALIB_FN(18, hal_i2c, hal_i2c_lock, int32_t(hal_i2c_interface_t, void*))
DYNALIB_FN(19, hal_i2c, hal_i2c_unlock, int32_t(hal_i2c_interface_t, void*))
DYNALIB_FN(20, hal_i2c, hal_i2c_request_ex, int32_t(hal_i2c_interface_t, const hal_i2c_transmission_config_t*, void*))
   b7b48:	b508      	push	{r3, lr}
   b7b4a:	4b02      	ldr	r3, [pc, #8]	; (b7b54 <hal_i2c_request_ex+0xc>)
   b7b4c:	681b      	ldr	r3, [r3, #0]
   b7b4e:	6d1b      	ldr	r3, [r3, #80]	; 0x50
   b7b50:	9301      	str	r3, [sp, #4]
   b7b52:	bd08      	pop	{r3, pc}
   b7b54:	00030228 	.word	0x00030228

000b7b58 <inet_inet_ntop>:
DYNALIB_FN(0, hal_inet, inet_inet_addr, in_addr_t(const char*))
DYNALIB_FN(1, hal_inet, inet_inet_aton, int(const char*, struct in_addr*))
DYNALIB_FN(2, hal_inet, inet_inet_network, in_addr_t(const char*))
DYNALIB_FN(3, hal_inet, inet_inet_ntoa, char*(struct in_addr))
DYNALIB_FN(4, hal_inet, inet_inet_ntoa_r, char*(struct in_addr, char*, socklen_t))
DYNALIB_FN(5, hal_inet, inet_inet_ntop, const char*(int, const void*, char*, socklen_t))
   b7b58:	b508      	push	{r3, lr}
   b7b5a:	4b02      	ldr	r3, [pc, #8]	; (b7b64 <inet_inet_ntop+0xc>)
   b7b5c:	681b      	ldr	r3, [r3, #0]
   b7b5e:	695b      	ldr	r3, [r3, #20]
   b7b60:	9301      	str	r3, [sp, #4]
   b7b62:	bd08      	pop	{r3, pc}
   b7b64:	00030264 	.word	0x00030264

000b7b68 <netdb_freeaddrinfo>:

DYNALIB_BEGIN(hal_netdb)

DYNALIB_FN(0, hal_netdb, netdb_gethostbyname, struct hostent*(const char*))
DYNALIB_FN(1, hal_netdb, netdb_gethostbyname_r, int(const char*, struct hostent*, char*, size_t, struct hostent**, int*))
DYNALIB_FN(2, hal_netdb, netdb_freeaddrinfo, void(struct addrinfo*))
   b7b68:	b508      	push	{r3, lr}
   b7b6a:	4b02      	ldr	r3, [pc, #8]	; (b7b74 <netdb_freeaddrinfo+0xc>)
   b7b6c:	681b      	ldr	r3, [r3, #0]
   b7b6e:	689b      	ldr	r3, [r3, #8]
   b7b70:	9301      	str	r3, [sp, #4]
   b7b72:	bd08      	pop	{r3, pc}
   b7b74:	00030268 	.word	0x00030268

000b7b78 <netdb_getaddrinfo>:
DYNALIB_FN(3, hal_netdb, netdb_getaddrinfo, int(const char*, const char*, const struct addrinfo*, struct addrinfo**))
   b7b78:	b508      	push	{r3, lr}
   b7b7a:	4b02      	ldr	r3, [pc, #8]	; (b7b84 <netdb_getaddrinfo+0xc>)
   b7b7c:	681b      	ldr	r3, [r3, #0]
   b7b7e:	68db      	ldr	r3, [r3, #12]
   b7b80:	9301      	str	r3, [sp, #4]
   b7b82:	bd08      	pop	{r3, pc}
   b7b84:	00030268 	.word	0x00030268

000b7b88 <hal_spi_begin>:
// New HAL functions must be added to the end of this list.
// GNINRAW

DYNALIB_BEGIN(hal_spi)

DYNALIB_FN(0, hal_spi, hal_spi_begin, void(hal_spi_interface_t, uint16_t))
   b7b88:	b508      	push	{r3, lr}
   b7b8a:	4b02      	ldr	r3, [pc, #8]	; (b7b94 <hal_spi_begin+0xc>)
   b7b8c:	681b      	ldr	r3, [r3, #0]
   b7b8e:	681b      	ldr	r3, [r3, #0]
   b7b90:	9301      	str	r3, [sp, #4]
   b7b92:	bd08      	pop	{r3, pc}
   b7b94:	00030230 	.word	0x00030230

000b7b98 <hal_spi_transfer>:
DYNALIB_FN(1, hal_spi, hal_spi_end, void(hal_spi_interface_t))
DYNALIB_FN(2, hal_spi, hal_spi_set_bit_order, void(hal_spi_interface_t, uint8_t))
DYNALIB_FN(3, hal_spi, hal_spi_set_data_mode, void(hal_spi_interface_t, uint8_t))
DYNALIB_FN(4, hal_spi, hal_spi_set_clock_divider, void(hal_spi_interface_t, uint8_t))
DYNALIB_FN(5, hal_spi, hal_spi_transfer, uint16_t(hal_spi_interface_t, uint16_t))
   b7b98:	b508      	push	{r3, lr}
   b7b9a:	4b02      	ldr	r3, [pc, #8]	; (b7ba4 <hal_spi_transfer+0xc>)
   b7b9c:	681b      	ldr	r3, [r3, #0]
   b7b9e:	695b      	ldr	r3, [r3, #20]
   b7ba0:	9301      	str	r3, [sp, #4]
   b7ba2:	bd08      	pop	{r3, pc}
   b7ba4:	00030230 	.word	0x00030230

000b7ba8 <hal_spi_init>:
DYNALIB_FN(6, hal_spi, hal_spi_is_enabled_deprecated, bool(void))
DYNALIB_FN(7, hal_spi, hal_spi_init, void(hal_spi_interface_t))
   b7ba8:	b508      	push	{r3, lr}
   b7baa:	4b02      	ldr	r3, [pc, #8]	; (b7bb4 <hal_spi_init+0xc>)
   b7bac:	681b      	ldr	r3, [r3, #0]
   b7bae:	69db      	ldr	r3, [r3, #28]
   b7bb0:	9301      	str	r3, [sp, #4]
   b7bb2:	bd08      	pop	{r3, pc}
   b7bb4:	00030230 	.word	0x00030230

000b7bb8 <hal_spi_is_enabled>:
DYNALIB_FN(8, hal_spi, hal_spi_is_enabled, bool(hal_spi_interface_t))
   b7bb8:	b508      	push	{r3, lr}
   b7bba:	4b02      	ldr	r3, [pc, #8]	; (b7bc4 <hal_spi_is_enabled+0xc>)
   b7bbc:	681b      	ldr	r3, [r3, #0]
   b7bbe:	6a1b      	ldr	r3, [r3, #32]
   b7bc0:	9301      	str	r3, [sp, #4]
   b7bc2:	bd08      	pop	{r3, pc}
   b7bc4:	00030230 	.word	0x00030230

000b7bc8 <hal_spi_info>:
DYNALIB_FN(9, hal_spi, hal_spi_info, void(hal_spi_interface_t, hal_spi_info_t*, void*))
   b7bc8:	b508      	push	{r3, lr}
   b7bca:	4b02      	ldr	r3, [pc, #8]	; (b7bd4 <hal_spi_info+0xc>)
   b7bcc:	681b      	ldr	r3, [r3, #0]
   b7bce:	6a5b      	ldr	r3, [r3, #36]	; 0x24
   b7bd0:	9301      	str	r3, [sp, #4]
   b7bd2:	bd08      	pop	{r3, pc}
   b7bd4:	00030230 	.word	0x00030230

000b7bd8 <hal_spi_transfer_dma>:
DYNALIB_FN(10, hal_spi, hal_spi_transfer_dma, void(hal_spi_interface_t, const void*, void*, uint32_t, hal_spi_dma_user_callback))
   b7bd8:	b508      	push	{r3, lr}
   b7bda:	4b02      	ldr	r3, [pc, #8]	; (b7be4 <hal_spi_transfer_dma+0xc>)
   b7bdc:	681b      	ldr	r3, [r3, #0]
   b7bde:	6a9b      	ldr	r3, [r3, #40]	; 0x28
   b7be0:	9301      	str	r3, [sp, #4]
   b7be2:	bd08      	pop	{r3, pc}
   b7be4:	00030230 	.word	0x00030230

000b7be8 <hal_spi_transfer_dma_status>:
DYNALIB_FN(11, hal_spi, hal_spi_begin_ext, void(hal_spi_interface_t, hal_spi_mode_t, uint16_t, void*))
DYNALIB_FN(12, hal_spi, hal_spi_set_callback_on_selected, void(hal_spi_interface_t, hal_spi_select_user_callback, void*))
DYNALIB_FN(13, hal_spi, hal_spi_transfer_dma_cancel, void(hal_spi_interface_t))
DYNALIB_FN(14, hal_spi, hal_spi_transfer_dma_status, int32_t(hal_spi_interface_t, hal_spi_transfer_status_t*))
   b7be8:	b508      	push	{r3, lr}
   b7bea:	4b02      	ldr	r3, [pc, #8]	; (b7bf4 <hal_spi_transfer_dma_status+0xc>)
   b7bec:	681b      	ldr	r3, [r3, #0]
   b7bee:	6b9b      	ldr	r3, [r3, #56]	; 0x38
   b7bf0:	9301      	str	r3, [sp, #4]
   b7bf2:	bd08      	pop	{r3, pc}
   b7bf4:	00030230 	.word	0x00030230

000b7bf8 <hal_spi_set_settings>:
DYNALIB_FN(15, hal_spi, hal_spi_set_settings, int32_t(hal_spi_interface_t, uint8_t, uint8_t, uint8_t, uint8_t, void*))
   b7bf8:	b508      	push	{r3, lr}
   b7bfa:	4b02      	ldr	r3, [pc, #8]	; (b7c04 <hal_spi_set_settings+0xc>)
   b7bfc:	681b      	ldr	r3, [r3, #0]
   b7bfe:	6bdb      	ldr	r3, [r3, #60]	; 0x3c
   b7c00:	9301      	str	r3, [sp, #4]
   b7c02:	bd08      	pop	{r3, pc}
   b7c04:	00030230 	.word	0x00030230

000b7c08 <hal_spi_acquire>:
#if HAL_PLATFORM_SPI_HAL_THREAD_SAFETY
DYNALIB_FN(16, hal_spi, hal_spi_acquire, int32_t(hal_spi_interface_t, const hal_spi_acquire_config_t*))
   b7c08:	b508      	push	{r3, lr}
   b7c0a:	4b02      	ldr	r3, [pc, #8]	; (b7c14 <hal_spi_acquire+0xc>)
   b7c0c:	681b      	ldr	r3, [r3, #0]
   b7c0e:	6c1b      	ldr	r3, [r3, #64]	; 0x40
   b7c10:	9301      	str	r3, [sp, #4]
   b7c12:	bd08      	pop	{r3, pc}
   b7c14:	00030230 	.word	0x00030230

000b7c18 <hal_spi_release>:
DYNALIB_FN(17, hal_spi, hal_spi_release, int32_t(hal_spi_interface_t, void*))
   b7c18:	b508      	push	{r3, lr}
   b7c1a:	4b02      	ldr	r3, [pc, #8]	; (b7c24 <hal_spi_release+0xc>)
   b7c1c:	681b      	ldr	r3, [r3, #0]
   b7c1e:	6c5b      	ldr	r3, [r3, #68]	; 0x44
   b7c20:	9301      	str	r3, [sp, #4]
   b7c22:	bd08      	pop	{r3, pc}
   b7c24:	00030230 	.word	0x00030230

000b7c28 <hal_usart_end>:
#define BASE_IDX 0
#endif

DYNALIB_FN(BASE_IDX + 0, hal_usart, hal_usart_init, void(hal_usart_interface_t, hal_usart_ring_buffer_t*, hal_usart_ring_buffer_t*))
DYNALIB_FN(BASE_IDX + 1, hal_usart, hal_usart_begin, void(hal_usart_interface_t, uint32_t))
DYNALIB_FN(BASE_IDX + 2, hal_usart, hal_usart_end, void(hal_usart_interface_t))
   b7c28:	b508      	push	{r3, lr}
   b7c2a:	4b02      	ldr	r3, [pc, #8]	; (b7c34 <hal_usart_end+0xc>)
   b7c2c:	681b      	ldr	r3, [r3, #0]
   b7c2e:	689b      	ldr	r3, [r3, #8]
   b7c30:	9301      	str	r3, [sp, #4]
   b7c32:	bd08      	pop	{r3, pc}
   b7c34:	0003023c 	.word	0x0003023c

000b7c38 <hal_usart_write>:
DYNALIB_FN(BASE_IDX + 3, hal_usart, hal_usart_write, uint32_t(hal_usart_interface_t, uint8_t))
   b7c38:	b508      	push	{r3, lr}
   b7c3a:	4b02      	ldr	r3, [pc, #8]	; (b7c44 <hal_usart_write+0xc>)
   b7c3c:	681b      	ldr	r3, [r3, #0]
   b7c3e:	68db      	ldr	r3, [r3, #12]
   b7c40:	9301      	str	r3, [sp, #4]
   b7c42:	bd08      	pop	{r3, pc}
   b7c44:	0003023c 	.word	0x0003023c

000b7c48 <hal_usart_available>:
DYNALIB_FN(BASE_IDX + 4, hal_usart, hal_usart_available, int32_t(hal_usart_interface_t))
   b7c48:	b508      	push	{r3, lr}
   b7c4a:	4b02      	ldr	r3, [pc, #8]	; (b7c54 <hal_usart_available+0xc>)
   b7c4c:	681b      	ldr	r3, [r3, #0]
   b7c4e:	691b      	ldr	r3, [r3, #16]
   b7c50:	9301      	str	r3, [sp, #4]
   b7c52:	bd08      	pop	{r3, pc}
   b7c54:	0003023c 	.word	0x0003023c

000b7c58 <hal_usart_read>:
DYNALIB_FN(BASE_IDX + 5, hal_usart, hal_usart_read, int32_t(hal_usart_interface_t))
   b7c58:	b508      	push	{r3, lr}
   b7c5a:	4b02      	ldr	r3, [pc, #8]	; (b7c64 <hal_usart_read+0xc>)
   b7c5c:	681b      	ldr	r3, [r3, #0]
   b7c5e:	695b      	ldr	r3, [r3, #20]
   b7c60:	9301      	str	r3, [sp, #4]
   b7c62:	bd08      	pop	{r3, pc}
   b7c64:	0003023c 	.word	0x0003023c

000b7c68 <hal_usart_peek>:
DYNALIB_FN(BASE_IDX + 6, hal_usart, hal_usart_peek, int32_t(hal_usart_interface_t))
   b7c68:	b508      	push	{r3, lr}
   b7c6a:	4b02      	ldr	r3, [pc, #8]	; (b7c74 <hal_usart_peek+0xc>)
   b7c6c:	681b      	ldr	r3, [r3, #0]
   b7c6e:	699b      	ldr	r3, [r3, #24]
   b7c70:	9301      	str	r3, [sp, #4]
   b7c72:	bd08      	pop	{r3, pc}
   b7c74:	0003023c 	.word	0x0003023c

000b7c78 <hal_usart_flush>:
DYNALIB_FN(BASE_IDX + 7, hal_usart, hal_usart_flush, void(hal_usart_interface_t))
   b7c78:	b508      	push	{r3, lr}
   b7c7a:	4b02      	ldr	r3, [pc, #8]	; (b7c84 <hal_usart_flush+0xc>)
   b7c7c:	681b      	ldr	r3, [r3, #0]
   b7c7e:	69db      	ldr	r3, [r3, #28]
   b7c80:	9301      	str	r3, [sp, #4]
   b7c82:	bd08      	pop	{r3, pc}
   b7c84:	0003023c 	.word	0x0003023c

000b7c88 <hal_usart_is_enabled>:
DYNALIB_FN(BASE_IDX + 8, hal_usart, hal_usart_is_enabled, bool(hal_usart_interface_t))
   b7c88:	b508      	push	{r3, lr}
   b7c8a:	4b02      	ldr	r3, [pc, #8]	; (b7c94 <hal_usart_is_enabled+0xc>)
   b7c8c:	681b      	ldr	r3, [r3, #0]
   b7c8e:	6a1b      	ldr	r3, [r3, #32]
   b7c90:	9301      	str	r3, [sp, #4]
   b7c92:	bd08      	pop	{r3, pc}
   b7c94:	0003023c 	.word	0x0003023c

000b7c98 <hal_usart_available_data_for_write>:
DYNALIB_FN(BASE_IDX + 9, hal_usart, hal_usart_half_duplex, void(hal_usart_interface_t, bool))
DYNALIB_FN(BASE_IDX + 10, hal_usart, hal_usart_available_data_for_write, int32_t(hal_usart_interface_t))
   b7c98:	b508      	push	{r3, lr}
   b7c9a:	4b02      	ldr	r3, [pc, #8]	; (b7ca4 <hal_usart_available_data_for_write+0xc>)
   b7c9c:	681b      	ldr	r3, [r3, #0]
   b7c9e:	6a9b      	ldr	r3, [r3, #40]	; 0x28
   b7ca0:	9301      	str	r3, [sp, #4]
   b7ca2:	bd08      	pop	{r3, pc}
   b7ca4:	0003023c 	.word	0x0003023c

000b7ca8 <hal_usart_begin_config>:
#define BASE_IDX2 (BASE_IDX+13)
#else
#define BASE_IDX2 (BASE_IDX+11)
#endif

DYNALIB_FN(BASE_IDX2 + 0, hal_usart, hal_usart_begin_config, void(hal_usart_interface_t serial, uint32_t baud, uint32_t config, void *ptr))
   b7ca8:	b508      	push	{r3, lr}
   b7caa:	4b02      	ldr	r3, [pc, #8]	; (b7cb4 <hal_usart_begin_config+0xc>)
   b7cac:	681b      	ldr	r3, [r3, #0]
   b7cae:	6adb      	ldr	r3, [r3, #44]	; 0x2c
   b7cb0:	9301      	str	r3, [sp, #4]
   b7cb2:	bd08      	pop	{r3, pc}
   b7cb4:	0003023c 	.word	0x0003023c

000b7cb8 <hal_usart_init_ex>:
DYNALIB_FN(BASE_IDX2 + 1, hal_usart, hal_usart_write_nine_bits, uint32_t(hal_usart_interface_t serial, uint16_t data))
DYNALIB_FN(BASE_IDX2 + 2, hal_usart, hal_usart_send_break, void(hal_usart_interface_t, void*))
DYNALIB_FN(BASE_IDX2 + 3, hal_usart, hal_usart_break_detected, uint8_t(hal_usart_interface_t))
DYNALIB_FN(BASE_IDX2 + 4, hal_usart, hal_usart_sleep, int(hal_usart_interface_t serial, bool, void*))
DYNALIB_FN(BASE_IDX2 + 5, hal_usart, hal_usart_init_ex, int(hal_usart_interface_t, const hal_usart_buffer_config_t*, void*))
   b7cb8:	b508      	push	{r3, lr}
   b7cba:	4b02      	ldr	r3, [pc, #8]	; (b7cc4 <hal_usart_init_ex+0xc>)
   b7cbc:	681b      	ldr	r3, [r3, #0]
   b7cbe:	6c1b      	ldr	r3, [r3, #64]	; 0x40
   b7cc0:	9301      	str	r3, [sp, #4]
   b7cc2:	bd08      	pop	{r3, pc}
   b7cc4:	0003023c 	.word	0x0003023c

000b7cc8 <HAL_USB_USART_Init>:
// GNINRAW

DYNALIB_BEGIN(hal_usb)

#ifdef USB_CDC_ENABLE
DYNALIB_FN(0, hal_usb, HAL_USB_USART_Init, void(HAL_USB_USART_Serial, const HAL_USB_USART_Config*))
   b7cc8:	b508      	push	{r3, lr}
   b7cca:	4b02      	ldr	r3, [pc, #8]	; (b7cd4 <HAL_USB_USART_Init+0xc>)
   b7ccc:	681b      	ldr	r3, [r3, #0]
   b7cce:	681b      	ldr	r3, [r3, #0]
   b7cd0:	9301      	str	r3, [sp, #4]
   b7cd2:	bd08      	pop	{r3, pc}
   b7cd4:	0003024c 	.word	0x0003024c

000b7cd8 <HAL_USB_USART_Begin>:
DYNALIB_FN(1, hal_usb, HAL_USB_USART_Begin, void(HAL_USB_USART_Serial, uint32_t, void *))
   b7cd8:	b508      	push	{r3, lr}
   b7cda:	4b02      	ldr	r3, [pc, #8]	; (b7ce4 <HAL_USB_USART_Begin+0xc>)
   b7cdc:	681b      	ldr	r3, [r3, #0]
   b7cde:	685b      	ldr	r3, [r3, #4]
   b7ce0:	9301      	str	r3, [sp, #4]
   b7ce2:	bd08      	pop	{r3, pc}
   b7ce4:	0003024c 	.word	0x0003024c

000b7ce8 <HAL_USB_USART_End>:
DYNALIB_FN(2, hal_usb, HAL_USB_USART_End, void(HAL_USB_USART_Serial))
   b7ce8:	b508      	push	{r3, lr}
   b7cea:	4b02      	ldr	r3, [pc, #8]	; (b7cf4 <HAL_USB_USART_End+0xc>)
   b7cec:	681b      	ldr	r3, [r3, #0]
   b7cee:	689b      	ldr	r3, [r3, #8]
   b7cf0:	9301      	str	r3, [sp, #4]
   b7cf2:	bd08      	pop	{r3, pc}
   b7cf4:	0003024c 	.word	0x0003024c

000b7cf8 <HAL_USB_USART_Available_Data>:
DYNALIB_FN(3, hal_usb, HAL_USB_USART_Baud_Rate, unsigned int(HAL_USB_USART_Serial))
DYNALIB_FN(4, hal_usb, HAL_USB_USART_Available_Data, int32_t(HAL_USB_USART_Serial))
   b7cf8:	b508      	push	{r3, lr}
   b7cfa:	4b02      	ldr	r3, [pc, #8]	; (b7d04 <HAL_USB_USART_Available_Data+0xc>)
   b7cfc:	681b      	ldr	r3, [r3, #0]
   b7cfe:	691b      	ldr	r3, [r3, #16]
   b7d00:	9301      	str	r3, [sp, #4]
   b7d02:	bd08      	pop	{r3, pc}
   b7d04:	0003024c 	.word	0x0003024c

000b7d08 <HAL_USB_USART_Available_Data_For_Write>:
DYNALIB_FN(5, hal_usb, HAL_USB_USART_Available_Data_For_Write, int32_t(HAL_USB_USART_Serial))
   b7d08:	b508      	push	{r3, lr}
   b7d0a:	4b02      	ldr	r3, [pc, #8]	; (b7d14 <HAL_USB_USART_Available_Data_For_Write+0xc>)
   b7d0c:	681b      	ldr	r3, [r3, #0]
   b7d0e:	695b      	ldr	r3, [r3, #20]
   b7d10:	9301      	str	r3, [sp, #4]
   b7d12:	bd08      	pop	{r3, pc}
   b7d14:	0003024c 	.word	0x0003024c

000b7d18 <HAL_USB_USART_Receive_Data>:
DYNALIB_FN(6, hal_usb, HAL_USB_USART_Receive_Data, int32_t(HAL_USB_USART_Serial, uint8_t))
   b7d18:	b508      	push	{r3, lr}
   b7d1a:	4b02      	ldr	r3, [pc, #8]	; (b7d24 <HAL_USB_USART_Receive_Data+0xc>)
   b7d1c:	681b      	ldr	r3, [r3, #0]
   b7d1e:	699b      	ldr	r3, [r3, #24]
   b7d20:	9301      	str	r3, [sp, #4]
   b7d22:	bd08      	pop	{r3, pc}
   b7d24:	0003024c 	.word	0x0003024c

000b7d28 <HAL_USB_USART_Send_Data>:
DYNALIB_FN(7, hal_usb, HAL_USB_USART_Send_Data, int32_t(HAL_USB_USART_Serial, uint8_t))
   b7d28:	b508      	push	{r3, lr}
   b7d2a:	4b02      	ldr	r3, [pc, #8]	; (b7d34 <HAL_USB_USART_Send_Data+0xc>)
   b7d2c:	681b      	ldr	r3, [r3, #0]
   b7d2e:	69db      	ldr	r3, [r3, #28]
   b7d30:	9301      	str	r3, [sp, #4]
   b7d32:	bd08      	pop	{r3, pc}
   b7d34:	0003024c 	.word	0x0003024c

000b7d38 <HAL_USB_USART_Flush_Data>:
DYNALIB_FN(8, hal_usb, HAL_USB_USART_Flush_Data, void(HAL_USB_USART_Serial))
   b7d38:	b508      	push	{r3, lr}
   b7d3a:	4b02      	ldr	r3, [pc, #8]	; (b7d44 <HAL_USB_USART_Flush_Data+0xc>)
   b7d3c:	681b      	ldr	r3, [r3, #0]
   b7d3e:	6a1b      	ldr	r3, [r3, #32]
   b7d40:	9301      	str	r3, [sp, #4]
   b7d42:	bd08      	pop	{r3, pc}
   b7d44:	0003024c 	.word	0x0003024c

000b7d48 <panic_>:
DYNALIB_FN(9, services, LED_Toggle, void(Led_TypeDef))
DYNALIB_FN(10, services, LED_Fade, void(Led_TypeDef))
DYNALIB_FN(11, services, Get_LED_Brightness, uint8_t(void))

DYNALIB_FN(12, services, set_logger_output, void(debug_output_fn, LoggerOutputLevel)) // Deprecated
DYNALIB_FN(13, services, panic_, void(ePanicCode, void*, void(*)(uint32_t)))
   b7d48:	b508      	push	{r3, lr}
   b7d4a:	4b02      	ldr	r3, [pc, #8]	; (b7d54 <panic_+0xc>)
   b7d4c:	681b      	ldr	r3, [r3, #0]
   b7d4e:	6b5b      	ldr	r3, [r3, #52]	; 0x34
   b7d50:	9301      	str	r3, [sp, #4]
   b7d52:	bd08      	pop	{r3, pc}
   b7d54:	00030260 	.word	0x00030260

000b7d58 <log_message>:
DYNALIB_FN(16, services, log_print_, void(int, int, const char*, const char*, const char*, ...)) // Deprecated
DYNALIB_FN(17, services, LED_RGB_SetChangeHandler, void(led_update_handler_fn, void*))
DYNALIB_FN(18, services, log_print_direct_, void(int, void*, const char*, ...)) // Deprecated
DYNALIB_FN(19, services, LED_GetColor, uint32_t(uint32_t, void*))

DYNALIB_FN(20, services, log_message, void(int, const char*, LogAttributes*, void*, const char*, ...))
   b7d58:	b508      	push	{r3, lr}
   b7d5a:	4b02      	ldr	r3, [pc, #8]	; (b7d64 <log_message+0xc>)
   b7d5c:	681b      	ldr	r3, [r3, #0]
   b7d5e:	6d1b      	ldr	r3, [r3, #80]	; 0x50
   b7d60:	9301      	str	r3, [sp, #4]
   b7d62:	bd08      	pop	{r3, pc}
   b7d64:	00030260 	.word	0x00030260

000b7d68 <log_message_v>:
DYNALIB_FN(21, services, log_message_v, void(int, const char*, LogAttributes*, void*, const char*, va_list))
   b7d68:	b508      	push	{r3, lr}
   b7d6a:	4b02      	ldr	r3, [pc, #8]	; (b7d74 <log_message_v+0xc>)
   b7d6c:	681b      	ldr	r3, [r3, #0]
   b7d6e:	6d5b      	ldr	r3, [r3, #84]	; 0x54
   b7d70:	9301      	str	r3, [sp, #4]
   b7d72:	bd08      	pop	{r3, pc}
   b7d74:	00030260 	.word	0x00030260

000b7d78 <log_level_name>:
DYNALIB_FN(22, services, log_write, void(int, const char*, const char*, size_t, void*))
DYNALIB_FN(23, services, log_printf, void(int, const char*, void*, const char*, ...))
DYNALIB_FN(24, services, log_printf_v, void(int, const char*, void*, const char*, va_list))
DYNALIB_FN(25, services, log_dump, void(int, const char*, const void*, size_t, int, void*))
DYNALIB_FN(26, services, log_enabled, int(int, const char*, void*))
DYNALIB_FN(27, services, log_level_name, const char*(int, void*))
   b7d78:	b508      	push	{r3, lr}
   b7d7a:	4b02      	ldr	r3, [pc, #8]	; (b7d84 <log_level_name+0xc>)
   b7d7c:	681b      	ldr	r3, [r3, #0]
   b7d7e:	6edb      	ldr	r3, [r3, #108]	; 0x6c
   b7d80:	9301      	str	r3, [sp, #4]
   b7d82:	bd08      	pop	{r3, pc}
   b7d84:	00030260 	.word	0x00030260

000b7d88 <log_set_callbacks>:
DYNALIB_FN(28, services, log_set_callbacks, void(log_message_callback_type, log_write_callback_type, log_enabled_callback_type, void*))
   b7d88:	b508      	push	{r3, lr}
   b7d8a:	4b02      	ldr	r3, [pc, #8]	; (b7d94 <log_set_callbacks+0xc>)
   b7d8c:	681b      	ldr	r3, [r3, #0]
   b7d8e:	6f1b      	ldr	r3, [r3, #112]	; 0x70
   b7d90:	9301      	str	r3, [sp, #4]
   b7d92:	bd08      	pop	{r3, pc}
   b7d94:	00030260 	.word	0x00030260

000b7d98 <set_system_mode>:
#endif

DYNALIB_BEGIN(system)

DYNALIB_FN(0, system, system_mode, System_Mode_TypeDef(void))
DYNALIB_FN(1, system, set_system_mode, void(System_Mode_TypeDef))
   b7d98:	b508      	push	{r3, lr}
   b7d9a:	4b02      	ldr	r3, [pc, #8]	; (b7da4 <set_system_mode+0xc>)
   b7d9c:	681b      	ldr	r3, [r3, #0]
   b7d9e:	685b      	ldr	r3, [r3, #4]
   b7da0:	9301      	str	r3, [sp, #4]
   b7da2:	bd08      	pop	{r3, pc}
   b7da4:	00030220 	.word	0x00030220

000b7da8 <system_delay_ms>:

DYNALIB_FN(2, system, set_ymodem_serial_flash_update_handler, void(ymodem_serial_flash_update_handler))
DYNALIB_FN(3, system, system_firmwareUpdate, bool(Stream*, void*))
DYNALIB_FN(4, system, system_fileTransfer, bool(system_file_transfer_t*, void*))

DYNALIB_FN(5, system, system_delay_ms, void(unsigned long, bool))
   b7da8:	b508      	push	{r3, lr}
   b7daa:	4b02      	ldr	r3, [pc, #8]	; (b7db4 <system_delay_ms+0xc>)
   b7dac:	681b      	ldr	r3, [r3, #0]
   b7dae:	695b      	ldr	r3, [r3, #20]
   b7db0:	9301      	str	r3, [sp, #4]
   b7db2:	bd08      	pop	{r3, pc}
   b7db4:	00030220 	.word	0x00030220

000b7db8 <system_thread_set_state>:
DYNALIB_FN(6, system, system_sleep, int(Spark_Sleep_TypeDef, long, uint32_t, void*))
DYNALIB_FN(7, system, system_sleep_pin, int(uint16_t, uint16_t, long, uint32_t, void*))
DYNALIB_FN(8, system, system_subscribe_event, int(system_event_t, system_event_handler_t*, SystemEventContext*))
DYNALIB_FN(9, system, system_unsubscribe_event, void(system_event_t, system_event_handler_t*, const SystemEventContext*))
DYNALIB_FN(10, system, system_button_pushed_duration, uint16_t(uint8_t, void*))
DYNALIB_FN(11, system, system_thread_set_state, void(spark::feature::State, void*))
   b7db8:	b508      	push	{r3, lr}
   b7dba:	4b02      	ldr	r3, [pc, #8]	; (b7dc4 <system_thread_set_state+0xc>)
   b7dbc:	681b      	ldr	r3, [r3, #0]
   b7dbe:	6adb      	ldr	r3, [r3, #44]	; 0x2c
   b7dc0:	9301      	str	r3, [sp, #4]
   b7dc2:	bd08      	pop	{r3, pc}
   b7dc4:	00030220 	.word	0x00030220

000b7dc8 <system_ctrl_set_app_request_handler>:
DYNALIB_FN(BASE_IDX + 6, system, led_pattern_period, uint16_t(int, int, void*))
DYNALIB_FN(BASE_IDX + 7, system, system_set_tester_handlers, int(system_tester_handlers_t*, void*))
DYNALIB_FN(BASE_IDX + 8, system, system_format_diag_data, int(const uint16_t*, size_t, unsigned, appender_fn, void*, void*))

// Control requests
DYNALIB_FN(BASE_IDX + 9, system, system_ctrl_set_app_request_handler, int(ctrl_request_handler_fn, void*))
   b7dc8:	b508      	push	{r3, lr}
   b7dca:	4b03      	ldr	r3, [pc, #12]	; (b7dd8 <system_ctrl_set_app_request_handler+0x10>)
   b7dcc:	681b      	ldr	r3, [r3, #0]
   b7dce:	f8d3 3088 	ldr.w	r3, [r3, #136]	; 0x88
   b7dd2:	9301      	str	r3, [sp, #4]
   b7dd4:	bd08      	pop	{r3, pc}
   b7dd6:	0000      	.short	0x0000
   b7dd8:	00030220 	.word	0x00030220

000b7ddc <system_ctrl_set_result>:
DYNALIB_FN(BASE_IDX + 10, system, system_ctrl_alloc_reply_data, int(ctrl_request*, size_t, void*))
DYNALIB_FN(BASE_IDX + 11, system, system_ctrl_free_request_data, void(ctrl_request*, void*))
DYNALIB_FN(BASE_IDX + 12, system, system_ctrl_set_result, void(ctrl_request*, int, ctrl_completion_handler_fn, void*, void*))
   b7ddc:	b508      	push	{r3, lr}
   b7dde:	4b03      	ldr	r3, [pc, #12]	; (b7dec <system_ctrl_set_result+0x10>)
   b7de0:	681b      	ldr	r3, [r3, #0]
   b7de2:	f8d3 3094 	ldr.w	r3, [r3, #148]	; 0x94
   b7de6:	9301      	str	r3, [sp, #4]
   b7de8:	bd08      	pop	{r3, pc}
   b7dea:	0000      	.short	0x0000
   b7dec:	00030220 	.word	0x00030220

000b7df0 <system_sleep_ext>:
#define BASE_IDX1 (BASE_IDX + 18)
#else
#define BASE_IDX1 (BASE_IDX + 17)
#endif // HAL_PLATFORM_POWER_MANAGEMENT

DYNALIB_FN(BASE_IDX1 + 0, system, system_sleep_ext, int(const hal_sleep_config_t*, hal_wakeup_source_base_t**, void*))
   b7df0:	b508      	push	{r3, lr}
   b7df2:	4b03      	ldr	r3, [pc, #12]	; (b7e00 <system_sleep_ext+0x10>)
   b7df4:	681b      	ldr	r3, [r3, #0]
   b7df6:	f8d3 30a8 	ldr.w	r3, [r3, #168]	; 0xa8
   b7dfa:	9301      	str	r3, [sp, #4]
   b7dfc:	bd08      	pop	{r3, pc}
   b7dfe:	0000      	.short	0x0000
   b7e00:	00030220 	.word	0x00030220

000b7e04 <system_ble_prov_mode>:
DYNALIB_FN(BASE_IDX2 + 0, system, system_info_get_unstable, int(hal_system_info_t* info, uint32_t flags, void* reserved))
DYNALIB_FN(BASE_IDX2 + 1, system, system_info_free_unstable, int(hal_system_info_t* info, void* reserved))
DYNALIB_FN(BASE_IDX2 + 2, system, system_ctrl_set_request_filter, int(system_ctrl_acl default_action, system_ctrl_filter* filters, void* reserved))

#if HAL_PLATFORM_BLE
DYNALIB_FN(BASE_IDX2 + 3, system, system_ble_prov_mode, int(bool enabled, void* reserved))
   b7e04:	b508      	push	{r3, lr}
   b7e06:	4b03      	ldr	r3, [pc, #12]	; (b7e14 <system_ble_prov_mode+0x10>)
   b7e08:	681b      	ldr	r3, [r3, #0]
   b7e0a:	f8d3 30bc 	ldr.w	r3, [r3, #188]	; 0xbc
   b7e0e:	9301      	str	r3, [sp, #4]
   b7e10:	bd08      	pop	{r3, pc}
   b7e12:	0000      	.short	0x0000
   b7e14:	00030220 	.word	0x00030220

000b7e18 <system_ble_prov_get_status>:
DYNALIB_FN(BASE_IDX2 + 4, system, system_ble_prov_get_status, bool(void* reserved))
   b7e18:	b508      	push	{r3, lr}
   b7e1a:	4b03      	ldr	r3, [pc, #12]	; (b7e28 <system_ble_prov_get_status+0x10>)
   b7e1c:	681b      	ldr	r3, [r3, #0]
   b7e1e:	f8d3 30c0 	ldr.w	r3, [r3, #192]	; 0xc0
   b7e22:	9301      	str	r3, [sp, #4]
   b7e24:	bd08      	pop	{r3, pc}
   b7e26:	0000      	.short	0x0000
   b7e28:	00030220 	.word	0x00030220

000b7e2c <spark_process>:

DYNALIB_BEGIN(system_cloud)

DYNALIB_FN(0, system_cloud, spark_variable, bool(const char*, const void*, Spark_Data_TypeDef, spark_variable_t*))
DYNALIB_FN(1, system_cloud, spark_function, bool(const char*, p_user_function_int_str_t, void*))
DYNALIB_FN(2, system_cloud, spark_process, void(void))
   b7e2c:	b508      	push	{r3, lr}
   b7e2e:	4b02      	ldr	r3, [pc, #8]	; (b7e38 <spark_process+0xc>)
   b7e30:	681b      	ldr	r3, [r3, #0]
   b7e32:	689b      	ldr	r3, [r3, #8]
   b7e34:	9301      	str	r3, [sp, #4]
   b7e36:	bd08      	pop	{r3, pc}
   b7e38:	00030244 	.word	0x00030244

000b7e3c <spark_deviceID>:
DYNALIB_FN(3, system_cloud, spark_cloud_flag_connect, void(void))
DYNALIB_FN(4, system_cloud, spark_cloud_flag_disconnect, void(void))
DYNALIB_FN(5, system_cloud, spark_cloud_flag_connected, bool(void))
DYNALIB_FN(6, system_cloud, system_cloud_protocol_instance, ProtocolFacade*(void))
DYNALIB_FN(7, system_cloud, spark_deviceID, String(void))
   b7e3c:	b508      	push	{r3, lr}
   b7e3e:	4b02      	ldr	r3, [pc, #8]	; (b7e48 <spark_deviceID+0xc>)
   b7e40:	681b      	ldr	r3, [r3, #0]
   b7e42:	69db      	ldr	r3, [r3, #28]
   b7e44:	9301      	str	r3, [sp, #4]
   b7e46:	bd08      	pop	{r3, pc}
   b7e48:	00030244 	.word	0x00030244

000b7e4c <spark_set_random_seed_from_cloud_handler>:
DYNALIB_FN(10, system_cloud, spark_unsubscribe, void(void*))
DYNALIB_FN(11, system_cloud, spark_sync_time, bool(void*))
DYNALIB_FN(12, system_cloud, spark_sync_time_pending, bool(void*))
DYNALIB_FN(13, system_cloud, spark_sync_time_last, system_tick_t(time32_t*, time_t*))
DYNALIB_FN(14, system_cloud, spark_set_connection_property, int(unsigned, unsigned, const void*, void*))
DYNALIB_FN(15, system_cloud, spark_set_random_seed_from_cloud_handler, int(void (*handler)(unsigned int), void*))
   b7e4c:	b508      	push	{r3, lr}
   b7e4e:	4b02      	ldr	r3, [pc, #8]	; (b7e58 <spark_set_random_seed_from_cloud_handler+0xc>)
   b7e50:	681b      	ldr	r3, [r3, #0]
   b7e52:	6bdb      	ldr	r3, [r3, #60]	; 0x3c
   b7e54:	9301      	str	r3, [sp, #4]
   b7e56:	bd08      	pop	{r3, pc}
   b7e58:	00030244 	.word	0x00030244

000b7e5c <spark_cloud_disconnect>:
DYNALIB_FN(16, system_cloud, spark_publish_vitals, int(system_tick_t, void*))
DYNALIB_FN(17, system_cloud, spark_cloud_disconnect, int(const spark_cloud_disconnect_options*, void*))
   b7e5c:	b508      	push	{r3, lr}
   b7e5e:	4b02      	ldr	r3, [pc, #8]	; (b7e68 <spark_cloud_disconnect+0xc>)
   b7e60:	681b      	ldr	r3, [r3, #0]
   b7e62:	6c5b      	ldr	r3, [r3, #68]	; 0x44
   b7e64:	9301      	str	r3, [sp, #4]
   b7e66:	bd08      	pop	{r3, pc}
   b7e68:	00030244 	.word	0x00030244

000b7e6c <network_connect>:
#endif

DYNALIB_BEGIN(system_net)

DYNALIB_FN(0, system_net, network_config, const void*(network_handle_t, uint32_t, void*))
DYNALIB_FN(1, system_net, network_connect, void(network_handle_t, uint32_t, uint32_t, void*))
   b7e6c:	b508      	push	{r3, lr}
   b7e6e:	4b02      	ldr	r3, [pc, #8]	; (b7e78 <network_connect+0xc>)
   b7e70:	681b      	ldr	r3, [r3, #0]
   b7e72:	685b      	ldr	r3, [r3, #4]
   b7e74:	9301      	str	r3, [sp, #4]
   b7e76:	bd08      	pop	{r3, pc}
   b7e78:	00030240 	.word	0x00030240

000b7e7c <network_connecting>:
DYNALIB_FN(2, system_net, network_connecting, bool(network_handle_t, uint32_t, void*))
   b7e7c:	b508      	push	{r3, lr}
   b7e7e:	4b02      	ldr	r3, [pc, #8]	; (b7e88 <network_connecting+0xc>)
   b7e80:	681b      	ldr	r3, [r3, #0]
   b7e82:	689b      	ldr	r3, [r3, #8]
   b7e84:	9301      	str	r3, [sp, #4]
   b7e86:	bd08      	pop	{r3, pc}
   b7e88:	00030240 	.word	0x00030240

000b7e8c <network_disconnect>:
DYNALIB_FN(3, system_net, network_disconnect, void(network_handle_t, uint32_t, void*))
   b7e8c:	b508      	push	{r3, lr}
   b7e8e:	4b02      	ldr	r3, [pc, #8]	; (b7e98 <network_disconnect+0xc>)
   b7e90:	681b      	ldr	r3, [r3, #0]
   b7e92:	68db      	ldr	r3, [r3, #12]
   b7e94:	9301      	str	r3, [sp, #4]
   b7e96:	bd08      	pop	{r3, pc}
   b7e98:	00030240 	.word	0x00030240

000b7e9c <network_ready>:
DYNALIB_FN(4, system_net, network_ready, bool(network_handle_t, uint32_t, void*))
   b7e9c:	b508      	push	{r3, lr}
   b7e9e:	4b02      	ldr	r3, [pc, #8]	; (b7ea8 <network_ready+0xc>)
   b7ea0:	681b      	ldr	r3, [r3, #0]
   b7ea2:	691b      	ldr	r3, [r3, #16]
   b7ea4:	9301      	str	r3, [sp, #4]
   b7ea6:	bd08      	pop	{r3, pc}
   b7ea8:	00030240 	.word	0x00030240

000b7eac <network_on>:
DYNALIB_FN(5, system_net, network_on, void(network_handle_t, uint32_t, uint32_t, void*))
   b7eac:	b508      	push	{r3, lr}
   b7eae:	4b02      	ldr	r3, [pc, #8]	; (b7eb8 <network_on+0xc>)
   b7eb0:	681b      	ldr	r3, [r3, #0]
   b7eb2:	695b      	ldr	r3, [r3, #20]
   b7eb4:	9301      	str	r3, [sp, #4]
   b7eb6:	bd08      	pop	{r3, pc}
   b7eb8:	00030240 	.word	0x00030240

000b7ebc <network_off>:
DYNALIB_FN(6, system_net, network_off, void(network_handle_t, uint32_t, uint32_t, void*))
   b7ebc:	b508      	push	{r3, lr}
   b7ebe:	4b02      	ldr	r3, [pc, #8]	; (b7ec8 <network_off+0xc>)
   b7ec0:	681b      	ldr	r3, [r3, #0]
   b7ec2:	699b      	ldr	r3, [r3, #24]
   b7ec4:	9301      	str	r3, [sp, #4]
   b7ec6:	bd08      	pop	{r3, pc}
   b7ec8:	00030240 	.word	0x00030240

000b7ecc <network_listen>:
DYNALIB_FN(7, system_net, network_listen, void(network_handle_t, uint32_t, void*))
   b7ecc:	b508      	push	{r3, lr}
   b7ece:	4b02      	ldr	r3, [pc, #8]	; (b7ed8 <network_listen+0xc>)
   b7ed0:	681b      	ldr	r3, [r3, #0]
   b7ed2:	69db      	ldr	r3, [r3, #28]
   b7ed4:	9301      	str	r3, [sp, #4]
   b7ed6:	bd08      	pop	{r3, pc}
   b7ed8:	00030240 	.word	0x00030240

000b7edc <network_listening>:
DYNALIB_FN(8, system_net, network_listening, bool(network_handle_t, uint32_t, void*))
   b7edc:	b508      	push	{r3, lr}
   b7ede:	4b02      	ldr	r3, [pc, #8]	; (b7ee8 <network_listening+0xc>)
   b7ee0:	681b      	ldr	r3, [r3, #0]
   b7ee2:	6a1b      	ldr	r3, [r3, #32]
   b7ee4:	9301      	str	r3, [sp, #4]
   b7ee6:	bd08      	pop	{r3, pc}
   b7ee8:	00030240 	.word	0x00030240

000b7eec <network_set_listen_timeout>:
DYNALIB_FN(9, system_net, network_has_credentials, bool(network_handle_t, uint32_t, void*))
DYNALIB_FN(10, system_net, network_set_credentials, int(network_handle_t, uint32_t, NetworkCredentials*, void*))
DYNALIB_FN(11, system_net, network_clear_credentials, bool(network_handle_t, uint32_t, NetworkCredentials*, void*))
DYNALIB_FN(12, system_net, network_set_listen_timeout, void(network_handle_t, uint16_t, void*))
   b7eec:	b508      	push	{r3, lr}
   b7eee:	4b02      	ldr	r3, [pc, #8]	; (b7ef8 <network_set_listen_timeout+0xc>)
   b7ef0:	681b      	ldr	r3, [r3, #0]
   b7ef2:	6b1b      	ldr	r3, [r3, #48]	; 0x30
   b7ef4:	9301      	str	r3, [sp, #4]
   b7ef6:	bd08      	pop	{r3, pc}
   b7ef8:	00030240 	.word	0x00030240

000b7efc <network_get_listen_timeout>:
DYNALIB_FN(13, system_net, network_get_listen_timeout, uint16_t(network_handle_t, uint32_t, void*))
   b7efc:	b508      	push	{r3, lr}
   b7efe:	4b02      	ldr	r3, [pc, #8]	; (b7f08 <network_get_listen_timeout+0xc>)
   b7f00:	681b      	ldr	r3, [r3, #0]
   b7f02:	6b5b      	ldr	r3, [r3, #52]	; 0x34
   b7f04:	9301      	str	r3, [sp, #4]
   b7f06:	bd08      	pop	{r3, pc}
   b7f08:	00030240 	.word	0x00030240

000b7f0c <network_is_on>:
DYNALIB_FN(14, system_net, network_set_hostname, int(network_handle_t, uint32_t, const char*, void*))
DYNALIB_FN(15, system_net, network_get_hostname, int(network_handle_t, uint32_t, char*, size_t, void*))
DYNALIB_FN(16, system_net, network_is_on, bool(network_handle_t, void*))
   b7f0c:	b508      	push	{r3, lr}
   b7f0e:	4b02      	ldr	r3, [pc, #8]	; (b7f18 <network_is_on+0xc>)
   b7f10:	681b      	ldr	r3, [r3, #0]
   b7f12:	6c1b      	ldr	r3, [r3, #64]	; 0x40
   b7f14:	9301      	str	r3, [sp, #4]
   b7f16:	bd08      	pop	{r3, pc}
   b7f18:	00030240 	.word	0x00030240

000b7f1c <network_is_off>:
DYNALIB_FN(17, system_net, network_is_off, bool(network_handle_t, void*))
   b7f1c:	b508      	push	{r3, lr}
   b7f1e:	4b02      	ldr	r3, [pc, #8]	; (b7f28 <network_is_off+0xc>)
   b7f20:	681b      	ldr	r3, [r3, #0]
   b7f22:	6c5b      	ldr	r3, [r3, #68]	; 0x44
   b7f24:	9301      	str	r3, [sp, #4]
   b7f26:	bd08      	pop	{r3, pc}
   b7f28:	00030240 	.word	0x00030240

000b7f2c <malloc>:
#include "hal_platform.h"
#endif // defined(DYNALIB_EXPORT) || (defined(DYNALIB_IMPORT) && !defined(RT_DYNALIB_NO_DEPENDENCY_BREAKING_IMPORTS))

DYNALIB_BEGIN(rt)

DYNALIB_FN(0, rt, malloc, void*(size_t))
   b7f2c:	b508      	push	{r3, lr}
   b7f2e:	4b02      	ldr	r3, [pc, #8]	; (b7f38 <malloc+0xc>)
   b7f30:	681b      	ldr	r3, [r3, #0]
   b7f32:	681b      	ldr	r3, [r3, #0]
   b7f34:	9301      	str	r3, [sp, #4]
   b7f36:	bd08      	pop	{r3, pc}
   b7f38:	0003021c 	.word	0x0003021c

000b7f3c <free>:
DYNALIB_FN(1, rt, free, void(void*))
   b7f3c:	b508      	push	{r3, lr}
   b7f3e:	4b02      	ldr	r3, [pc, #8]	; (b7f48 <free+0xc>)
   b7f40:	681b      	ldr	r3, [r3, #0]
   b7f42:	685b      	ldr	r3, [r3, #4]
   b7f44:	9301      	str	r3, [sp, #4]
   b7f46:	bd08      	pop	{r3, pc}
   b7f48:	0003021c 	.word	0x0003021c

000b7f4c <realloc>:
DYNALIB_FN(2, rt, realloc, void*(void*, size_t))
   b7f4c:	b508      	push	{r3, lr}
   b7f4e:	4b02      	ldr	r3, [pc, #8]	; (b7f58 <realloc+0xc>)
   b7f50:	681b      	ldr	r3, [r3, #0]
   b7f52:	689b      	ldr	r3, [r3, #8]
   b7f54:	9301      	str	r3, [sp, #4]
   b7f56:	bd08      	pop	{r3, pc}
   b7f58:	0003021c 	.word	0x0003021c

000b7f5c <sprintf>:
DYNALIB_FN(3, rt, sprintf, int(char*, const char*, ...))
   b7f5c:	b508      	push	{r3, lr}
   b7f5e:	4b02      	ldr	r3, [pc, #8]	; (b7f68 <sprintf+0xc>)
   b7f60:	681b      	ldr	r3, [r3, #0]
   b7f62:	68db      	ldr	r3, [r3, #12]
   b7f64:	9301      	str	r3, [sp, #4]
   b7f66:	bd08      	pop	{r3, pc}
   b7f68:	0003021c 	.word	0x0003021c

000b7f6c <vsnprintf>:
DYNALIB_FN(4, rt, siprintf, int(char*, const char*, ...))
DYNALIB_FN(5, rt, sscanf, int(const char*, const char*, ...))
DYNALIB_FN(6, rt, siscanf, int(const char*, const char*, ...))
DYNALIB_FN(7, rt, snprintf, int(char*, size_t, const char*, ...))
DYNALIB_FN(8, rt, sniprintf, int(char*, size_t, const char*, ...))
DYNALIB_FN(9, rt, vsnprintf, int(char*, size_t, const char*, va_list))
   b7f6c:	b508      	push	{r3, lr}
   b7f6e:	4b02      	ldr	r3, [pc, #8]	; (b7f78 <vsnprintf+0xc>)
   b7f70:	681b      	ldr	r3, [r3, #0]
   b7f72:	6a5b      	ldr	r3, [r3, #36]	; 0x24
   b7f74:	9301      	str	r3, [sp, #4]
   b7f76:	bd08      	pop	{r3, pc}
   b7f78:	0003021c 	.word	0x0003021c

000b7f7c <abort>:
DYNALIB_FN(10, rt, vsniprintf, int(char*, size_t, const char*, va_list))
DYNALIB_FN(11, rt, abort, void(void))
   b7f7c:	b508      	push	{r3, lr}
   b7f7e:	4b02      	ldr	r3, [pc, #8]	; (b7f88 <abort+0xc>)
   b7f80:	681b      	ldr	r3, [r3, #0]
   b7f82:	6adb      	ldr	r3, [r3, #44]	; 0x2c
   b7f84:	9301      	str	r3, [sp, #4]
   b7f86:	bd08      	pop	{r3, pc}
   b7f88:	0003021c 	.word	0x0003021c

000b7f8c <__errno>:
DYNALIB_FN(12, rt, _malloc_r, void*(struct _reent*, size_t))
DYNALIB_FN(13, rt, _free_r, void(struct _reent*, void*))
DYNALIB_FN(14, rt, _realloc_r, void*(struct _reent*, void*, size_t))
DYNALIB_FN(15, rt, __errno, int*())
   b7f8c:	b508      	push	{r3, lr}
   b7f8e:	4b02      	ldr	r3, [pc, #8]	; (b7f98 <__errno+0xc>)
   b7f90:	681b      	ldr	r3, [r3, #0]
   b7f92:	6bdb      	ldr	r3, [r3, #60]	; 0x3c
   b7f94:	9301      	str	r3, [sp, #4]
   b7f96:	bd08      	pop	{r3, pc}
   b7f98:	0003021c 	.word	0x0003021c

000b7f9c <__assert_func>:

#if defined(DYNALIB_EXPORT) || (defined(DYNALIB_IMPORT) && !defined(RT_DYNALIB_NO_DEPENDENCY_BREAKING_IMPORTS))
DYNALIB_FN(16, rt, __assert_func, void(const char*, int, const char*, const char*))
   b7f9c:	b508      	push	{r3, lr}
   b7f9e:	4b02      	ldr	r3, [pc, #8]	; (b7fa8 <__assert_func+0xc>)
   b7fa0:	681b      	ldr	r3, [r3, #0]
   b7fa2:	6c1b      	ldr	r3, [r3, #64]	; 0x40
   b7fa4:	9301      	str	r3, [sp, #4]
   b7fa6:	bd08      	pop	{r3, pc}
   b7fa8:	0003021c 	.word	0x0003021c

000b7fac <newlib_impure_ptr_callback>:
DYNALIB_FN(17, rt, newlib_impure_ptr_callback, void(void (*)(struct _reent*, size_t, uint32_t, void*), void*))
   b7fac:	b508      	push	{r3, lr}
   b7fae:	4b02      	ldr	r3, [pc, #8]	; (b7fb8 <newlib_impure_ptr_callback+0xc>)
   b7fb0:	681b      	ldr	r3, [r3, #0]
   b7fb2:	6c5b      	ldr	r3, [r3, #68]	; 0x44
   b7fb4:	9301      	str	r3, [sp, #4]
   b7fb6:	bd08      	pop	{r3, pc}
   b7fb8:	0003021c 	.word	0x0003021c

000b7fbc <delay>:
    return (value - fromStart) * (toEnd - toStart) / (fromEnd - fromStart) + toStart;
}

void delay(unsigned long ms)
{
    system_delay_ms(ms, false);
   b7fbc:	2100      	movs	r1, #0
   b7fbe:	f7ff bef3 	b.w	b7da8 <system_delay_ms>

000b7fc2 <_ZNSt23_Sp_counted_ptr_inplaceIN8particle17BlePeerDeviceImplESaIS1_ELN9__gnu_cxx12_Lock_policyE0EED1Ev>:
	  // 2070.  allocate_shared should use allocator_traits<A>::construct
	  allocator_traits<_Alloc>::construct(__a, _M_ptr(),
	      std::forward<_Args>(__args)...); // might throw
	}

      ~_Sp_counted_ptr_inplace() noexcept { }
   b7fc2:	4770      	bx	lr

000b7fc4 <_ZNSt23_Sp_counted_ptr_inplaceIN8particle17BlePeerDeviceImplESaIS1_ELN9__gnu_cxx12_Lock_policyE0EE14_M_get_deleterERKSt9type_info>:
	// Check for the fake type_info first, so we don't try to access it
	// as a real type_info object. Otherwise, check if it's the real
	// type_info for this class. With RTTI enabled we can check directly,
	// or call a library function to do it.
	if (&__ti == &_Sp_make_shared_tag::_S_ti()
	    ||
   b7fc4:	4b06      	ldr	r3, [pc, #24]	; (b7fe0 <_ZNSt23_Sp_counted_ptr_inplaceIN8particle17BlePeerDeviceImplESaIS1_ELN9__gnu_cxx12_Lock_policyE0EE14_M_get_deleterERKSt9type_info+0x1c>)
   b7fc6:	4299      	cmp	r1, r3
      _M_get_deleter(const std::type_info& __ti) noexcept override
   b7fc8:	b510      	push	{r4, lr}
      __aligned_buffer(std::nullptr_t) { }

      void*
      _M_addr() noexcept
      {
        return static_cast<void*>(&_M_storage);
   b7fca:	f100 040c 	add.w	r4, r0, #12
	    ||
   b7fce:	d005      	beq.n	b7fdc <_ZNSt23_Sp_counted_ptr_inplaceIN8particle17BlePeerDeviceImplESaIS1_ELN9__gnu_cxx12_Lock_policyE0EE14_M_get_deleterERKSt9type_info+0x18>
#if __cpp_rtti
	    __ti == typeid(_Sp_make_shared_tag)
#else
	    _Sp_make_shared_tag::_S_eq(__ti)
   b7fd0:	4608      	mov	r0, r1
   b7fd2:	f002 feb1 	bl	bad38 <_ZNSt19_Sp_make_shared_tag5_S_eqERKSt9type_info>
#endif
	   )
	  return __ptr;
	return nullptr;
   b7fd6:	2800      	cmp	r0, #0
   b7fd8:	bf08      	it	eq
   b7fda:	2400      	moveq	r4, #0
      }
   b7fdc:	4620      	mov	r0, r4
   b7fde:	bd10      	pop	{r4, pc}
   b7fe0:	000bcce4 	.word	0x000bcce4

000b7fe4 <_ZNSt23_Sp_counted_ptr_inplaceIN8particle17BlePeerDeviceImplESaIS1_ELN9__gnu_cxx12_Lock_policyE0EED0Ev>:
      ~_Sp_counted_ptr_inplace() noexcept { }
   b7fe4:	b510      	push	{r4, lr}
   b7fe6:	2130      	movs	r1, #48	; 0x30
   b7fe8:	4604      	mov	r4, r0
   b7fea:	f7fc f858 	bl	b409e <_ZdlPvj>
   b7fee:	4620      	mov	r0, r4
   b7ff0:	bd10      	pop	{r4, pc}

000b7ff2 <_ZNSt23_Sp_counted_ptr_inplaceIN8particle17BlePeerDeviceImplESaIS1_ELN9__gnu_cxx12_Lock_policyE0EE10_M_destroyEv>:
# endif
			      std::align_val_t(alignof(_Tp)));
	    return;
	  }
#endif
	::operator delete(__p
   b7ff2:	2130      	movs	r1, #48	; 0x30
   b7ff4:	f7fc b853 	b.w	b409e <_ZdlPvj>

000b7ff8 <_ZNSt14_Function_baseD1Ev>:
	{ __functor._M_access<_Functor*>() = new _Functor(std::move(__f)); }
      };

    _Function_base() : _M_manager(nullptr) { }

    ~_Function_base()
   b7ff8:	b510      	push	{r4, lr}
    {
      if (_M_manager)
   b7ffa:	6883      	ldr	r3, [r0, #8]
    ~_Function_base()
   b7ffc:	4604      	mov	r4, r0
      if (_M_manager)
   b7ffe:	b113      	cbz	r3, b8006 <_ZNSt14_Function_baseD1Ev+0xe>
	_M_manager(_M_functor, _M_functor, __destroy_functor);
   b8000:	2203      	movs	r2, #3
   b8002:	4601      	mov	r1, r0
   b8004:	4798      	blx	r3
    }
   b8006:	4620      	mov	r0, r4
   b8008:	bd10      	pop	{r4, pc}

000b800a <_ZNSt16_Sp_counted_baseILN9__gnu_cxx12_Lock_policyE0EE10_M_releaseEv>:
    {
   b800a:	b510      	push	{r4, lr}
      if (--_M_use_count == 0)
   b800c:	6843      	ldr	r3, [r0, #4]
   b800e:	3b01      	subs	r3, #1
    {
   b8010:	4604      	mov	r4, r0
      if (--_M_use_count == 0)
   b8012:	6043      	str	r3, [r0, #4]
   b8014:	b963      	cbnz	r3, b8030 <_ZNSt16_Sp_counted_baseILN9__gnu_cxx12_Lock_policyE0EE10_M_releaseEv+0x26>
          _M_dispose();
   b8016:	6803      	ldr	r3, [r0, #0]
   b8018:	689b      	ldr	r3, [r3, #8]
   b801a:	4798      	blx	r3
          if (--_M_weak_count == 0)
   b801c:	68a3      	ldr	r3, [r4, #8]
   b801e:	3b01      	subs	r3, #1
   b8020:	60a3      	str	r3, [r4, #8]
   b8022:	b92b      	cbnz	r3, b8030 <_ZNSt16_Sp_counted_baseILN9__gnu_cxx12_Lock_policyE0EE10_M_releaseEv+0x26>
            _M_destroy();
   b8024:	6823      	ldr	r3, [r4, #0]
   b8026:	4620      	mov	r0, r4
   b8028:	68db      	ldr	r3, [r3, #12]
    }
   b802a:	e8bd 4010 	ldmia.w	sp!, {r4, lr}
            _M_destroy();
   b802e:	4718      	bx	r3
    }
   b8030:	bd10      	pop	{r4, pc}
	...

000b8034 <_ZN8particle3ble13WiringBleLockC1Ev>:

namespace ble {

class WiringBleLock {
public:
    WiringBleLock() :
   b8034:	b510      	push	{r4, lr}
            locked_(false) {
   b8036:	2300      	movs	r3, #0
   b8038:	7003      	strb	r3, [r0, #0]
            os_mutex_recursive_destroy(handle_);
            handle_ = nullptr;
        }
    }

    void lock() { os_mutex_recursive_lock(handle_); }
   b803a:	4b04      	ldr	r3, [pc, #16]	; (b804c <_ZN8particle3ble13WiringBleLockC1Ev+0x18>)
    WiringBleLock() :
   b803c:	4604      	mov	r4, r0
   b803e:	6818      	ldr	r0, [r3, #0]
   b8040:	f7ff fcca 	bl	b79d8 <os_mutex_recursive_lock>
        lock.locked_ = false;
    }

    void lock() {
        mutex_.lock();
        locked_ = true;
   b8044:	2301      	movs	r3, #1
   b8046:	7023      	strb	r3, [r4, #0]
    }
   b8048:	4620      	mov	r0, r4
   b804a:	bd10      	pop	{r4, pc}
   b804c:	2003e690 	.word	0x2003e690

000b8050 <_ZN8particle3ble13WiringBleLockD1Ev>:
    ~WiringBleLock() {
   b8050:	b510      	push	{r4, lr}
        if (locked_) {
   b8052:	7803      	ldrb	r3, [r0, #0]
    ~WiringBleLock() {
   b8054:	4604      	mov	r4, r0
        if (locked_) {
   b8056:	b11b      	cbz	r3, b8060 <_ZN8particle3ble13WiringBleLockD1Ev+0x10>
    bool trylock() { return os_mutex_recursive_trylock(handle_)==0; }
    bool try_lock() { return trylock(); }
    void unlock() { os_mutex_recursive_unlock(handle_); }
   b8058:	4b02      	ldr	r3, [pc, #8]	; (b8064 <_ZN8particle3ble13WiringBleLockD1Ev+0x14>)
   b805a:	6818      	ldr	r0, [r3, #0]
   b805c:	f7ff fcc4 	bl	b79e8 <os_mutex_recursive_unlock>
    }
   b8060:	4620      	mov	r0, r4
   b8062:	bd10      	pop	{r4, pc}
   b8064:	2003e690 	.word	0x2003e690

000b8068 <_ZN8particle10BleAddressaSERK14hal_ble_addr_t>:
BleAddress& BleAddress::operator=(const BleAddress& addr) {
    address_ = addr.address_;
    return *this;
}

BleAddress& BleAddress::operator=(const hal_ble_addr_t& addr) {
   b8068:	b082      	sub	sp, #8
   b806a:	4603      	mov	r3, r0
    address_ = addr;
   b806c:	6808      	ldr	r0, [r1, #0]
   b806e:	6849      	ldr	r1, [r1, #4]
   b8070:	466a      	mov	r2, sp
   b8072:	c203      	stmia	r2!, {r0, r1}
    address_ = addr.address_;
   b8074:	466a      	mov	r2, sp
   b8076:	ca03      	ldmia	r2!, {r0, r1}
   b8078:	6018      	str	r0, [r3, #0]
    return *this = BleAddress(addr);
}
   b807a:	4618      	mov	r0, r3
    address_ = addr.address_;
   b807c:	6059      	str	r1, [r3, #4]
}
   b807e:	b002      	add	sp, #8
   b8080:	4770      	bx	lr

000b8082 <_ZNK8particle10BleAddresseqERKS0_>:
BleAddress& BleAddress::operator=(const String& address) {
    *this = address.c_str();
    return *this;
}

bool BleAddress::operator==(const BleAddress& addr) const {
   b8082:	b508      	push	{r3, lr}
    if (address_.addr_type == addr.address_.addr_type && !memcmp(address_.addr, addr.address_.addr, BLE_SIG_ADDR_LEN)) {
   b8084:	7982      	ldrb	r2, [r0, #6]
   b8086:	798b      	ldrb	r3, [r1, #6]
   b8088:	429a      	cmp	r2, r3
   b808a:	d106      	bne.n	b809a <_ZNK8particle10BleAddresseqERKS0_+0x18>
   b808c:	2206      	movs	r2, #6
   b808e:	f004 f99d 	bl	bc3cc <memcmp>
   b8092:	fab0 f080 	clz	r0, r0
   b8096:	0940      	lsrs	r0, r0, #5
        return true;
    }
    return false;
}
   b8098:	bd08      	pop	{r3, pc}
    return false;
   b809a:	2000      	movs	r0, #0
   b809c:	e7fc      	b.n	b8098 <_ZNK8particle10BleAddresseqERKS0_+0x16>

000b809e <_ZN8particle10BleAddress5clearEv>:
    // Other address type
    return true;
}

int BleAddress::clear() {
    memset(address_.addr, 0xFF, BLE_SIG_ADDR_LEN);
   b809e:	f04f 33ff 	mov.w	r3, #4294967295	; 0xffffffff
   b80a2:	6003      	str	r3, [r0, #0]
   b80a4:	8083      	strh	r3, [r0, #4]
    return SYSTEM_ERROR_NONE;
}
   b80a6:	2000      	movs	r0, #0
   b80a8:	4770      	bx	lr

000b80aa <_ZN8particle10BleAddressC1Ev>:
BleAddress::BleAddress()
   b80aa:	b508      	push	{r3, lr}
   b80ac:	4602      	mov	r2, r0
        : address_{} {
   b80ae:	2100      	movs	r1, #0
   b80b0:	6001      	str	r1, [r0, #0]
   b80b2:	6041      	str	r1, [r0, #4]
    clear();
   b80b4:	f7ff fff3 	bl	b809e <_ZN8particle10BleAddress5clearEv>
    address_.addr_type = BLE_SIG_ADDR_TYPE_PUBLIC;
   b80b8:	7191      	strb	r1, [r2, #6]
}
   b80ba:	4610      	mov	r0, r2
   b80bc:	bd08      	pop	{r3, pc}

000b80be <_ZN8particle18BleLocalDeviceImpl14findPeerDeviceEt>:

    void onAttMtuExchangedCallback(const BleOnAttMtuExchangedStdFunction& callback) {
        attMtuExchangedCallback_ = callback;
    }

    BlePeerDevice* findPeerDevice(BleConnectionHandle connHandle) {
   b80be:	b510      	push	{r4, lr}
    return data_;
}

template<typename T, typename AllocatorT>
T* spark::Vector<T, AllocatorT>::end() {
    return data_ + size_;
   b80c0:	e9d0 3206 	ldrd	r3, r2, [r0, #24]
   b80c4:	eb03 02c2 	add.w	r2, r3, r2, lsl #3
        for (auto& peer : peers_) {
   b80c8:	4293      	cmp	r3, r2
   b80ca:	4618      	mov	r0, r3
   b80cc:	d006      	beq.n	b80dc <_ZN8particle18BleLocalDeviceImpl14findPeerDeviceEt+0x1e>
            if (peer.impl()->connHandle() == connHandle) {
   b80ce:	6804      	ldr	r4, [r0, #0]
   b80d0:	8824      	ldrh	r4, [r4, #0]
   b80d2:	428c      	cmp	r4, r1
   b80d4:	f103 0308 	add.w	r3, r3, #8
   b80d8:	d1f6      	bne.n	b80c8 <_ZN8particle18BleLocalDeviceImpl14findPeerDeviceEt+0xa>
                return &peer;
            }
        }
        return nullptr;
    }
   b80da:	bd10      	pop	{r4, pc}
        return nullptr;
   b80dc:	2000      	movs	r0, #0
   b80de:	e7fc      	b.n	b80da <_ZN8particle18BleLocalDeviceImpl14findPeerDeviceEt+0x1c>

000b80e0 <_ZN8particle13BlePeerDeviceC1Ev>:


/*******************************************************
 * BlePeerDevice class
 */
BlePeerDevice::BlePeerDevice()
   b80e0:	b570      	push	{r4, r5, r6, lr}

    protected:
      // This constructor is non-standard, it is used by allocate_shared.
      template<typename _Alloc, typename... _Args>
	__shared_ptr(_Sp_alloc_shared_tag<_Alloc> __tag, _Args&&... __args)
	: _M_ptr(), _M_refcount(_M_ptr, __tag, std::forward<_Args>(__args)...)
   b80e2:	2500      	movs	r5, #0
   b80e4:	6005      	str	r5, [r0, #0]
   b80e6:	4606      	mov	r6, r0
	return static_cast<_Tp*>(::operator new(__n * sizeof(_Tp)));
   b80e8:	2030      	movs	r0, #48	; 0x30
   b80ea:	f7fb ffd4 	bl	b4096 <_Znwj>
	  auto __pi = ::new (__mem)
   b80ee:	4604      	mov	r4, r0
   b80f0:	b188      	cbz	r0, b8116 <_ZN8particle13BlePeerDeviceC1Ev+0x36>
      : _M_use_count(1), _M_weak_count(1) { }
   b80f2:	2301      	movs	r3, #1
   b80f4:	e9c0 3301 	strd	r3, r3, [r0, #4]
	: _M_impl(__a)
   b80f8:	4b09      	ldr	r3, [pc, #36]	; (b8120 <_ZN8particle13BlePeerDeviceC1Ev+0x40>)
   b80fa:	6003      	str	r3, [r0, #0]
              servicesDiscovered_(false) {
   b80fc:	f64f 73ff 	movw	r3, #65535	; 0xffff
   b8100:	8183      	strh	r3, [r0, #12]
   b8102:	300e      	adds	r0, #14
   b8104:	f7ff ffd1 	bl	b80aa <_ZN8particle10BleAddressC1Ev>
        capacity_(0) {
   b8108:	e9c4 5506 	strd	r5, r5, [r4, #24]
   b810c:	e9c4 5508 	strd	r5, r5, [r4, #32]
   b8110:	e9c4 550a 	strd	r5, r5, [r4, #40]	; 0x28
   b8114:	75a5      	strb	r5, [r4, #22]
	  _M_pi = __pi;
   b8116:	6074      	str	r4, [r6, #4]
   b8118:	340c      	adds	r4, #12
	  __p = __pi->_M_ptr();
   b811a:	6034      	str	r4, [r6, #0]
        : impl_(std::make_shared<BlePeerDeviceImpl>()) {
    if (!impl()) {
        SPARK_ASSERT(false);
    }
}
   b811c:	4630      	mov	r0, r6
   b811e:	bd70      	pop	{r4, r5, r6, pc}
   b8120:	000bccd0 	.word	0x000bccd0

000b8124 <_ZNK8particle13BlePeerDevice7addressEv>:
void BlePeerDevice::bind(const BleAddress& address) const {
    WiringBleLock lk;
    impl()->address() = address;
}

BleAddress BlePeerDevice::address() const {
   b8124:	b537      	push	{r0, r1, r2, r4, r5, lr}
   b8126:	460d      	mov	r5, r1
   b8128:	4604      	mov	r4, r0
    WiringBleLock lk;
   b812a:	a801      	add	r0, sp, #4
   b812c:	f7ff ff82 	bl	b8034 <_ZN8particle3ble13WiringBleLockC1Ev>
      { return _M_ptr; }
   b8130:	682a      	ldr	r2, [r5, #0]
    address_ = addr.address_;
   b8132:	f8d2 3002 	ldr.w	r3, [r2, #2]
   b8136:	6023      	str	r3, [r4, #0]
   b8138:	f8d2 3006 	ldr.w	r3, [r2, #6]
   b813c:	6063      	str	r3, [r4, #4]
    WiringBleLock lk;
   b813e:	a801      	add	r0, sp, #4
   b8140:	f7ff ff86 	bl	b8050 <_ZN8particle3ble13WiringBleLockD1Ev>
    return impl()->address();
}
   b8144:	4620      	mov	r0, r4
   b8146:	b003      	add	sp, #12
   b8148:	bd30      	pop	{r4, r5, pc}

000b814a <_ZNK8particle13BlePeerDeviceeqERKS0_>:
bool BlePeerDevice::isValid() const {
    WiringBleLock lk;
    return impl()->connHandle() != BLE_INVALID_CONN_HANDLE;
}

bool BlePeerDevice::operator==(const BlePeerDevice& device) const {
   b814a:	b530      	push	{r4, r5, lr}
   b814c:	4605      	mov	r5, r0
   b814e:	b087      	sub	sp, #28
   b8150:	460c      	mov	r4, r1
    WiringBleLock lk;
   b8152:	a801      	add	r0, sp, #4
   b8154:	f7ff ff6e 	bl	b8034 <_ZN8particle3ble13WiringBleLockC1Ev>
    if (impl()->connHandle() == device.impl()->connHandle() && address() == device.address()) {
   b8158:	682a      	ldr	r2, [r5, #0]
   b815a:	6823      	ldr	r3, [r4, #0]
   b815c:	8812      	ldrh	r2, [r2, #0]
   b815e:	881b      	ldrh	r3, [r3, #0]
   b8160:	429a      	cmp	r2, r3
   b8162:	d10d      	bne.n	b8180 <_ZNK8particle13BlePeerDeviceeqERKS0_+0x36>
   b8164:	4629      	mov	r1, r5
   b8166:	a802      	add	r0, sp, #8
   b8168:	f7ff ffdc 	bl	b8124 <_ZNK8particle13BlePeerDevice7addressEv>
   b816c:	4621      	mov	r1, r4
   b816e:	a804      	add	r0, sp, #16
   b8170:	f7ff ffd8 	bl	b8124 <_ZNK8particle13BlePeerDevice7addressEv>
   b8174:	a904      	add	r1, sp, #16
   b8176:	a802      	add	r0, sp, #8
   b8178:	f7ff ff83 	bl	b8082 <_ZNK8particle10BleAddresseqERKS0_>
   b817c:	4604      	mov	r4, r0
   b817e:	b900      	cbnz	r0, b8182 <_ZNK8particle13BlePeerDeviceeqERKS0_+0x38>
        return true;
    }
    return false;
   b8180:	2400      	movs	r4, #0
    WiringBleLock lk;
   b8182:	a801      	add	r0, sp, #4
   b8184:	f7ff ff64 	bl	b8050 <_ZN8particle3ble13WiringBleLockD1Ev>
}
   b8188:	4620      	mov	r0, r4
   b818a:	b007      	add	sp, #28
   b818c:	bd30      	pop	{r4, r5, pc}
	...

000b8190 <_ZN8particle14BleLocalDeviceC1Ev>:


/*******************************************************
 * BleLocalDevice class
 */
BleLocalDevice::BleLocalDevice()
   b8190:	b510      	push	{r4, lr}
   b8192:	4604      	mov	r4, r0

  /// std::make_unique for single objects
  template<typename _Tp, typename... _Args>
    inline typename _MakeUniq<_Tp>::__single_object
    make_unique(_Args&&... __args)
    { return unique_ptr<_Tp>(new _Tp(std::forward<_Args>(__args)...)); }
   b8194:	2064      	movs	r0, #100	; 0x64
   b8196:	f7fb ff7e 	bl	b4096 <_Znwj>
   b819a:	b168      	cbz	r0, b81b8 <_ZN8particle14BleLocalDeviceC1Ev+0x28>
   b819c:	2300      	movs	r3, #0
   b819e:	e9c0 3300 	strd	r3, r3, [r0]
   b81a2:	e9c0 3302 	strd	r3, r3, [r0, #8]
   b81a6:	e9c0 3304 	strd	r3, r3, [r0, #16]
   b81aa:	e9c0 3306 	strd	r3, r3, [r0, #24]
   b81ae:	6203      	str	r3, [r0, #32]
    _Function_base() : _M_manager(nullptr) { }
   b81b0:	62c3      	str	r3, [r0, #44]	; 0x2c
   b81b2:	63c3      	str	r3, [r0, #60]	; 0x3c
   b81b4:	64c3      	str	r3, [r0, #76]	; 0x4c
   b81b6:	65c3      	str	r3, [r0, #92]	; 0x5c
      __uniq_ptr_impl(pointer __p) : _M_t() { _M_ptr() = __p; }
   b81b8:	6020      	str	r0, [r4, #0]
        : impl_(std::make_unique<BleLocalDeviceImpl>()) {
    if (!impl()) {
   b81ba:	b920      	cbnz	r0, b81c6 <_ZN8particle14BleLocalDeviceC1Ev+0x36>
        SPARK_ASSERT(false);
   b81bc:	4a0a      	ldr	r2, [pc, #40]	; (b81e8 <_ZN8particle14BleLocalDeviceC1Ev+0x58>)
   b81be:	490b      	ldr	r1, [pc, #44]	; (b81ec <_ZN8particle14BleLocalDeviceC1Ev+0x5c>)
   b81c0:	200a      	movs	r0, #10
   b81c2:	f7ff fdc1 	bl	b7d48 <panic_>
    }
    SPARK_ASSERT(hal_ble_stack_init(nullptr) == SYSTEM_ERROR_NONE);
   b81c6:	2000      	movs	r0, #0
   b81c8:	f7ff fbd2 	bl	b7970 <hal_ble_stack_init>
   b81cc:	b120      	cbz	r0, b81d8 <_ZN8particle14BleLocalDeviceC1Ev+0x48>
   b81ce:	4a06      	ldr	r2, [pc, #24]	; (b81e8 <_ZN8particle14BleLocalDeviceC1Ev+0x58>)
   b81d0:	4907      	ldr	r1, [pc, #28]	; (b81f0 <_ZN8particle14BleLocalDeviceC1Ev+0x60>)
   b81d2:	200a      	movs	r0, #10
   b81d4:	f7ff fdb8 	bl	b7d48 <panic_>
    hal_ble_set_callback_on_periph_link_events(impl()->onBleLinkEvents, impl(), nullptr);
   b81d8:	6821      	ldr	r1, [r4, #0]
   b81da:	4806      	ldr	r0, [pc, #24]	; (b81f4 <_ZN8particle14BleLocalDeviceC1Ev+0x64>)
   b81dc:	2200      	movs	r2, #0
   b81de:	f7ff fbe1 	bl	b79a4 <hal_ble_set_callback_on_periph_link_events>
}
   b81e2:	4620      	mov	r0, r4
   b81e4:	bd10      	pop	{r4, pc}
   b81e6:	bf00      	nop
   b81e8:	000b7a09 	.word	0x000b7a09
   b81ec:	000bcbe4 	.word	0x000bcbe4
   b81f0:	000bcc22 	.word	0x000bcc22
   b81f4:	000b84c5 	.word	0x000b84c5

000b81f8 <_ZN8particle14BleLocalDevice11getInstanceEv>:

BleLocalDevice& BleLocalDevice::getInstance() {
   b81f8:	b510      	push	{r4, lr}
    static BleLocalDevice instance;
   b81fa:	4c0a      	ldr	r4, [pc, #40]	; (b8224 <_ZN8particle14BleLocalDevice11getInstanceEv+0x2c>)
   b81fc:	7823      	ldrb	r3, [r4, #0]
   b81fe:	f3bf 8f5b 	dmb	ish
   b8202:	07db      	lsls	r3, r3, #31
   b8204:	d40c      	bmi.n	b8220 <_ZN8particle14BleLocalDevice11getInstanceEv+0x28>
   b8206:	4620      	mov	r0, r4
   b8208:	f7fb ff58 	bl	b40bc <__cxa_guard_acquire>
   b820c:	b140      	cbz	r0, b8220 <_ZN8particle14BleLocalDevice11getInstanceEv+0x28>
   b820e:	4806      	ldr	r0, [pc, #24]	; (b8228 <_ZN8particle14BleLocalDevice11getInstanceEv+0x30>)
   b8210:	f7ff ffbe 	bl	b8190 <_ZN8particle14BleLocalDeviceC1Ev>
   b8214:	4620      	mov	r0, r4
   b8216:	f7fb ff56 	bl	b40c6 <__cxa_guard_release>
   b821a:	4804      	ldr	r0, [pc, #16]	; (b822c <_ZN8particle14BleLocalDevice11getInstanceEv+0x34>)
   b821c:	f004 f8c8 	bl	bc3b0 <atexit>
    return instance;
}
   b8220:	4801      	ldr	r0, [pc, #4]	; (b8228 <_ZN8particle14BleLocalDevice11getInstanceEv+0x30>)
   b8222:	bd10      	pop	{r4, pc}
   b8224:	2003e68c 	.word	0x2003e68c
   b8228:	2003e694 	.word	0x2003e694
   b822c:	000b82ed 	.word	0x000b82ed

000b8230 <_ZNK8particle14BleLocalDevice16provisioningModeEb>:

int BleLocalDevice::selectAntenna(BleAntennaType antenna) const {
    return hal_ble_select_antenna(static_cast<hal_ble_ant_type_t>(antenna), nullptr);
}

int BleLocalDevice::provisioningMode(bool enabled) const {
   b8230:	4608      	mov	r0, r1
    return system_ble_prov_mode(enabled, nullptr);
   b8232:	2100      	movs	r1, #0
   b8234:	f7ff bde6 	b.w	b7e04 <system_ble_prov_mode>

000b8238 <_ZN5spark6VectorI6StringNS_16DefaultAllocatorEED1Ev>:
inline spark::Vector<T, AllocatorT>::~Vector() {
   b8238:	b570      	push	{r4, r5, r6, lr}
    destruct(data_, data_ + size_);
   b823a:	e9d0 5300 	ldrd	r5, r3, [r0]
inline spark::Vector<T, AllocatorT>::~Vector() {
   b823e:	4604      	mov	r4, r0
    destruct(data_, data_ + size_);
   b8240:	eb05 1603 	add.w	r6, r5, r3, lsl #4
        for (; p != end; ++p) {
   b8244:	42ae      	cmp	r6, r5
   b8246:	d004      	beq.n	b8252 <_ZN5spark6VectorI6StringNS_16DefaultAllocatorEED1Ev+0x1a>
            p->~T();
   b8248:	4628      	mov	r0, r5
   b824a:	f002 f867 	bl	ba31c <_ZN6StringD1Ev>
        for (; p != end; ++p) {
   b824e:	3510      	adds	r5, #16
   b8250:	e7f8      	b.n	b8244 <_ZN5spark6VectorI6StringNS_16DefaultAllocatorEED1Ev+0xc>
    ::free(ptr);
   b8252:	6820      	ldr	r0, [r4, #0]
   b8254:	f7ff fe72 	bl	b7f3c <free>
}
   b8258:	4620      	mov	r0, r4
   b825a:	bd70      	pop	{r4, r5, r6, pc}

000b825c <_ZNSt14__shared_countILN9__gnu_cxx12_Lock_policyE0EEC1ERKS2_>:
      : _M_pi(__r._M_pi)
   b825c:	680b      	ldr	r3, [r1, #0]
   b825e:	6003      	str	r3, [r0, #0]
	if (_M_pi != 0)
   b8260:	b113      	cbz	r3, b8268 <_ZNSt14__shared_countILN9__gnu_cxx12_Lock_policyE0EEC1ERKS2_+0xc>
    { ++_M_use_count; }
   b8262:	685a      	ldr	r2, [r3, #4]
   b8264:	3201      	adds	r2, #1
   b8266:	605a      	str	r2, [r3, #4]
      }
   b8268:	4770      	bx	lr

000b826a <_ZNSt12__shared_ptrIN8particle17BlePeerDeviceImplELN9__gnu_cxx12_Lock_policyE0EEC1ERKS4_>:
      __shared_ptr(const __shared_ptr&) noexcept = default;
   b826a:	b510      	push	{r4, lr}
   b826c:	f851 3b04 	ldr.w	r3, [r1], #4
   b8270:	4604      	mov	r4, r0
   b8272:	f840 3b04 	str.w	r3, [r0], #4
   b8276:	f7ff fff1 	bl	b825c <_ZNSt14__shared_countILN9__gnu_cxx12_Lock_policyE0EEC1ERKS2_>
   b827a:	4620      	mov	r0, r4
   b827c:	bd10      	pop	{r4, pc}

000b827e <_ZNSt14__shared_countILN9__gnu_cxx12_Lock_policyE0EED1Ev>:
      ~__shared_count() noexcept
   b827e:	b510      	push	{r4, lr}
   b8280:	4604      	mov	r4, r0
	if (_M_pi != nullptr)
   b8282:	6800      	ldr	r0, [r0, #0]
   b8284:	b108      	cbz	r0, b828a <_ZNSt14__shared_countILN9__gnu_cxx12_Lock_policyE0EED1Ev+0xc>
	  _M_pi->_M_release();
   b8286:	f7ff fec0 	bl	b800a <_ZNSt16_Sp_counted_baseILN9__gnu_cxx12_Lock_policyE0EE10_M_releaseEv>
      }
   b828a:	4620      	mov	r0, r4
   b828c:	bd10      	pop	{r4, pc}

000b828e <_ZN5spark6VectorIN8particle10BleServiceENS_16DefaultAllocatorEED1Ev>:
inline spark::Vector<T, AllocatorT>::~Vector() {
   b828e:	b570      	push	{r4, r5, r6, lr}
    destruct(data_, data_ + size_);
   b8290:	e9d0 5300 	ldrd	r5, r3, [r0]
inline spark::Vector<T, AllocatorT>::~Vector() {
   b8294:	4604      	mov	r4, r0
    destruct(data_, data_ + size_);
   b8296:	eb05 06c3 	add.w	r6, r5, r3, lsl #3
        for (; p != end; ++p) {
   b829a:	42ae      	cmp	r6, r5
   b829c:	d004      	beq.n	b82a8 <_ZN5spark6VectorIN8particle10BleServiceENS_16DefaultAllocatorEED1Ev+0x1a>
      ~__shared_ptr() = default;
   b829e:	1d28      	adds	r0, r5, #4
   b82a0:	f7ff ffed 	bl	b827e <_ZNSt14__shared_countILN9__gnu_cxx12_Lock_policyE0EED1Ev>
   b82a4:	3508      	adds	r5, #8
   b82a6:	e7f8      	b.n	b829a <_ZN5spark6VectorIN8particle10BleServiceENS_16DefaultAllocatorEED1Ev+0xc>
    ::free(ptr);
   b82a8:	6820      	ldr	r0, [r4, #0]
   b82aa:	f7ff fe47 	bl	b7f3c <free>
}
   b82ae:	4620      	mov	r0, r4
   b82b0:	bd70      	pop	{r4, r5, r6, pc}

000b82b2 <_ZN5spark6VectorIN8particle17BleCharacteristicENS_16DefaultAllocatorEED1Ev>:
inline spark::Vector<T, AllocatorT>::~Vector() {
   b82b2:	b570      	push	{r4, r5, r6, lr}
    destruct(data_, data_ + size_);
   b82b4:	e9d0 5300 	ldrd	r5, r3, [r0]
inline spark::Vector<T, AllocatorT>::~Vector() {
   b82b8:	4604      	mov	r4, r0
    destruct(data_, data_ + size_);
   b82ba:	eb05 06c3 	add.w	r6, r5, r3, lsl #3
        for (; p != end; ++p) {
   b82be:	42ae      	cmp	r6, r5
   b82c0:	d004      	beq.n	b82cc <_ZN5spark6VectorIN8particle17BleCharacteristicENS_16DefaultAllocatorEED1Ev+0x1a>
   b82c2:	1d28      	adds	r0, r5, #4
   b82c4:	f7ff ffdb 	bl	b827e <_ZNSt14__shared_countILN9__gnu_cxx12_Lock_policyE0EED1Ev>
   b82c8:	3508      	adds	r5, #8
   b82ca:	e7f8      	b.n	b82be <_ZN5spark6VectorIN8particle17BleCharacteristicENS_16DefaultAllocatorEED1Ev+0xc>
    ::free(ptr);
   b82cc:	6820      	ldr	r0, [r4, #0]
   b82ce:	f7ff fe35 	bl	b7f3c <free>
}
   b82d2:	4620      	mov	r0, r4
   b82d4:	bd70      	pop	{r4, r5, r6, pc}

000b82d6 <_ZNSt23_Sp_counted_ptr_inplaceIN8particle17BlePeerDeviceImplESaIS1_ELN9__gnu_cxx12_Lock_policyE0EE10_M_disposeEv>:
      _M_dispose() noexcept
   b82d6:	b510      	push	{r4, lr}
   b82d8:	4604      	mov	r4, r0
    ~BlePeerDeviceImpl() = default;
   b82da:	3024      	adds	r0, #36	; 0x24
   b82dc:	f7ff ffe9 	bl	b82b2 <_ZN5spark6VectorIN8particle17BleCharacteristicENS_16DefaultAllocatorEED1Ev>
   b82e0:	f104 0018 	add.w	r0, r4, #24
   b82e4:	f7ff ffd3 	bl	b828e <_ZN5spark6VectorIN8particle10BleServiceENS_16DefaultAllocatorEED1Ev>
      }
   b82e8:	bd10      	pop	{r4, pc}
	...

000b82ec <__tcf_0>:
    static BleLocalDevice instance;
   b82ec:	b570      	push	{r4, r5, r6, lr}
	if (__ptr != nullptr)
   b82ee:	4b17      	ldr	r3, [pc, #92]	; (b834c <__tcf_0+0x60>)
   b82f0:	681c      	ldr	r4, [r3, #0]
   b82f2:	b354      	cbz	r4, b834a <__tcf_0+0x5e>
   *  @ingroup functors
   *
   *  Polymorphic function wrapper.
   */
  template<typename _Res, typename... _ArgTypes>
    class function<_Res(_ArgTypes...)>
   b82f4:	f104 0054 	add.w	r0, r4, #84	; 0x54
   b82f8:	f7ff fe7e 	bl	b7ff8 <_ZNSt14_Function_baseD1Ev>
   b82fc:	f104 0044 	add.w	r0, r4, #68	; 0x44
   b8300:	f7ff fe7a 	bl	b7ff8 <_ZNSt14_Function_baseD1Ev>
   b8304:	f104 0034 	add.w	r0, r4, #52	; 0x34
   b8308:	f7ff fe76 	bl	b7ff8 <_ZNSt14_Function_baseD1Ev>
   b830c:	f104 0024 	add.w	r0, r4, #36	; 0x24
   b8310:	f7ff fe72 	bl	b7ff8 <_ZNSt14_Function_baseD1Ev>
    destruct(data_, data_ + size_);
   b8314:	e9d4 5306 	ldrd	r5, r3, [r4, #24]
   b8318:	eb05 06c3 	add.w	r6, r5, r3, lsl #3
        for (; p != end; ++p) {
   b831c:	42ae      	cmp	r6, r5
   b831e:	d004      	beq.n	b832a <__tcf_0+0x3e>
      ~__shared_ptr() = default;
   b8320:	1d28      	adds	r0, r5, #4
   b8322:	f7ff ffac 	bl	b827e <_ZNSt14__shared_countILN9__gnu_cxx12_Lock_policyE0EED1Ev>
   b8326:	3508      	adds	r5, #8
   b8328:	e7f8      	b.n	b831c <__tcf_0+0x30>
    ::free(ptr);
   b832a:	69a0      	ldr	r0, [r4, #24]
   b832c:	f7ff fe06 	bl	b7f3c <free>
    ~BleLocalDeviceImpl() = default;
   b8330:	f104 000c 	add.w	r0, r4, #12
   b8334:	f7ff ffbd 	bl	b82b2 <_ZN5spark6VectorIN8particle17BleCharacteristicENS_16DefaultAllocatorEED1Ev>
   b8338:	4620      	mov	r0, r4
   b833a:	f7ff ffa8 	bl	b828e <_ZN5spark6VectorIN8particle10BleServiceENS_16DefaultAllocatorEED1Ev>
	delete __ptr;
   b833e:	4620      	mov	r0, r4
   b8340:	2164      	movs	r1, #100	; 0x64
    static BleLocalDevice instance;
   b8342:	e8bd 4070 	ldmia.w	sp!, {r4, r5, r6, lr}
   b8346:	f7fb beaa 	b.w	b409e <_ZdlPvj>
   b834a:	bd70      	pop	{r4, r5, r6, pc}
   b834c:	2003e694 	.word	0x2003e694

000b8350 <_ZNKSt8functionIFvRKN8particle13BlePeerDeviceEEEclES3_>:
  template<typename _Res, typename... _ArgTypes>
    _Res
    function<_Res(_ArgTypes...)>::
    operator()(_ArgTypes... __args) const
    {
      if (_M_empty())
   b8350:	6882      	ldr	r2, [r0, #8]
    function<_Res(_ArgTypes...)>::
   b8352:	b510      	push	{r4, lr}
      if (_M_empty())
   b8354:	b90a      	cbnz	r2, b835a <_ZNKSt8functionIFvRKN8particle13BlePeerDeviceEEEclES3_+0xa>
	__throw_bad_function_call();
   b8356:	f002 fceb 	bl	bad30 <_ZSt25__throw_bad_function_callv>
      return _M_invoker(_M_functor, std::forward<_ArgTypes>(__args)...);
    }
   b835a:	e8bd 4010 	ldmia.w	sp!, {r4, lr}
      return _M_invoker(_M_functor, std::forward<_ArgTypes>(__args)...);
   b835e:	68c3      	ldr	r3, [r0, #12]
   b8360:	4718      	bx	r3

000b8362 <_ZN5spark6VectorIN8particle13BlePeerDeviceENS_16DefaultAllocatorEE5clearEv>:
inline void spark::Vector<T, AllocatorT>::clear() {
   b8362:	b570      	push	{r4, r5, r6, lr}
    destruct(data_, data_ + size_);
   b8364:	e9d0 5300 	ldrd	r5, r3, [r0]
inline void spark::Vector<T, AllocatorT>::clear() {
   b8368:	4604      	mov	r4, r0
    destruct(data_, data_ + size_);
   b836a:	eb05 06c3 	add.w	r6, r5, r3, lsl #3
        for (; p != end; ++p) {
   b836e:	42ae      	cmp	r6, r5
   b8370:	d004      	beq.n	b837c <_ZN5spark6VectorIN8particle13BlePeerDeviceENS_16DefaultAllocatorEE5clearEv+0x1a>
   b8372:	1d28      	adds	r0, r5, #4
   b8374:	f7ff ff83 	bl	b827e <_ZNSt14__shared_countILN9__gnu_cxx12_Lock_policyE0EED1Ev>
   b8378:	3508      	adds	r5, #8
   b837a:	e7f8      	b.n	b836e <_ZN5spark6VectorIN8particle13BlePeerDeviceENS_16DefaultAllocatorEE5clearEv+0xc>
    size_ = 0;
   b837c:	2300      	movs	r3, #0
   b837e:	6063      	str	r3, [r4, #4]
}
   b8380:	bd70      	pop	{r4, r5, r6, pc}

000b8382 <_ZNK8particle14BleLocalDevice3offEv>:
int BleLocalDevice::off() const {
   b8382:	b513      	push	{r0, r1, r4, lr}
   b8384:	4604      	mov	r4, r0
    CHECK(hal_ble_stack_deinit(nullptr));
   b8386:	2000      	movs	r0, #0
   b8388:	f7ff fafa 	bl	b7980 <hal_ble_stack_deinit>
   b838c:	2800      	cmp	r0, #0
   b838e:	db12      	blt.n	b83b6 <_ZNK8particle14BleLocalDevice3offEv+0x34>
}

bool BleLocalDevice::getProvisioningStatus() const {
    return system_ble_prov_get_status(nullptr);
   b8390:	2000      	movs	r0, #0
   b8392:	f7ff fd41 	bl	b7e18 <system_ble_prov_get_status>
        if (getProvisioningStatus()) {
   b8396:	b118      	cbz	r0, b83a0 <_ZNK8particle14BleLocalDevice3offEv+0x1e>
            provisioningMode(false);
   b8398:	2100      	movs	r1, #0
   b839a:	4620      	mov	r0, r4
   b839c:	f7ff ff48 	bl	b8230 <_ZNK8particle14BleLocalDevice16provisioningModeEb>
        WiringBleLock lk;
   b83a0:	a801      	add	r0, sp, #4
   b83a2:	f7ff fe47 	bl	b8034 <_ZN8particle3ble13WiringBleLockC1Ev>
        return peers_;
   b83a6:	6820      	ldr	r0, [r4, #0]
        impl()->peers().clear();
   b83a8:	3018      	adds	r0, #24
   b83aa:	f7ff ffda 	bl	b8362 <_ZN5spark6VectorIN8particle13BlePeerDeviceENS_16DefaultAllocatorEE5clearEv>
        WiringBleLock lk;
   b83ae:	a801      	add	r0, sp, #4
   b83b0:	f7ff fe4e 	bl	b8050 <_ZN8particle3ble13WiringBleLockD1Ev>
    return SYSTEM_ERROR_NONE;
   b83b4:	2000      	movs	r0, #0
}
   b83b6:	b002      	add	sp, #8
   b83b8:	bd10      	pop	{r4, pc}

000b83ba <_ZN5spark6VectorIN8particle13BlePeerDeviceENS_16DefaultAllocatorEE4moveIS2_Li0EEEvPS2_S6_S6_>:
        if (dest > p && dest < end) {
   b83ba:	4288      	cmp	r0, r1
    static void move(T* dest, T* p, T* end) {
   b83bc:	b5f8      	push	{r3, r4, r5, r6, r7, lr}
   b83be:	4604      	mov	r4, r0
   b83c0:	460d      	mov	r5, r1
   b83c2:	4616      	mov	r6, r2
        if (dest > p && dest < end) {
   b83c4:	d914      	bls.n	b83f0 <_ZN5spark6VectorIN8particle13BlePeerDeviceENS_16DefaultAllocatorEE4moveIS2_Li0EEEvPS2_S6_S6_+0x36>
   b83c6:	4290      	cmp	r0, r2
   b83c8:	d213      	bcs.n	b83f2 <_ZN5spark6VectorIN8particle13BlePeerDeviceENS_16DefaultAllocatorEE4moveIS2_Li0EEEvPS2_S6_S6_+0x38>
            --end;
   b83ca:	f1a2 0608 	sub.w	r6, r2, #8
            dest += end - p - 1;
   b83ce:	1a75      	subs	r5, r6, r1
   b83d0:	f1a1 0708 	sub.w	r7, r1, #8
   b83d4:	442c      	add	r4, r5
            for (; end != p; --end, --dest) {
   b83d6:	42b7      	cmp	r7, r6
   b83d8:	d018      	beq.n	b840c <_ZN5spark6VectorIN8particle13BlePeerDeviceENS_16DefaultAllocatorEE4moveIS2_Li0EEEvPS2_S6_S6_+0x52>
                new(dest) T(std::move(*end));
   b83da:	b11c      	cbz	r4, b83e4 <_ZN5spark6VectorIN8particle13BlePeerDeviceENS_16DefaultAllocatorEE4moveIS2_Li0EEEvPS2_S6_S6_+0x2a>
       *  @brief  Construct an empty %shared_ptr.
       *  @post   use_count()==0 && get()==0
       */
      constexpr shared_ptr() noexcept : __shared_ptr<_Tp>() { }

      shared_ptr(const shared_ptr&) noexcept = default; ///< Copy constructor
   b83dc:	4631      	mov	r1, r6
   b83de:	4620      	mov	r0, r4
   b83e0:	f7ff ff43 	bl	b826a <_ZNSt12__shared_ptrIN8particle17BlePeerDeviceImplELN9__gnu_cxx12_Lock_policyE0EEC1ERKS4_>
   b83e4:	1d30      	adds	r0, r6, #4
   b83e6:	f7ff ff4a 	bl	b827e <_ZNSt14__shared_countILN9__gnu_cxx12_Lock_policyE0EED1Ev>
            for (; end != p; --end, --dest) {
   b83ea:	3e08      	subs	r6, #8
   b83ec:	3c08      	subs	r4, #8
   b83ee:	e7f2      	b.n	b83d6 <_ZN5spark6VectorIN8particle13BlePeerDeviceENS_16DefaultAllocatorEE4moveIS2_Li0EEEvPS2_S6_S6_+0x1c>
        } else if (dest != p) {
   b83f0:	d00c      	beq.n	b840c <_ZN5spark6VectorIN8particle13BlePeerDeviceENS_16DefaultAllocatorEE4moveIS2_Li0EEEvPS2_S6_S6_+0x52>
            for (; p != end; ++p, ++dest) {
   b83f2:	42b5      	cmp	r5, r6
   b83f4:	d00a      	beq.n	b840c <_ZN5spark6VectorIN8particle13BlePeerDeviceENS_16DefaultAllocatorEE4moveIS2_Li0EEEvPS2_S6_S6_+0x52>
                new(dest) T(std::move(*p));
   b83f6:	b11c      	cbz	r4, b8400 <_ZN5spark6VectorIN8particle13BlePeerDeviceENS_16DefaultAllocatorEE4moveIS2_Li0EEEvPS2_S6_S6_+0x46>
   b83f8:	4629      	mov	r1, r5
   b83fa:	4620      	mov	r0, r4
   b83fc:	f7ff ff35 	bl	b826a <_ZNSt12__shared_ptrIN8particle17BlePeerDeviceImplELN9__gnu_cxx12_Lock_policyE0EEC1ERKS4_>
   b8400:	1d28      	adds	r0, r5, #4
   b8402:	f7ff ff3c 	bl	b827e <_ZNSt14__shared_countILN9__gnu_cxx12_Lock_policyE0EED1Ev>
            for (; p != end; ++p, ++dest) {
   b8406:	3508      	adds	r5, #8
   b8408:	3408      	adds	r4, #8
   b840a:	e7f2      	b.n	b83f2 <_ZN5spark6VectorIN8particle13BlePeerDeviceENS_16DefaultAllocatorEE4moveIS2_Li0EEEvPS2_S6_S6_+0x38>
    }
   b840c:	bdf8      	pop	{r3, r4, r5, r6, r7, pc}

000b840e <_ZN5spark6VectorIN8particle13BlePeerDeviceENS_16DefaultAllocatorEE6appendES2_>:
inline bool spark::Vector<T, AllocatorT>::append(T value) {
   b840e:	b5f7      	push	{r0, r1, r2, r4, r5, r6, r7, lr}
   b8410:	4604      	mov	r4, r0
    return insert(size_, std::move(value));
   b8412:	6846      	ldr	r6, [r0, #4]
   b8414:	4668      	mov	r0, sp
   b8416:	f7ff ff28 	bl	b826a <_ZNSt12__shared_ptrIN8particle17BlePeerDeviceImplELN9__gnu_cxx12_Lock_policyE0EEC1ERKS4_>
    if (size_ + 1 > capacity_ && !realloc(size_ + 1)) {
   b841a:	e9d4 7301 	ldrd	r7, r3, [r4, #4]
   b841e:	429f      	cmp	r7, r3
   b8420:	db12      	blt.n	b8448 <_ZN5spark6VectorIN8particle13BlePeerDeviceENS_16DefaultAllocatorEE6appendES2_+0x3a>
   b8422:	3701      	adds	r7, #1
        if (n > 0) {
   b8424:	2f00      	cmp	r7, #0
   b8426:	dd29      	ble.n	b847c <_ZN5spark6VectorIN8particle13BlePeerDeviceENS_16DefaultAllocatorEE6appendES2_+0x6e>
    return ::malloc(size);
   b8428:	00f8      	lsls	r0, r7, #3
   b842a:	f7ff fd7f 	bl	b7f2c <malloc>
            if (!d) {
   b842e:	4605      	mov	r5, r0
   b8430:	b1f0      	cbz	r0, b8470 <_ZN5spark6VectorIN8particle13BlePeerDeviceENS_16DefaultAllocatorEE6appendES2_+0x62>
            move(d, data_, data_ + size_);
   b8432:	e9d4 1200 	ldrd	r1, r2, [r4]
   b8436:	eb01 02c2 	add.w	r2, r1, r2, lsl #3
   b843a:	f7ff ffbe 	bl	b83ba <_ZN5spark6VectorIN8particle13BlePeerDeviceENS_16DefaultAllocatorEE4moveIS2_Li0EEEvPS2_S6_S6_>
    ::free(ptr);
   b843e:	6820      	ldr	r0, [r4, #0]
   b8440:	f7ff fd7c 	bl	b7f3c <free>
        data_ = d;
   b8444:	6025      	str	r5, [r4, #0]
        capacity_ = n;
   b8446:	60a7      	str	r7, [r4, #8]
    T* const p = data_ + i;
   b8448:	6823      	ldr	r3, [r4, #0]
    move(p + 1, p, data_ + size_);
   b844a:	6862      	ldr	r2, [r4, #4]
    T* const p = data_ + i;
   b844c:	eb03 06c6 	add.w	r6, r3, r6, lsl #3
    move(p + 1, p, data_ + size_);
   b8450:	eb03 02c2 	add.w	r2, r3, r2, lsl #3
   b8454:	4631      	mov	r1, r6
   b8456:	f106 0008 	add.w	r0, r6, #8
   b845a:	f7ff ffae 	bl	b83ba <_ZN5spark6VectorIN8particle13BlePeerDeviceENS_16DefaultAllocatorEE4moveIS2_Li0EEEvPS2_S6_S6_>
    new(p) T(std::move(value));
   b845e:	b11e      	cbz	r6, b8468 <_ZN5spark6VectorIN8particle13BlePeerDeviceENS_16DefaultAllocatorEE6appendES2_+0x5a>
   b8460:	4669      	mov	r1, sp
   b8462:	4630      	mov	r0, r6
   b8464:	f7ff ff01 	bl	b826a <_ZNSt12__shared_ptrIN8particle17BlePeerDeviceImplELN9__gnu_cxx12_Lock_policyE0EEC1ERKS4_>
    ++size_;
   b8468:	6863      	ldr	r3, [r4, #4]
   b846a:	3301      	adds	r3, #1
   b846c:	6063      	str	r3, [r4, #4]
    return true;
   b846e:	2501      	movs	r5, #1
   b8470:	a801      	add	r0, sp, #4
   b8472:	f7ff ff04 	bl	b827e <_ZNSt14__shared_countILN9__gnu_cxx12_Lock_policyE0EED1Ev>
}
   b8476:	4628      	mov	r0, r5
   b8478:	b003      	add	sp, #12
   b847a:	bdf0      	pop	{r4, r5, r6, r7, pc}
        T* d = nullptr;
   b847c:	2500      	movs	r5, #0
   b847e:	e7de      	b.n	b843e <_ZN5spark6VectorIN8particle13BlePeerDeviceENS_16DefaultAllocatorEE6appendES2_+0x30>

000b8480 <_ZN5spark6VectorIN8particle13BlePeerDeviceENS_16DefaultAllocatorEE9removeOneERKS2_.isra.0>:
inline bool spark::Vector<T, AllocatorT>::removeOne(const T &value) {
   b8480:	b5f8      	push	{r3, r4, r5, r6, r7, lr}
    T* const p = find(data_, data_ + size_, value);
   b8482:	e9d0 4300 	ldrd	r4, r3, [r0]
inline bool spark::Vector<T, AllocatorT>::removeOne(const T &value) {
   b8486:	4605      	mov	r5, r0
   b8488:	460f      	mov	r7, r1
    T* const p = find(data_, data_ + size_, value);
   b848a:	eb04 06c3 	add.w	r6, r4, r3, lsl #3
        for (; p != end; ++p) {
   b848e:	42a6      	cmp	r6, r4
   b8490:	d005      	beq.n	b849e <_ZN5spark6VectorIN8particle13BlePeerDeviceENS_16DefaultAllocatorEE9removeOneERKS2_.isra.0+0x1e>
            if (*p == value) {
   b8492:	4639      	mov	r1, r7
   b8494:	4620      	mov	r0, r4
   b8496:	f7ff fe58 	bl	b814a <_ZNK8particle13BlePeerDeviceeqERKS0_>
   b849a:	b108      	cbz	r0, b84a0 <_ZN5spark6VectorIN8particle13BlePeerDeviceENS_16DefaultAllocatorEE9removeOneERKS2_.isra.0+0x20>
    if (!p) {
   b849c:	b914      	cbnz	r4, b84a4 <_ZN5spark6VectorIN8particle13BlePeerDeviceENS_16DefaultAllocatorEE9removeOneERKS2_.isra.0+0x24>
}
   b849e:	bdf8      	pop	{r3, r4, r5, r6, r7, pc}
        for (; p != end; ++p) {
   b84a0:	3408      	adds	r4, #8
   b84a2:	e7f4      	b.n	b848e <_ZN5spark6VectorIN8particle13BlePeerDeviceENS_16DefaultAllocatorEE9removeOneERKS2_.isra.0+0xe>
   b84a4:	1d20      	adds	r0, r4, #4
   b84a6:	f7ff feea 	bl	b827e <_ZNSt14__shared_countILN9__gnu_cxx12_Lock_policyE0EED1Ev>
    move(p, p + 1, data_ + size_);
   b84aa:	e9d5 3200 	ldrd	r3, r2, [r5]
   b84ae:	f104 0108 	add.w	r1, r4, #8
   b84b2:	eb03 02c2 	add.w	r2, r3, r2, lsl #3
   b84b6:	4620      	mov	r0, r4
   b84b8:	f7ff ff7f 	bl	b83ba <_ZN5spark6VectorIN8particle13BlePeerDeviceENS_16DefaultAllocatorEE4moveIS2_Li0EEEvPS2_S6_S6_>
    --size_;
   b84bc:	686b      	ldr	r3, [r5, #4]
   b84be:	3b01      	subs	r3, #1
   b84c0:	606b      	str	r3, [r5, #4]
    return true;
   b84c2:	e7ec      	b.n	b849e <_ZN5spark6VectorIN8particle13BlePeerDeviceENS_16DefaultAllocatorEE9removeOneERKS2_.isra.0+0x1e>

000b84c4 <_ZN8particle18BleLocalDeviceImpl15onBleLinkEventsEPK18hal_ble_link_evt_tPv>:
    static void onBleLinkEvents(const hal_ble_link_evt_t* event, void* context) {
   b84c4:	e92d 41f0 	stmdb	sp!, {r4, r5, r6, r7, r8, lr}
   b84c8:	4605      	mov	r5, r0
   b84ca:	b08e      	sub	sp, #56	; 0x38
        WiringBleLock lk;
   b84cc:	a803      	add	r0, sp, #12
    static void onBleLinkEvents(const hal_ble_link_evt_t* event, void* context) {
   b84ce:	460c      	mov	r4, r1
        WiringBleLock lk;
   b84d0:	f7ff fdb0 	bl	b8034 <_ZN8particle3ble13WiringBleLockC1Ev>
        switch (event->type) {
   b84d4:	682e      	ldr	r6, [r5, #0]
   b84d6:	1ef3      	subs	r3, r6, #3
   b84d8:	2b0d      	cmp	r3, #13
   b84da:	d83c      	bhi.n	b8556 <_ZN8particle18BleLocalDeviceImpl15onBleLinkEventsEPK18hal_ble_link_evt_tPv+0x92>
   b84dc:	e8df f013 	tbh	[pc, r3, lsl #1]
   b84e0:	0053000e 	.word	0x0053000e
   b84e4:	00d1003b 	.word	0x00d1003b
   b84e8:	003b003b 	.word	0x003b003b
   b84ec:	003b003b 	.word	0x003b003b
   b84f0:	009b003b 	.word	0x009b003b
   b84f4:	009b009b 	.word	0x009b009b
   b84f8:	009b009b 	.word	0x009b009b
                BlePeerDevice peer;
   b84fc:	a804      	add	r0, sp, #16
   b84fe:	f7ff fdef 	bl	b80e0 <_ZN8particle13BlePeerDeviceC1Ev>
                peer.impl()->connHandle() = event->conn_handle;
   b8502:	9b04      	ldr	r3, [sp, #16]
   b8504:	89aa      	ldrh	r2, [r5, #12]
   b8506:	801a      	strh	r2, [r3, #0]
                peer.impl()->address() = event->params.connected.info->address;
   b8508:	6869      	ldr	r1, [r5, #4]
   b850a:	9804      	ldr	r0, [sp, #16]
   b850c:	3108      	adds	r1, #8
   b850e:	3002      	adds	r0, #2
   b8510:	f7ff fdaa 	bl	b8068 <_ZN8particle10BleAddressaSERK14hal_ble_addr_t>
   b8514:	a904      	add	r1, sp, #16
   b8516:	a806      	add	r0, sp, #24
   b8518:	f7ff fea7 	bl	b826a <_ZNSt12__shared_ptrIN8particle17BlePeerDeviceImplELN9__gnu_cxx12_Lock_policyE0EEC1ERKS4_>
                if (!impl->peers_.append(peer)) {
   b851c:	a906      	add	r1, sp, #24
   b851e:	f104 0018 	add.w	r0, r4, #24
   b8522:	f7ff ff74 	bl	b840e <_ZN5spark6VectorIN8particle13BlePeerDeviceENS_16DefaultAllocatorEE6appendES2_>
   b8526:	4605      	mov	r5, r0
   b8528:	a807      	add	r0, sp, #28
   b852a:	f7ff fea8 	bl	b827e <_ZNSt14__shared_countILN9__gnu_cxx12_Lock_policyE0EED1Ev>
   b852e:	2320      	movs	r3, #32
                    LOG(ERROR, "Failed to append peer Central device.");
   b8530:	9306      	str	r3, [sp, #24]
                if (!impl->peers_.append(peer)) {
   b8532:	b9b5      	cbnz	r5, b8562 <_ZN8particle18BleLocalDeviceImpl15onBleLinkEventsEPK18hal_ble_link_evt_tPv+0x9e>
                    LOG(ERROR, "Failed to append peer Central device.");
   b8534:	4b5d      	ldr	r3, [pc, #372]	; (b86ac <_ZN8particle18BleLocalDeviceImpl15onBleLinkEventsEPK18hal_ble_link_evt_tPv+0x1e8>)
   b8536:	495e      	ldr	r1, [pc, #376]	; (b86b0 <_ZN8particle18BleLocalDeviceImpl15onBleLinkEventsEPK18hal_ble_link_evt_tPv+0x1ec>)
   b8538:	9300      	str	r3, [sp, #0]
   b853a:	2032      	movs	r0, #50	; 0x32
   b853c:	462b      	mov	r3, r5
   b853e:	aa06      	add	r2, sp, #24
   b8540:	9507      	str	r5, [sp, #28]
   b8542:	f7ff fc09 	bl	b7d58 <log_message>
                    hal_ble_gap_disconnect(peer.impl()->connHandle(), nullptr);
   b8546:	9b04      	ldr	r3, [sp, #16]
   b8548:	4629      	mov	r1, r5
   b854a:	8818      	ldrh	r0, [r3, #0]
   b854c:	f7ff fa20 	bl	b7990 <hal_ble_gap_disconnect>
   b8550:	a805      	add	r0, sp, #20
   b8552:	f7ff fe94 	bl	b827e <_ZNSt14__shared_countILN9__gnu_cxx12_Lock_policyE0EED1Ev>
        WiringBleLock lk;
   b8556:	a803      	add	r0, sp, #12
   b8558:	f7ff fd7a 	bl	b8050 <_ZN8particle3ble13WiringBleLockD1Ev>
    }
   b855c:	b00e      	add	sp, #56	; 0x38
   b855e:	e8bd 81f0 	ldmia.w	sp!, {r4, r5, r6, r7, r8, pc}
                LOG(TRACE, "Connected by Central device.");
   b8562:	4a54      	ldr	r2, [pc, #336]	; (b86b4 <_ZN8particle18BleLocalDeviceImpl15onBleLinkEventsEPK18hal_ble_link_evt_tPv+0x1f0>)
   b8564:	9200      	str	r2, [sp, #0]
   b8566:	2300      	movs	r3, #0
   b8568:	4951      	ldr	r1, [pc, #324]	; (b86b0 <_ZN8particle18BleLocalDeviceImpl15onBleLinkEventsEPK18hal_ble_link_evt_tPv+0x1ec>)
   b856a:	9307      	str	r3, [sp, #28]
   b856c:	aa06      	add	r2, sp, #24
   b856e:	2001      	movs	r0, #1
   b8570:	f7ff fbf2 	bl	b7d58 <log_message>
                if (impl->connectedCallback_) {
   b8574:	6ae3      	ldr	r3, [r4, #44]	; 0x2c
   b8576:	2b00      	cmp	r3, #0
   b8578:	d0ea      	beq.n	b8550 <_ZN8particle18BleLocalDeviceImpl15onBleLinkEventsEPK18hal_ble_link_evt_tPv+0x8c>
                    impl->connectedCallback_(peer);
   b857a:	a904      	add	r1, sp, #16
   b857c:	f104 0024 	add.w	r0, r4, #36	; 0x24
   b8580:	f7ff fee6 	bl	b8350 <_ZNKSt8functionIFvRKN8particle13BlePeerDeviceEEEclES3_>
   b8584:	e7e4      	b.n	b8550 <_ZN8particle18BleLocalDeviceImpl15onBleLinkEventsEPK18hal_ble_link_evt_tPv+0x8c>
                BlePeerDevice* peer = impl->findPeerDevice(event->conn_handle);
   b8586:	89a9      	ldrh	r1, [r5, #12]
   b8588:	4620      	mov	r0, r4
   b858a:	f7ff fd98 	bl	b80be <_ZN8particle18BleLocalDeviceImpl14findPeerDeviceEt>
                if (peer) {
   b858e:	4606      	mov	r6, r0
   b8590:	2800      	cmp	r0, #0
   b8592:	d0e0      	beq.n	b8556 <_ZN8particle18BleLocalDeviceImpl15onBleLinkEventsEPK18hal_ble_link_evt_tPv+0x92>
      { return _M_ptr; }
   b8594:	6805      	ldr	r5, [r0, #0]
    return data_ + size_;
   b8596:	e9d5 3206 	ldrd	r3, r2, [r5, #24]
        connHandle_ = BLE_INVALID_CONN_HANDLE;
   b859a:	f64f 71ff 	movw	r1, #65535	; 0xffff
   b859e:	8029      	strh	r1, [r5, #0]
   b85a0:	eb03 02c2 	add.w	r2, r3, r2, lsl #3
        for (auto& characteristic : characteristics()) {
   b85a4:	429a      	cmp	r2, r3
   b85a6:	d003      	beq.n	b85b0 <_ZN8particle18BleLocalDeviceImpl15onBleLinkEventsEPK18hal_ble_link_evt_tPv+0xec>
   b85a8:	f853 0b08 	ldr.w	r0, [r3], #8
            characteristic.impl()->connHandle() = BLE_INVALID_CONN_HANDLE;
   b85ac:	8041      	strh	r1, [r0, #2]
        for (auto& characteristic : characteristics()) {
   b85ae:	e7f9      	b.n	b85a4 <_ZN8particle18BleLocalDeviceImpl15onBleLinkEventsEPK18hal_ble_link_evt_tPv+0xe0>
    destruct(data_, data_ + size_);
   b85b0:	e9d5 7303 	ldrd	r7, r3, [r5, #12]
   b85b4:	eb07 08c3 	add.w	r8, r7, r3, lsl #3
        for (; p != end; ++p) {
   b85b8:	45b8      	cmp	r8, r7
   b85ba:	d004      	beq.n	b85c6 <_ZN8particle18BleLocalDeviceImpl15onBleLinkEventsEPK18hal_ble_link_evt_tPv+0x102>
      ~__shared_ptr() = default;
   b85bc:	1d38      	adds	r0, r7, #4
   b85be:	f7ff fe5e 	bl	b827e <_ZNSt14__shared_countILN9__gnu_cxx12_Lock_policyE0EED1Ev>
   b85c2:	3708      	adds	r7, #8
   b85c4:	e7f8      	b.n	b85b8 <_ZN8particle18BleLocalDeviceImpl15onBleLinkEventsEPK18hal_ble_link_evt_tPv+0xf4>
    size_ = 0;
   b85c6:	2300      	movs	r3, #0
   b85c8:	612b      	str	r3, [r5, #16]
    destruct(data_, data_ + size_);
   b85ca:	e9d5 7306 	ldrd	r7, r3, [r5, #24]
   b85ce:	eb07 08c3 	add.w	r8, r7, r3, lsl #3
        for (; p != end; ++p) {
   b85d2:	45b8      	cmp	r8, r7
   b85d4:	d004      	beq.n	b85e0 <_ZN8particle18BleLocalDeviceImpl15onBleLinkEventsEPK18hal_ble_link_evt_tPv+0x11c>
   b85d6:	1d38      	adds	r0, r7, #4
   b85d8:	f7ff fe51 	bl	b827e <_ZNSt14__shared_countILN9__gnu_cxx12_Lock_policyE0EED1Ev>
   b85dc:	3708      	adds	r7, #8
   b85de:	e7f8      	b.n	b85d2 <_ZN8particle18BleLocalDeviceImpl15onBleLinkEventsEPK18hal_ble_link_evt_tPv+0x10e>
    size_ = 0;
   b85e0:	2300      	movs	r3, #0
   b85e2:	61eb      	str	r3, [r5, #28]
        servicesDiscovered_ = false;
   b85e4:	72ab      	strb	r3, [r5, #10]
                    if (impl->disconnectedCallback_) {
   b85e6:	6be3      	ldr	r3, [r4, #60]	; 0x3c
   b85e8:	b123      	cbz	r3, b85f4 <_ZN8particle18BleLocalDeviceImpl15onBleLinkEventsEPK18hal_ble_link_evt_tPv+0x130>
                        impl->disconnectedCallback_(*peer);
   b85ea:	4631      	mov	r1, r6
   b85ec:	f104 0034 	add.w	r0, r4, #52	; 0x34
   b85f0:	f7ff feae 	bl	b8350 <_ZNKSt8functionIFvRKN8particle13BlePeerDeviceEEEclES3_>
                    LOG(TRACE, "Disconnected by remote device.");
   b85f4:	2300      	movs	r3, #0
   b85f6:	2220      	movs	r2, #32
   b85f8:	e9cd 2306 	strd	r2, r3, [sp, #24]
   b85fc:	4a2e      	ldr	r2, [pc, #184]	; (b86b8 <_ZN8particle18BleLocalDeviceImpl15onBleLinkEventsEPK18hal_ble_link_evt_tPv+0x1f4>)
   b85fe:	9200      	str	r2, [sp, #0]
   b8600:	492b      	ldr	r1, [pc, #172]	; (b86b0 <_ZN8particle18BleLocalDeviceImpl15onBleLinkEventsEPK18hal_ble_link_evt_tPv+0x1ec>)
   b8602:	aa06      	add	r2, sp, #24
   b8604:	2001      	movs	r0, #1
   b8606:	f7ff fba7 	bl	b7d58 <log_message>
                    impl->peers_.removeOne(*peer);
   b860a:	4631      	mov	r1, r6
   b860c:	f104 0018 	add.w	r0, r4, #24
   b8610:	f7ff ff36 	bl	b8480 <_ZN5spark6VectorIN8particle13BlePeerDeviceENS_16DefaultAllocatorEE9removeOneERKS2_.isra.0>
   b8614:	e79f      	b.n	b8556 <_ZN8particle18BleLocalDeviceImpl15onBleLinkEventsEPK18hal_ble_link_evt_tPv+0x92>
                BlePeerDevice* peer = impl->findPeerDevice(event->conn_handle);
   b8616:	89a9      	ldrh	r1, [r5, #12]
   b8618:	4620      	mov	r0, r4
   b861a:	f7ff fd50 	bl	b80be <_ZN8particle18BleLocalDeviceImpl14findPeerDeviceEt>
                if (peer) {
   b861e:	2800      	cmp	r0, #0
   b8620:	d099      	beq.n	b8556 <_ZN8particle18BleLocalDeviceImpl15onBleLinkEventsEPK18hal_ble_link_evt_tPv+0x92>
                    if (impl->pairingEventCallback_) {
   b8622:	6ce3      	ldr	r3, [r4, #76]	; 0x4c
   b8624:	2b00      	cmp	r3, #0
   b8626:	d096      	beq.n	b8556 <_ZN8particle18BleLocalDeviceImpl15onBleLinkEventsEPK18hal_ble_link_evt_tPv+0x92>
                        BlePairingEventPayload payload = {};
   b8628:	2300      	movs	r3, #0
                        if (event->type == BLE_EVT_PAIRING_PASSKEY_DISPLAY || event->type == BLE_EVT_PAIRING_NUMERIC_COMPARISON) {
   b862a:	2e0d      	cmp	r6, #13
                        BlePairingEventPayload payload = {};
   b862c:	f8ad 3016 	strh.w	r3, [sp, #22]
                        if (event->type == BLE_EVT_PAIRING_PASSKEY_DISPLAY || event->type == BLE_EVT_PAIRING_NUMERIC_COMPARISON) {
   b8630:	d001      	beq.n	b8636 <_ZN8particle18BleLocalDeviceImpl15onBleLinkEventsEPK18hal_ble_link_evt_tPv+0x172>
   b8632:	2e10      	cmp	r6, #16
   b8634:	d117      	bne.n	b8666 <_ZN8particle18BleLocalDeviceImpl15onBleLinkEventsEPK18hal_ble_link_evt_tPv+0x1a2>
                        BlePairingEventPayload payload = {};
   b8636:	2300      	movs	r3, #0
                            payload.passkey = event->params.passkey_display.passkey;
   b8638:	6869      	ldr	r1, [r5, #4]
                        BlePairingEventPayload payload = {};
   b863a:	461a      	mov	r2, r3
                            payloadLen = BLE_PAIRING_PASSKEY_LEN;
   b863c:	2506      	movs	r5, #6
                        };
   b863e:	f88d 3015 	strb.w	r3, [sp, #21]
   b8642:	9104      	str	r1, [sp, #16]
   b8644:	f88d 2014 	strb.w	r2, [sp, #20]
   b8648:	9006      	str	r0, [sp, #24]
   b864a:	e9dd 0104 	ldrd	r0, r1, [sp, #16]
   b864e:	ab09      	add	r3, sp, #36	; 0x24
                            .type = static_cast<BlePairingEventType>(event->type),
   b8650:	f88d 601c 	strb.w	r6, [sp, #28]
                        };
   b8654:	9508      	str	r5, [sp, #32]
   b8656:	e883 0003 	stmia.w	r3, {r0, r1}
   b865a:	6d23      	ldr	r3, [r4, #80]	; 0x50
   b865c:	a906      	add	r1, sp, #24
   b865e:	f104 0044 	add.w	r0, r4, #68	; 0x44
   b8662:	4798      	blx	r3
   b8664:	e777      	b.n	b8556 <_ZN8particle18BleLocalDeviceImpl15onBleLinkEventsEPK18hal_ble_link_evt_tPv+0x92>
                        } else if (event->type == BLE_EVT_PAIRING_STATUS_UPDATED) {
   b8666:	2e0f      	cmp	r6, #15
                            payload.status.bonded = event->params.pairing_status.bonded;
   b8668:	bf01      	itttt	eq
   b866a:	7a2b      	ldrbeq	r3, [r5, #8]
                            payload.status.status = event->params.pairing_status.status;
   b866c:	6869      	ldreq	r1, [r5, #4]
                            payload.status.bonded = event->params.pairing_status.bonded;
   b866e:	f003 0201 	andeq.w	r2, r3, #1
                            payloadLen = sizeof(BlePairingStatus);
   b8672:	2508      	moveq	r5, #8
                            payload.status.lesc = event->params.pairing_status.lesc;
   b8674:	bf0f      	iteee	eq
   b8676:	f3c3 0340 	ubfxeq	r3, r3, #1, #1
                        BlePairingEventPayload payload = {};
   b867a:	461a      	movne	r2, r3
   b867c:	4619      	movne	r1, r3
                        size_t payloadLen = 0;
   b867e:	461d      	movne	r5, r3
   b8680:	e7dd      	b.n	b863e <_ZN8particle18BleLocalDeviceImpl15onBleLinkEventsEPK18hal_ble_link_evt_tPv+0x17a>
                BlePeerDevice* peer = impl->findPeerDevice(event->conn_handle);
   b8682:	89a9      	ldrh	r1, [r5, #12]
   b8684:	4620      	mov	r0, r4
   b8686:	f7ff fd1a 	bl	b80be <_ZN8particle18BleLocalDeviceImpl14findPeerDeviceEt>
                if (peer && impl->attMtuExchangedCallback_) {
   b868a:	4601      	mov	r1, r0
   b868c:	2800      	cmp	r0, #0
   b868e:	f43f af62 	beq.w	b8556 <_ZN8particle18BleLocalDeviceImpl15onBleLinkEventsEPK18hal_ble_link_evt_tPv+0x92>
   b8692:	6de3      	ldr	r3, [r4, #92]	; 0x5c
   b8694:	2b00      	cmp	r3, #0
   b8696:	f43f af5e 	beq.w	b8556 <_ZN8particle18BleLocalDeviceImpl15onBleLinkEventsEPK18hal_ble_link_evt_tPv+0x92>
                    impl->attMtuExchangedCallback_(*peer, event->params.att_mtu_updated.att_mtu_size);
   b869a:	686b      	ldr	r3, [r5, #4]
   b869c:	9306      	str	r3, [sp, #24]
   b869e:	aa06      	add	r2, sp, #24
   b86a0:	6e23      	ldr	r3, [r4, #96]	; 0x60
   b86a2:	f104 0054 	add.w	r0, r4, #84	; 0x54
   b86a6:	4798      	blx	r3
   b86a8:	e755      	b.n	b8556 <_ZN8particle18BleLocalDeviceImpl15onBleLinkEventsEPK18hal_ble_link_evt_tPv+0x92>
   b86aa:	bf00      	nop
   b86ac:	000bcc64 	.word	0x000bcc64
   b86b0:	000bcbfb 	.word	0x000bcbfb
   b86b4:	000bcc8a 	.word	0x000bcc8a
   b86b8:	000bcca7 	.word	0x000bcca7

000b86bc <_GLOBAL__sub_I__ZN8particle3ble13WiringBleLock6mutex_E>:
    RecursiveMutex() : handle_(nullptr)
   b86bc:	4802      	ldr	r0, [pc, #8]	; (b86c8 <_GLOBAL__sub_I__ZN8particle3ble13WiringBleLock6mutex_E+0xc>)
   b86be:	2300      	movs	r3, #0
   b86c0:	6003      	str	r3, [r0, #0]
        os_mutex_recursive_create(&handle_);
   b86c2:	f7ff b979 	b.w	b79b8 <os_mutex_recursive_create>
   b86c6:	bf00      	nop
   b86c8:	2003e690 	.word	0x2003e690

000b86cc <_ZN10CloudClass10disconnectERK22CloudDisconnectOptions>:

int CloudClass::publishVitals(system_tick_t period_s_) {
    return spark_publish_vitals(period_s_, nullptr);
}

void CloudClass::disconnect(const CloudDisconnectOptions& options) {
   b86cc:	b51f      	push	{r0, r1, r2, r3, r4, lr}
    opts.size = sizeof(opts);
   b86ce:	230c      	movs	r3, #12
   b86d0:	f8ad 3004 	strh.w	r3, [sp, #4]
    opts.flags = flags_;
   b86d4:	6803      	ldr	r3, [r0, #0]
   b86d6:	f88d 3006 	strb.w	r3, [sp, #6]
    opts.graceful = graceful_;
   b86da:	7a03      	ldrb	r3, [r0, #8]
   b86dc:	f88d 3007 	strb.w	r3, [sp, #7]
    opts.timeout = timeout_;
   b86e0:	6843      	ldr	r3, [r0, #4]
   b86e2:	9302      	str	r3, [sp, #8]
    spark_cloud_disconnect_options opts = {};
   b86e4:	2100      	movs	r1, #0
    opts.clear_session = clearSession_;
   b86e6:	7a43      	ldrb	r3, [r0, #9]
    spark_cloud_disconnect_options opts = {};
   b86e8:	f8ad 100d 	strh.w	r1, [sp, #13]
    const auto opts = options.toSystemOptions();
    spark_cloud_disconnect(&opts, nullptr /* reserved */);
   b86ec:	a801      	add	r0, sp, #4
    spark_cloud_disconnect_options opts = {};
   b86ee:	f88d 100f 	strb.w	r1, [sp, #15]
    opts.clear_session = clearSession_;
   b86f2:	f88d 300c 	strb.w	r3, [sp, #12]
    spark_cloud_disconnect(&opts, nullptr /* reserved */);
   b86f6:	f7ff fbb1 	bl	b7e5c <spark_cloud_disconnect>
}
   b86fa:	b005      	add	sp, #20
   b86fc:	f85d fb04 	ldr.w	pc, [sp], #4

000b8700 <_ZN5spark13EthernetClass9listeningEv>:
    uint16_t getListenTimeout(void) {
        return network_get_listen_timeout(*this, 0, NULL);
    }

    bool listening(void) {
        return network_listening(*this, 0, NULL);
   b8700:	2200      	movs	r2, #0
   b8702:	6840      	ldr	r0, [r0, #4]
   b8704:	4611      	mov	r1, r2
   b8706:	f7ff bbe9 	b.w	b7edc <network_listening>

000b870a <_ZN5spark13EthernetClass16getListenTimeoutEv>:
        return network_get_listen_timeout(*this, 0, NULL);
   b870a:	2200      	movs	r2, #0
   b870c:	6840      	ldr	r0, [r0, #4]
   b870e:	4611      	mov	r1, r2
   b8710:	f7ff bbf4 	b.w	b7efc <network_get_listen_timeout>

000b8714 <_ZN5spark13EthernetClass16setListenTimeoutEt>:
        network_set_listen_timeout(*this, timeout, NULL);
   b8714:	6840      	ldr	r0, [r0, #4]
   b8716:	2200      	movs	r2, #0
   b8718:	f7ff bbe8 	b.w	b7eec <network_set_listen_timeout>

000b871c <_ZN5spark13EthernetClass6listenEb>:
        network_listen(*this, begin ? 0 : 1, NULL);
   b871c:	6840      	ldr	r0, [r0, #4]
   b871e:	2200      	movs	r2, #0
   b8720:	f081 0101 	eor.w	r1, r1, #1
   b8724:	f7ff bbd2 	b.w	b7ecc <network_listen>

000b8728 <_ZN5spark13EthernetClass3offEv>:
        network_off(*this, 0, 0, NULL);
   b8728:	2300      	movs	r3, #0
   b872a:	6840      	ldr	r0, [r0, #4]
   b872c:	461a      	mov	r2, r3
   b872e:	4619      	mov	r1, r3
   b8730:	f7ff bbc4 	b.w	b7ebc <network_off>

000b8734 <_ZN5spark13EthernetClass2onEv>:
        network_on(*this, 0, 0, NULL);
   b8734:	2300      	movs	r3, #0
   b8736:	6840      	ldr	r0, [r0, #4]
   b8738:	461a      	mov	r2, r3
   b873a:	4619      	mov	r1, r3
   b873c:	f7ff bbb6 	b.w	b7eac <network_on>

000b8740 <_ZN5spark13EthernetClass5readyEv>:
    }

    bool ready() {
        return network_ready(*this, 0,  NULL);
   b8740:	2200      	movs	r2, #0
   b8742:	6840      	ldr	r0, [r0, #4]
   b8744:	4611      	mov	r1, r2
   b8746:	f7ff bba9 	b.w	b7e9c <network_ready>

000b874a <_ZN5spark13EthernetClass10connectingEv>:
        return network_connecting(*this, 0, NULL);
   b874a:	2200      	movs	r2, #0
   b874c:	6840      	ldr	r0, [r0, #4]
   b874e:	4611      	mov	r1, r2
   b8750:	f7ff bb94 	b.w	b7e7c <network_connecting>

000b8754 <_ZN5spark13EthernetClass10disconnectEv>:
        network_disconnect(*this, NETWORK_DISCONNECT_REASON_USER, NULL);
   b8754:	6840      	ldr	r0, [r0, #4]
   b8756:	2200      	movs	r2, #0
   b8758:	2102      	movs	r1, #2
   b875a:	f7ff bb97 	b.w	b7e8c <network_disconnect>

000b875e <_ZN5spark13EthernetClass7connectEj>:
        network_connect(*this, flags, 0, NULL);
   b875e:	2300      	movs	r3, #0
   b8760:	6840      	ldr	r0, [r0, #4]
   b8762:	461a      	mov	r2, r3
   b8764:	f7ff bb82 	b.w	b7e6c <network_connect>

000b8768 <_GLOBAL__sub_I__ZN5spark8EthernetE>:
    static NetworkClass& from(network_interface_t nif);

    virtual IPAddress resolve(const char* name);

    explicit NetworkClass(network_interface_t iface)
            : iface_(iface) {
   b8768:	4b02      	ldr	r3, [pc, #8]	; (b8774 <_GLOBAL__sub_I__ZN5spark8EthernetE+0xc>)
   b876a:	2203      	movs	r2, #3
   b876c:	605a      	str	r2, [r3, #4]
            NetworkClass(NETWORK_INTERFACE_ETHERNET) {
   b876e:	4a02      	ldr	r2, [pc, #8]	; (b8778 <_GLOBAL__sub_I__ZN5spark8EthernetE+0x10>)
   b8770:	601a      	str	r2, [r3, #0]

namespace spark {

EthernetClass Ethernet;

} // spark
   b8772:	4770      	bx	lr
   b8774:	2003e698 	.word	0x2003e698
   b8778:	000bccf4 	.word	0x000bccf4

000b877c <_ZN7TwoWireD1Ev>:
private:
  hal_i2c_interface_t _i2c;

public:
  TwoWire(hal_i2c_interface_t i2c, const hal_i2c_config_t& config);
  virtual ~TwoWire() {};
   b877c:	4770      	bx	lr

000b877e <_ZN7TwoWire5writeEPKhj>:

// must be called in:
// slave tx event callback
// or after beginTransmission(address)
size_t TwoWire::write(const uint8_t *data, size_t quantity)
{
   b877e:	b5f8      	push	{r3, r4, r5, r6, r7, lr}
   b8780:	4606      	mov	r6, r0
   b8782:	4615      	mov	r5, r2
   b8784:	460c      	mov	r4, r1
   b8786:	188f      	adds	r7, r1, r2
  // in master/slave transmitter mode
  for(size_t i = 0; i < quantity; ++i)
   b8788:	42bc      	cmp	r4, r7
   b878a:	d006      	beq.n	b879a <_ZN7TwoWire5writeEPKhj+0x1c>
  {
    write(data[i]);
   b878c:	6833      	ldr	r3, [r6, #0]
   b878e:	f814 1b01 	ldrb.w	r1, [r4], #1
   b8792:	689b      	ldr	r3, [r3, #8]
   b8794:	4630      	mov	r0, r6
   b8796:	4798      	blx	r3
  for(size_t i = 0; i < quantity; ++i)
   b8798:	e7f6      	b.n	b8788 <_ZN7TwoWire5writeEPKhj+0xa>
  }

  return quantity;
}
   b879a:	4628      	mov	r0, r5
   b879c:	bdf8      	pop	{r3, r4, r5, r6, r7, pc}

000b879e <_ZN7TwoWire5writeEh>:
  return hal_i2c_write(_i2c, data, NULL);
   b879e:	7c00      	ldrb	r0, [r0, #16]
   b87a0:	2200      	movs	r2, #0
   b87a2:	f7ff b999 	b.w	b7ad8 <hal_i2c_write>

000b87a6 <_ZN7TwoWire9availableEv>:
// must be called in:
// slave rx event callback
// or after requestFrom(address, numBytes)
int TwoWire::available(void)
{
  return hal_i2c_available(_i2c, NULL);
   b87a6:	7c00      	ldrb	r0, [r0, #16]
   b87a8:	2100      	movs	r1, #0
   b87aa:	f7ff b99d 	b.w	b7ae8 <hal_i2c_available>

000b87ae <_ZN7TwoWire4readEv>:
// must be called in:
// slave rx event callback
// or after requestFrom(address, numBytes)
int TwoWire::read(void)
{
  return hal_i2c_read(_i2c, NULL);
   b87ae:	7c00      	ldrb	r0, [r0, #16]
   b87b0:	2100      	movs	r1, #0
   b87b2:	f7ff b9a1 	b.w	b7af8 <hal_i2c_read>

000b87b6 <_ZN7TwoWire4peekEv>:
// must be called in:
// slave rx event callback
// or after requestFrom(address, numBytes)
int TwoWire::peek(void)
{
  return hal_i2c_peek(_i2c, NULL);
   b87b6:	7c00      	ldrb	r0, [r0, #16]
   b87b8:	2100      	movs	r1, #0
   b87ba:	f7ff b9a5 	b.w	b7b08 <hal_i2c_peek>

000b87be <_ZN7TwoWire5flushEv>:
}

void TwoWire::flush(void)
{
  hal_i2c_flush(_i2c, NULL);
   b87be:	7c00      	ldrb	r0, [r0, #16]
   b87c0:	2100      	movs	r1, #0
   b87c2:	f7ff b9a9 	b.w	b7b18 <hal_i2c_flush>

000b87c6 <_ZN7TwoWireD0Ev>:
   b87c6:	b510      	push	{r4, lr}
   b87c8:	2114      	movs	r1, #20
   b87ca:	4604      	mov	r4, r0
   b87cc:	f7fb fc67 	bl	b409e <_ZdlPvj>
   b87d0:	4620      	mov	r0, r4
   b87d2:	bd10      	pop	{r4, pc}

000b87d4 <_ZN7TwoWireC1E19hal_i2c_interface_tRK16hal_i2c_config_t>:
TwoWire::TwoWire(hal_i2c_interface_t i2c, const hal_i2c_config_t& conf)
   b87d4:	b510      	push	{r4, lr}
    virtual int available() = 0;
    virtual int read() = 0;
    virtual int peek() = 0;
    virtual void flush() = 0;

    Stream() {_timeout=1000;}
   b87d6:	f44f 737a 	mov.w	r3, #1000	; 0x3e8
   b87da:	4604      	mov	r4, r0
   b87dc:	4608      	mov	r0, r1
   b87de:	2100      	movs	r1, #0
   b87e0:	e9c4 1301 	strd	r1, r3, [r4, #4]
   b87e4:	4b03      	ldr	r3, [pc, #12]	; (b87f4 <_ZN7TwoWireC1E19hal_i2c_interface_tRK16hal_i2c_config_t+0x20>)
   b87e6:	6023      	str	r3, [r4, #0]
  _i2c = i2c;
   b87e8:	7420      	strb	r0, [r4, #16]
  hal_i2c_init(_i2c, &conf);
   b87ea:	4611      	mov	r1, r2
   b87ec:	f7ff f9a4 	bl	b7b38 <hal_i2c_init>
}
   b87f0:	4620      	mov	r0, r4
   b87f2:	bd10      	pop	{r4, pc}
   b87f4:	000bcd30 	.word	0x000bcd30

000b87f8 <_ZN7TwoWire5beginEv>:
	hal_i2c_begin(_i2c, I2C_MODE_MASTER, 0x00, NULL);
   b87f8:	2300      	movs	r3, #0
   b87fa:	7c00      	ldrb	r0, [r0, #16]
   b87fc:	461a      	mov	r2, r3
   b87fe:	4619      	mov	r1, r3
   b8800:	f7ff b952 	b.w	b7aa8 <hal_i2c_begin>

000b8804 <_ZN7TwoWire11requestFromERK16WireTransmission>:
size_t TwoWire::requestFrom(const WireTransmission& transfer) {
   b8804:	b57f      	push	{r0, r1, r2, r3, r4, r5, r6, lr}
    hal_i2c_transmission_config_t conf = {
   b8806:	2200      	movs	r2, #0
   b8808:	2314      	movs	r3, #20
   b880a:	e9cd 2201 	strd	r2, r2, [sp, #4]
   b880e:	f8ad 3004 	strh.w	r3, [sp, #4]
    };
   b8812:	780b      	ldrb	r3, [r1, #0]
   b8814:	f88d 3008 	strb.w	r3, [sp, #8]
   b8818:	684b      	ldr	r3, [r1, #4]
   b881a:	9303      	str	r3, [sp, #12]
   b881c:	68cb      	ldr	r3, [r1, #12]
   b881e:	9304      	str	r3, [sp, #16]
  return hal_i2c_request_ex(_i2c, &conf, nullptr);
   b8820:	7c00      	ldrb	r0, [r0, #16]
      .flags = (uint32_t)(stop_ ? HAL_I2C_TRANSMISSION_FLAG_STOP : 0)
   b8822:	7a0b      	ldrb	r3, [r1, #8]
   b8824:	9305      	str	r3, [sp, #20]
   b8826:	a901      	add	r1, sp, #4
   b8828:	f7ff f98e 	bl	b7b48 <hal_i2c_request_ex>
}
   b882c:	b007      	add	sp, #28
   b882e:	f85d fb04 	ldr.w	pc, [sp], #4

000b8832 <_ZN7TwoWire11requestFromEhjh>:
{
   b8832:	b51f      	push	{r0, r1, r2, r3, r4, lr}
  return requestFrom(WireTransmission(address).quantity(quantity).stop(sendStop));
   b8834:	3b00      	subs	r3, #0
        timeout_{HAL_I2C_DEFAULT_TIMEOUT_MS} {
   b8836:	f88d 1000 	strb.w	r1, [sp]
   b883a:	f04f 0164 	mov.w	r1, #100	; 0x64
   b883e:	9103      	str	r1, [sp, #12]
   b8840:	bf18      	it	ne
   b8842:	2301      	movne	r3, #1
   b8844:	4669      	mov	r1, sp
    size_ = size;
   b8846:	9201      	str	r2, [sp, #4]
   b8848:	f88d 3008 	strb.w	r3, [sp, #8]
   b884c:	f7ff ffda 	bl	b8804 <_ZN7TwoWire11requestFromERK16WireTransmission>
}
   b8850:	b005      	add	sp, #20
   b8852:	f85d fb04 	ldr.w	pc, [sp], #4

000b8856 <_ZN7TwoWire11requestFromEhj>:
  return requestFrom(address, quantity, (uint8_t)true);
   b8856:	2301      	movs	r3, #1
   b8858:	f7ff bfeb 	b.w	b8832 <_ZN7TwoWire11requestFromEhjh>

000b885c <_ZN7TwoWire17beginTransmissionEh>:
	hal_i2c_begin_transmission(_i2c, address, NULL);
   b885c:	7c00      	ldrb	r0, [r0, #16]
   b885e:	2200      	movs	r2, #0
   b8860:	f7ff b92a 	b.w	b7ab8 <hal_i2c_begin_transmission>

000b8864 <_ZN7TwoWire17beginTransmissionEi>:
  beginTransmission((uint8_t)address);
   b8864:	b2c9      	uxtb	r1, r1
   b8866:	f7ff bff9 	b.w	b885c <_ZN7TwoWire17beginTransmissionEh>

000b886a <_ZN7TwoWire15endTransmissionEh>:
	return hal_i2c_end_transmission(_i2c, sendStop, NULL);
   b886a:	7c00      	ldrb	r0, [r0, #16]
   b886c:	2200      	movs	r2, #0
   b886e:	f7ff b92b 	b.w	b7ac8 <hal_i2c_end_transmission>

000b8872 <_ZN7TwoWire15endTransmissionEv>:
  return endTransmission(true);
   b8872:	2101      	movs	r1, #1
   b8874:	f7ff bff9 	b.w	b886a <_ZN7TwoWire15endTransmissionEh>

000b8878 <_Z26call_raw_interrupt_handlerPv>:
}

void call_raw_interrupt_handler(void* data)
{
    raw_interrupt_handler_t handler = raw_interrupt_handler_t(data);
    handler();
   b8878:	4700      	bx	r0
	...

000b887c <_Z15attachInterrupttPFvvE13InterruptModeah>:
    }
    return handler!=NULL;
}

bool attachInterrupt(uint16_t pin, raw_interrupt_handler_t handler, InterruptMode mode, int8_t priority, uint8_t subpriority)
{
   b887c:	e92d 41ff 	stmdb	sp!, {r0, r1, r2, r3, r4, r5, r6, r7, r8, lr}
    HAL_Interrupts_Detach(pin);
    HAL_InterruptExtraConfiguration extra = {};
   b8880:	2400      	movs	r4, #0
{
   b8882:	461d      	mov	r5, r3
   b8884:	460f      	mov	r7, r1
   b8886:	4690      	mov	r8, r2
   b8888:	4606      	mov	r6, r0
    HAL_Interrupts_Detach(pin);
   b888a:	f7ff f8fd 	bl	b7a88 <HAL_Interrupts_Detach>
  if (priority >= 0) {
   b888e:	42a5      	cmp	r5, r4
  extra.version = HAL_INTERRUPT_EXTRA_CONFIGURATION_VERSION_1;
   b8890:	f04f 0304 	mov.w	r3, #4
    HAL_InterruptExtraConfiguration extra = {};
   b8894:	f8ad 400d 	strh.w	r4, [sp, #13]
  extra.version = HAL_INTERRUPT_EXTRA_CONFIGURATION_VERSION_1;
   b8898:	f88d 300c 	strb.w	r3, [sp, #12]
    HAL_InterruptExtraConfiguration extra = {};
   b889c:	f88d 400f 	strb.w	r4, [sp, #15]
    extra.IRQChannelSubPriority = subpriority;
   b88a0:	bfa2      	ittt	ge
   b88a2:	f89d 3028 	ldrbge.w	r3, [sp, #40]	; 0x28
   b88a6:	f88d 300e 	strbge.w	r3, [sp, #14]
    return &extra;
   b88aa:	ac03      	addge	r4, sp, #12
    if (SYSTEM_ERROR_NONE != HAL_Interrupts_Attach(pin, call_raw_interrupt_handler, (void*)handler, mode, configure_interrupt(extra, priority, subpriority))) {
   b88ac:	4907      	ldr	r1, [pc, #28]	; (b88cc <_Z15attachInterrupttPFvvE13InterruptModeah+0x50>)
   b88ae:	9400      	str	r4, [sp, #0]
   b88b0:	4643      	mov	r3, r8
   b88b2:	463a      	mov	r2, r7
   b88b4:	4630      	mov	r0, r6
    extra.IRQChannelPreemptionPriority = (uint8_t)priority;
   b88b6:	bfa8      	it	ge
   b88b8:	f88d 500d 	strbge.w	r5, [sp, #13]
    if (SYSTEM_ERROR_NONE != HAL_Interrupts_Attach(pin, call_raw_interrupt_handler, (void*)handler, mode, configure_interrupt(extra, priority, subpriority))) {
   b88bc:	f7ff f8dc 	bl	b7a78 <HAL_Interrupts_Attach>
        return false;
    }
    return true;
}
   b88c0:	fab0 f080 	clz	r0, r0
   b88c4:	0940      	lsrs	r0, r0, #5
   b88c6:	b004      	add	sp, #16
   b88c8:	e8bd 81f0 	ldmia.w	sp!, {r4, r5, r6, r7, r8, pc}
   b88cc:	000b8879 	.word	0x000b8879

000b88d0 <_ZN9IPAddressD1Ev>:
    IPAddress(uint32_t address);
    // 4 bytes defining the IP address in network order
    IPAddress(const uint8_t* address);
    IPAddress(const HAL_IPAddress& address);

    virtual ~IPAddress() {}
   b88d0:	4770      	bx	lr

000b88d2 <_ZN9IPAddressD0Ev>:
   b88d2:	b510      	push	{r4, lr}
   b88d4:	2118      	movs	r1, #24
   b88d6:	4604      	mov	r4, r0
   b88d8:	f7fb fbe1 	bl	b409e <_ZdlPvj>
   b88dc:	4620      	mov	r0, r4
   b88de:	bd10      	pop	{r4, pc}

000b88e0 <_ZNK9IPAddress7printToER5Print>:
#endif // Wiring_IPv6
	return address.ipv4==that.address.ipv4;
}

size_t IPAddress::printTo(Print& p) const
{
   b88e0:	b5f0      	push	{r4, r5, r6, r7, lr}
#if Wiring_IPv6
#if HAL_USE_INET_HAL_POSIX
	if (address.v==6) {
   b88e2:	7d03      	ldrb	r3, [r0, #20]
   b88e4:	2b06      	cmp	r3, #6
{
   b88e6:	b08d      	sub	sp, #52	; 0x34
   b88e8:	460e      	mov	r6, r1
		char buf[INET6_ADDRSTRLEN+1];
		buf[0] = 0;
		inet_inet_ntop(AF_INET6, address.ipv6, buf, sizeof(buf));
   b88ea:	f100 0704 	add.w	r7, r0, #4
   b88ee:	f04f 0400 	mov.w	r4, #0
	if (address.v==6) {
   b88f2:	d012      	beq.n	b891a <_ZNK9IPAddress7printToER5Print+0x3a>
   b88f4:	f100 0508 	add.w	r5, r0, #8
            val = n;
        }
#if __GNUC__ >= 9
#pragma GCC diagnostic pop
#endif // __GNUC__ >= 9
        return printNumber(val, base) + t;
   b88f8:	f815 1d01 	ldrb.w	r1, [r5, #-1]!
   b88fc:	220a      	movs	r2, #10
   b88fe:	4630      	mov	r0, r6
   b8900:	f001 fa91 	bl	b9e26 <_ZN5Print11printNumberEmh>
#else
#pragma message "HAL_USE_INET_HAL_POSIX is required for IPv6 support in IPAddress::printTo()"
#endif // HAL_USE_INET_HAL_POSIX
#endif // Wiring_IPv6
    size_t n = 0;
    for (int i = 0; i < 4; i++)
   b8904:	42af      	cmp	r7, r5
    {
        if (n)
            n += p.print('.');
        n += p.print((*this)[i], DEC);
   b8906:	4404      	add	r4, r0
    for (int i = 0; i < 4; i++)
   b8908:	d019      	beq.n	b893e <_ZNK9IPAddress7printToER5Print+0x5e>
        if (n)
   b890a:	2c00      	cmp	r4, #0
   b890c:	d0f4      	beq.n	b88f8 <_ZNK9IPAddress7printToER5Print+0x18>
            n += p.print('.');
   b890e:	212e      	movs	r1, #46	; 0x2e
   b8910:	4630      	mov	r0, r6
   b8912:	f001 fa6d 	bl	b9df0 <_ZN5Print5printEc>
   b8916:	4404      	add	r4, r0
   b8918:	e7ee      	b.n	b88f8 <_ZNK9IPAddress7printToER5Print+0x18>
		inet_inet_ntop(AF_INET6, address.ipv6, buf, sizeof(buf));
   b891a:	232f      	movs	r3, #47	; 0x2f
   b891c:	466a      	mov	r2, sp
   b891e:	4639      	mov	r1, r7
   b8920:	200a      	movs	r0, #10
		buf[0] = 0;
   b8922:	f88d 4000 	strb.w	r4, [sp]
		inet_inet_ntop(AF_INET6, address.ipv6, buf, sizeof(buf));
   b8926:	f7ff f917 	bl	b7b58 <inet_inet_ntop>
      return write((const uint8_t *)str, strlen(str));
   b892a:	4668      	mov	r0, sp
   b892c:	f003 fe23 	bl	bc576 <strlen>
   b8930:	6833      	ldr	r3, [r6, #0]
   b8932:	4602      	mov	r2, r0
   b8934:	68db      	ldr	r3, [r3, #12]
   b8936:	4669      	mov	r1, sp
   b8938:	4630      	mov	r0, r6
   b893a:	4798      	blx	r3
   b893c:	4604      	mov	r4, r0
    }
    return n;
}
   b893e:	4620      	mov	r0, r4
   b8940:	b00d      	add	sp, #52	; 0x34
   b8942:	bdf0      	pop	{r4, r5, r6, r7, pc}

000b8944 <_ZN9IPAddressC1Ev>:
IPAddress::IPAddress()
   b8944:	b510      	push	{r4, lr}
   b8946:	4b05      	ldr	r3, [pc, #20]	; (b895c <_ZN9IPAddressC1Ev+0x18>)
   b8948:	4604      	mov	r4, r0
        return address;
    }

    virtual size_t printTo(Print& p) const;

    void clear() { memset(&address, 0, sizeof (address)); }
   b894a:	2211      	movs	r2, #17
   b894c:	f840 3b04 	str.w	r3, [r0], #4
   b8950:	2100      	movs	r1, #0
   b8952:	f003 fd73 	bl	bc43c <memset>
}
   b8956:	4620      	mov	r0, r4
   b8958:	bd10      	pop	{r4, pc}
   b895a:	bf00      	nop
   b895c:	000bcd58 	.word	0x000bcd58

000b8960 <_ZN9IPAddressC1ERK16_HAL_IPAddress_t>:
IPAddress::IPAddress(const HAL_IPAddress& address)
   b8960:	4603      	mov	r3, r0
   b8962:	4a07      	ldr	r2, [pc, #28]	; (b8980 <_ZN9IPAddressC1ERK16_HAL_IPAddress_t+0x20>)
   b8964:	b510      	push	{r4, lr}
   b8966:	f843 2b04 	str.w	r2, [r3], #4
    memcpy(&this->address, &address, sizeof(address));
   b896a:	f101 0210 	add.w	r2, r1, #16
   b896e:	f851 4b04 	ldr.w	r4, [r1], #4
   b8972:	f843 4b04 	str.w	r4, [r3], #4
   b8976:	4291      	cmp	r1, r2
   b8978:	d1f9      	bne.n	b896e <_ZN9IPAddressC1ERK16_HAL_IPAddress_t+0xe>
   b897a:	780a      	ldrb	r2, [r1, #0]
   b897c:	701a      	strb	r2, [r3, #0]
}
   b897e:	bd10      	pop	{r4, pc}
   b8980:	000bcd58 	.word	0x000bcd58

000b8984 <_ZN9IPAddress8set_ipv4Ehhhh>:
{
   b8984:	b510      	push	{r4, lr}
    address.ipv4 = b0<<24 | b1 << 16 | b2 << 8 | b3;
   b8986:	f89d 4008 	ldrb.w	r4, [sp, #8]
   b898a:	ea44 2303 	orr.w	r3, r4, r3, lsl #8
   b898e:	ea43 4202 	orr.w	r2, r3, r2, lsl #16
   b8992:	ea42 6101 	orr.w	r1, r2, r1, lsl #24
        address.v = version;
   b8996:	2304      	movs	r3, #4
   b8998:	6041      	str	r1, [r0, #4]
   b899a:	7503      	strb	r3, [r0, #20]
}
   b899c:	bd10      	pop	{r4, pc}
	...

000b89a0 <_ZN9IPAddressC1EPKh>:
IPAddress::IPAddress(const uint8_t* addr)
   b89a0:	b507      	push	{r0, r1, r2, lr}
   b89a2:	4b06      	ldr	r3, [pc, #24]	; (b89bc <_ZN9IPAddressC1EPKh+0x1c>)
   b89a4:	6003      	str	r3, [r0, #0]
    set_ipv4(addr[0], addr[1], addr[2], addr[3]);
   b89a6:	78cb      	ldrb	r3, [r1, #3]
   b89a8:	9300      	str	r3, [sp, #0]
   b89aa:	788b      	ldrb	r3, [r1, #2]
   b89ac:	784a      	ldrb	r2, [r1, #1]
   b89ae:	7809      	ldrb	r1, [r1, #0]
   b89b0:	f7ff ffe8 	bl	b8984 <_ZN9IPAddress8set_ipv4Ehhhh>
}
   b89b4:	b003      	add	sp, #12
   b89b6:	f85d fb04 	ldr.w	pc, [sp], #4
   b89ba:	bf00      	nop
   b89bc:	000bcd58 	.word	0x000bcd58

000b89c0 <_ZN12_GLOBAL__N_19skipTokenEPK9jsmntok_t>:

namespace {

// Skips token and all its children tokens if any
const jsmntok_t* skipToken(const jsmntok_t *t) {
    size_t n = 1;
   b89c0:	f100 0310 	add.w	r3, r0, #16
   b89c4:	2201      	movs	r2, #1
    do {
        if (t->type == JSMN_OBJECT) {
   b89c6:	f813 1c10 	ldrb.w	r1, [r3, #-16]
   b89ca:	2901      	cmp	r1, #1
   b89cc:	4618      	mov	r0, r3
   b89ce:	d108      	bne.n	b89e2 <_ZN12_GLOBAL__N_19skipTokenEPK9jsmntok_t+0x22>
            n += t->size * 2; // Number of name and value tokens
   b89d0:	f853 1c04 	ldr.w	r1, [r3, #-4]
   b89d4:	eb02 0241 	add.w	r2, r2, r1, lsl #1
        } else if (t->type == JSMN_ARRAY) {
            n += t->size; // Number of value tokens
        }
        ++t;
        --n;
    } while (n);
   b89d8:	3a01      	subs	r2, #1
   b89da:	f103 0310 	add.w	r3, r3, #16
   b89de:	d1f2      	bne.n	b89c6 <_ZN12_GLOBAL__N_19skipTokenEPK9jsmntok_t+0x6>
    return t;
}
   b89e0:	4770      	bx	lr
        } else if (t->type == JSMN_ARRAY) {
   b89e2:	2902      	cmp	r1, #2
            n += t->size; // Number of value tokens
   b89e4:	bf04      	itt	eq
   b89e6:	f853 1c04 	ldreq.w	r1, [r3, #-4]
   b89ea:	1852      	addeq	r2, r2, r1
   b89ec:	e7f4      	b.n	b89d8 <_ZN12_GLOBAL__N_19skipTokenEPK9jsmntok_t+0x18>

000b89ee <_ZN5spark10JSONWriter6printfEPKcz>:
    write("null", 4);
    state_ = NEXT;
    return *this;
}

void spark::JSONWriter::printf(const char *fmt, ...) {
   b89ee:	b40e      	push	{r1, r2, r3}
   b89f0:	b5f0      	push	{r4, r5, r6, r7, lr}
   b89f2:	b088      	sub	sp, #32
   b89f4:	af00      	add	r7, sp, #0
   b89f6:	f107 0534 	add.w	r5, r7, #52	; 0x34
    char buf[16];
    va_list args;
    va_start(args, fmt);
    int n = vsnprintf(buf, sizeof(buf), fmt, args);
   b89fa:	2110      	movs	r1, #16
void spark::JSONWriter::printf(const char *fmt, ...) {
   b89fc:	f855 2b04 	ldr.w	r2, [r5], #4
    int n = vsnprintf(buf, sizeof(buf), fmt, args);
   b8a00:	607a      	str	r2, [r7, #4]
void spark::JSONWriter::printf(const char *fmt, ...) {
   b8a02:	4604      	mov	r4, r0
    int n = vsnprintf(buf, sizeof(buf), fmt, args);
   b8a04:	462b      	mov	r3, r5
   b8a06:	1878      	adds	r0, r7, r1
    va_start(args, fmt);
   b8a08:	60fd      	str	r5, [r7, #12]
    int n = vsnprintf(buf, sizeof(buf), fmt, args);
   b8a0a:	f7ff faaf 	bl	b7f6c <vsnprintf>
    va_end(args);
    if ((size_t)n >= sizeof(buf)) {
   b8a0e:	280f      	cmp	r0, #15
   b8a10:	687a      	ldr	r2, [r7, #4]
   b8a12:	d91a      	bls.n	b8a4a <_ZN5spark10JSONWriter6printfEPKcz+0x5c>
        char buf[n + 1]; // Use larger buffer
   b8a14:	f100 0308 	add.w	r3, r0, #8
   b8a18:	f023 0307 	bic.w	r3, r3, #7
        va_start(args, fmt);
        n = vsnprintf(buf, sizeof(buf), fmt, args);
        va_end(args);
        if (n > 0) {
            write(buf, n);
        }
   b8a1c:	466e      	mov	r6, sp
        char buf[n + 1]; // Use larger buffer
   b8a1e:	ebad 0d03 	sub.w	sp, sp, r3
        n = vsnprintf(buf, sizeof(buf), fmt, args);
   b8a22:	1c41      	adds	r1, r0, #1
   b8a24:	462b      	mov	r3, r5
   b8a26:	4668      	mov	r0, sp
        va_start(args, fmt);
   b8a28:	60fd      	str	r5, [r7, #12]
        n = vsnprintf(buf, sizeof(buf), fmt, args);
   b8a2a:	f7ff fa9f 	bl	b7f6c <vsnprintf>
        if (n > 0) {
   b8a2e:	1e02      	subs	r2, r0, #0
   b8a30:	dd04      	ble.n	b8a3c <_ZN5spark10JSONWriter6printfEPKcz+0x4e>
            write(buf, n);
   b8a32:	6823      	ldr	r3, [r4, #0]
   b8a34:	4669      	mov	r1, sp
   b8a36:	689b      	ldr	r3, [r3, #8]
   b8a38:	4620      	mov	r0, r4
   b8a3a:	4798      	blx	r3
   b8a3c:	46b5      	mov	sp, r6
    } else if (n > 0) {
        write(buf, n);
    }
}
   b8a3e:	3720      	adds	r7, #32
   b8a40:	46bd      	mov	sp, r7
   b8a42:	e8bd 40f0 	ldmia.w	sp!, {r4, r5, r6, r7, lr}
   b8a46:	b003      	add	sp, #12
   b8a48:	4770      	bx	lr
    } else if (n > 0) {
   b8a4a:	2800      	cmp	r0, #0
   b8a4c:	d0f7      	beq.n	b8a3e <_ZN5spark10JSONWriter6printfEPKcz+0x50>
        write(buf, n);
   b8a4e:	6823      	ldr	r3, [r4, #0]
   b8a50:	4602      	mov	r2, r0
   b8a52:	689b      	ldr	r3, [r3, #8]
   b8a54:	f107 0110 	add.w	r1, r7, #16
   b8a58:	4620      	mov	r0, r4
   b8a5a:	4798      	blx	r3
}
   b8a5c:	e7ef      	b.n	b8a3e <_ZN5spark10JSONWriter6printfEPKcz+0x50>

000b8a5e <_ZNSt12__shared_ptrIN5spark6detail8JSONDataELN9__gnu_cxx12_Lock_policyE0EEaSERKS5_.isra.0>:
      __shared_ptr& operator=(const __shared_ptr&) noexcept = default;
   b8a5e:	b538      	push	{r3, r4, r5, lr}
   b8a60:	680b      	ldr	r3, [r1, #0]
   b8a62:	6003      	str	r3, [r0, #0]
   b8a64:	684d      	ldr	r5, [r1, #4]
	if (__tmp != _M_pi)
   b8a66:	6843      	ldr	r3, [r0, #4]
   b8a68:	429d      	cmp	r5, r3
      __shared_ptr& operator=(const __shared_ptr&) noexcept = default;
   b8a6a:	4604      	mov	r4, r0
	if (__tmp != _M_pi)
   b8a6c:	d008      	beq.n	b8a80 <_ZNSt12__shared_ptrIN5spark6detail8JSONDataELN9__gnu_cxx12_Lock_policyE0EEaSERKS5_.isra.0+0x22>
	    if (__tmp != 0)
   b8a6e:	b115      	cbz	r5, b8a76 <_ZNSt12__shared_ptrIN5spark6detail8JSONDataELN9__gnu_cxx12_Lock_policyE0EEaSERKS5_.isra.0+0x18>
    { ++_M_use_count; }
   b8a70:	686b      	ldr	r3, [r5, #4]
   b8a72:	3301      	adds	r3, #1
   b8a74:	606b      	str	r3, [r5, #4]
	    if (_M_pi != 0)
   b8a76:	6860      	ldr	r0, [r4, #4]
   b8a78:	b108      	cbz	r0, b8a7e <_ZNSt12__shared_ptrIN5spark6detail8JSONDataELN9__gnu_cxx12_Lock_policyE0EEaSERKS5_.isra.0+0x20>
	      _M_pi->_M_release();
   b8a7a:	f7ff fac6 	bl	b800a <_ZNSt16_Sp_counted_baseILN9__gnu_cxx12_Lock_policyE0EE10_M_releaseEv>
	    _M_pi = __tmp;
   b8a7e:	6065      	str	r5, [r4, #4]
      __shared_ptr& operator=(const __shared_ptr&) noexcept = default;
   b8a80:	bd38      	pop	{r3, r4, r5, pc}

000b8a82 <_ZN5spark10JSONWriter5writeEc>:

inline spark::JSONWriter& spark::JSONWriter::value(const String &val) {
    return value(val.c_str(), val.length());
}

inline void spark::JSONWriter::write(char c) {
   b8a82:	b507      	push	{r0, r1, r2, lr}
    write(&c, 1);
   b8a84:	6803      	ldr	r3, [r0, #0]
inline void spark::JSONWriter::write(char c) {
   b8a86:	f88d 1007 	strb.w	r1, [sp, #7]
    write(&c, 1);
   b8a8a:	689b      	ldr	r3, [r3, #8]
   b8a8c:	2201      	movs	r2, #1
   b8a8e:	f10d 0107 	add.w	r1, sp, #7
   b8a92:	4798      	blx	r3
}
   b8a94:	b003      	add	sp, #12
   b8a96:	f85d fb04 	ldr.w	pc, [sp], #4

000b8a9a <_ZN5spark9JSONValueC1EPK9jsmntok_tSt10shared_ptrINS_6detail8JSONDataEE>:
spark::JSONValue::JSONValue(const jsmntok_t *t, detail::JSONDataPtr d) :
   b8a9a:	460b      	mov	r3, r1
   b8a9c:	4611      	mov	r1, r2
      : _M_ptr(0), _M_refcount()
   b8a9e:	2200      	movs	r2, #0
   b8aa0:	b510      	push	{r4, lr}
      constexpr __shared_count() noexcept : _M_pi(0)
   b8aa2:	e9c0 2200 	strd	r2, r2, [r0]
   b8aa6:	4604      	mov	r4, r0
        t_ = t;
   b8aa8:	6083      	str	r3, [r0, #8]
    if (t) {
   b8aaa:	b90b      	cbnz	r3, b8ab0 <_ZN5spark9JSONValueC1EPK9jsmntok_tSt10shared_ptrINS_6detail8JSONDataEE+0x16>
}
   b8aac:	4620      	mov	r0, r4
   b8aae:	bd10      	pop	{r4, pc}
       *  @brief  Construct an empty %shared_ptr.
       *  @post   use_count() == 0 && get() == nullptr
       */
      constexpr shared_ptr(nullptr_t) noexcept : shared_ptr() { }

      shared_ptr& operator=(const shared_ptr&) noexcept = default;
   b8ab0:	f7ff ffd5 	bl	b8a5e <_ZNSt12__shared_ptrIN5spark6detail8JSONDataELN9__gnu_cxx12_Lock_policyE0EEaSERKS5_.isra.0>
   b8ab4:	e7fa      	b.n	b8aac <_ZN5spark9JSONValueC1EPK9jsmntok_tSt10shared_ptrINS_6detail8JSONDataEE+0x12>

000b8ab6 <_ZNK5spark9JSONValue4typeEv>:
    if (!t_) {
   b8ab6:	6883      	ldr	r3, [r0, #8]
   b8ab8:	b1eb      	cbz	r3, b8af6 <_ZNK5spark9JSONValue4typeEv+0x40>
    switch (t_->type) {
   b8aba:	781a      	ldrb	r2, [r3, #0]
   b8abc:	2a03      	cmp	r2, #3
   b8abe:	d81a      	bhi.n	b8af6 <_ZNK5spark9JSONValue4typeEv+0x40>
   b8ac0:	e8df f002 	tbb	[pc, r2]
   b8ac4:	1b021704 	.word	0x1b021704
   b8ac8:	2005      	movs	r0, #5
   b8aca:	4770      	bx	lr
        const char c = d_->json[t_->start];
   b8acc:	6802      	ldr	r2, [r0, #0]
   b8ace:	685b      	ldr	r3, [r3, #4]
   b8ad0:	6852      	ldr	r2, [r2, #4]
   b8ad2:	5cd0      	ldrb	r0, [r2, r3]
        if (c == '-' || (c >= '0' && c <= '9')) {
   b8ad4:	282d      	cmp	r0, #45	; 0x2d
   b8ad6:	d012      	beq.n	b8afe <_ZNK5spark9JSONValue4typeEv+0x48>
   b8ad8:	f1a0 0330 	sub.w	r3, r0, #48	; 0x30
   b8adc:	2b09      	cmp	r3, #9
   b8ade:	d90e      	bls.n	b8afe <_ZNK5spark9JSONValue4typeEv+0x48>
        } else if (c == 't' || c == 'f') { // Literal names are always in lower case
   b8ae0:	2874      	cmp	r0, #116	; 0x74
   b8ae2:	d00e      	beq.n	b8b02 <_ZNK5spark9JSONValue4typeEv+0x4c>
   b8ae4:	2866      	cmp	r0, #102	; 0x66
   b8ae6:	d00c      	beq.n	b8b02 <_ZNK5spark9JSONValue4typeEv+0x4c>
        return JSON_TYPE_INVALID;
   b8ae8:	f1a0 036e 	sub.w	r3, r0, #110	; 0x6e
   b8aec:	4258      	negs	r0, r3
   b8aee:	4158      	adcs	r0, r3
   b8af0:	4770      	bx	lr
        return JSON_TYPE_OBJECT;
   b8af2:	2006      	movs	r0, #6
   b8af4:	4770      	bx	lr
        return JSON_TYPE_INVALID;
   b8af6:	2000      	movs	r0, #0
   b8af8:	4770      	bx	lr
        return JSON_TYPE_STRING;
   b8afa:	2004      	movs	r0, #4
   b8afc:	4770      	bx	lr
            return JSON_TYPE_NUMBER;
   b8afe:	2003      	movs	r0, #3
   b8b00:	4770      	bx	lr
            return JSON_TYPE_BOOL;
   b8b02:	2002      	movs	r0, #2
}
   b8b04:	4770      	bx	lr

000b8b06 <_ZNK5spark9JSONValue5toIntEv>:
int spark::JSONValue::toInt() const {
   b8b06:	b510      	push	{r4, lr}
   b8b08:	4604      	mov	r4, r0
    switch (type()) {
   b8b0a:	f7ff ffd4 	bl	b8ab6 <_ZNK5spark9JSONValue4typeEv>
   b8b0e:	2802      	cmp	r0, #2
   b8b10:	d00e      	beq.n	b8b30 <_ZNK5spark9JSONValue5toIntEv+0x2a>
   b8b12:	1ec3      	subs	r3, r0, #3
   b8b14:	b2db      	uxtb	r3, r3
   b8b16:	2b01      	cmp	r3, #1
   b8b18:	d814      	bhi.n	b8b44 <_ZNK5spark9JSONValue5toIntEv+0x3e>
        const char* const s = d_->json + t_->start;
   b8b1a:	6822      	ldr	r2, [r4, #0]
   b8b1c:	68a3      	ldr	r3, [r4, #8]
   b8b1e:	6850      	ldr	r0, [r2, #4]
   b8b20:	685b      	ldr	r3, [r3, #4]
}
   b8b22:	e8bd 4010 	ldmia.w	sp!, {r4, lr}
        return strtol(s, nullptr, 10);
   b8b26:	220a      	movs	r2, #10
   b8b28:	2100      	movs	r1, #0
   b8b2a:	4418      	add	r0, r3
   b8b2c:	f003 bde8 	b.w	bc700 <strtol>
        const char* const s = d_->json + t_->start;
   b8b30:	6822      	ldr	r2, [r4, #0]
   b8b32:	68a3      	ldr	r3, [r4, #8]
        return *s == 't';
   b8b34:	6852      	ldr	r2, [r2, #4]
   b8b36:	685b      	ldr	r3, [r3, #4]
   b8b38:	5cd0      	ldrb	r0, [r2, r3]
   b8b3a:	f1a0 0374 	sub.w	r3, r0, #116	; 0x74
   b8b3e:	4258      	negs	r0, r3
   b8b40:	4158      	adcs	r0, r3
}
   b8b42:	bd10      	pop	{r4, pc}
    switch (type()) {
   b8b44:	2000      	movs	r0, #0
   b8b46:	e7fc      	b.n	b8b42 <_ZNK5spark9JSONValue5toIntEv+0x3c>

000b8b48 <_ZN5spark10JSONStringC1EPK9jsmntok_tSt10shared_ptrINS_6detail8JSONDataEE>:
spark::JSONString::JSONString(const jsmntok_t *t, detail::JSONDataPtr d) :
   b8b48:	b538      	push	{r3, r4, r5, lr}
      : _M_ptr(0), _M_refcount()
   b8b4a:	2300      	movs	r3, #0
      constexpr __shared_count() noexcept : _M_pi(0)
   b8b4c:	e9c0 3300 	strd	r3, r3, [r0]
   b8b50:	4604      	mov	r4, r0
        n_(0) {
   b8b52:	480e      	ldr	r0, [pc, #56]	; (b8b8c <_ZN5spark10JSONStringC1EPK9jsmntok_tSt10shared_ptrINS_6detail8JSONDataEE+0x44>)
   b8b54:	e9c4 0302 	strd	r0, r3, [r4, #8]
    if (t && (t->type == JSMN_STRING || t->type == JSMN_PRIMITIVE)) {
   b8b58:	b1a9      	cbz	r1, b8b86 <_ZN5spark10JSONStringC1EPK9jsmntok_tSt10shared_ptrINS_6detail8JSONDataEE+0x3e>
   b8b5a:	780b      	ldrb	r3, [r1, #0]
   b8b5c:	2b03      	cmp	r3, #3
   b8b5e:	d006      	beq.n	b8b6e <_ZN5spark10JSONStringC1EPK9jsmntok_tSt10shared_ptrINS_6detail8JSONDataEE+0x26>
   b8b60:	b98b      	cbnz	r3, b8b86 <_ZN5spark10JSONStringC1EPK9jsmntok_tSt10shared_ptrINS_6detail8JSONDataEE+0x3e>
        if (t->type != JSMN_PRIMITIVE || d->json[t->start] != 'n') { // Nulls are treated as empty strings
   b8b62:	6813      	ldr	r3, [r2, #0]
   b8b64:	6858      	ldr	r0, [r3, #4]
   b8b66:	684b      	ldr	r3, [r1, #4]
   b8b68:	5cc3      	ldrb	r3, [r0, r3]
   b8b6a:	2b6e      	cmp	r3, #110	; 0x6e
   b8b6c:	d007      	beq.n	b8b7e <_ZN5spark10JSONStringC1EPK9jsmntok_tSt10shared_ptrINS_6detail8JSONDataEE+0x36>
            s_ = d->json + t->start;
   b8b6e:	6813      	ldr	r3, [r2, #0]
   b8b70:	684d      	ldr	r5, [r1, #4]
   b8b72:	6858      	ldr	r0, [r3, #4]
            n_ = t->end - t->start;
   b8b74:	688b      	ldr	r3, [r1, #8]
            s_ = d->json + t->start;
   b8b76:	4428      	add	r0, r5
            n_ = t->end - t->start;
   b8b78:	1b5b      	subs	r3, r3, r5
            s_ = d->json + t->start;
   b8b7a:	60a0      	str	r0, [r4, #8]
            n_ = t->end - t->start;
   b8b7c:	60e3      	str	r3, [r4, #12]
   b8b7e:	4611      	mov	r1, r2
   b8b80:	4620      	mov	r0, r4
   b8b82:	f7ff ff6c 	bl	b8a5e <_ZNSt12__shared_ptrIN5spark6detail8JSONDataELN9__gnu_cxx12_Lock_policyE0EEaSERKS5_.isra.0>
}
   b8b86:	4620      	mov	r0, r4
   b8b88:	bd38      	pop	{r3, r4, r5, pc}
   b8b8a:	bf00      	nop
   b8b8c:	000bca2a 	.word	0x000bca2a

000b8b90 <_ZN5spark18JSONObjectIteratorC1EPK9jsmntok_tSt10shared_ptrINS_6detail8JSONDataEE>:
spark::JSONObjectIterator::JSONObjectIterator(const jsmntok_t *t, detail::JSONDataPtr d) :
   b8b90:	b538      	push	{r3, r4, r5, lr}
      : _M_ptr(0), _M_refcount()
   b8b92:	2500      	movs	r5, #0
   b8b94:	460b      	mov	r3, r1
      constexpr __shared_count() noexcept : _M_pi(0)
   b8b96:	e9c0 5500 	strd	r5, r5, [r0]
        n_(0) {
   b8b9a:	e9c0 5502 	strd	r5, r5, [r0, #8]
   b8b9e:	e9c0 5504 	strd	r5, r5, [r0, #16]
   b8ba2:	4604      	mov	r4, r0
   b8ba4:	4611      	mov	r1, r2
    if (t && t->type == JSMN_OBJECT) {
   b8ba6:	b14b      	cbz	r3, b8bbc <_ZN5spark18JSONObjectIteratorC1EPK9jsmntok_tSt10shared_ptrINS_6detail8JSONDataEE+0x2c>
   b8ba8:	781a      	ldrb	r2, [r3, #0]
   b8baa:	2a01      	cmp	r2, #1
   b8bac:	d106      	bne.n	b8bbc <_ZN5spark18JSONObjectIteratorC1EPK9jsmntok_tSt10shared_ptrINS_6detail8JSONDataEE+0x2c>
        t_ = t + 1; // First property's name
   b8bae:	f103 0210 	add.w	r2, r3, #16
        n_ = t->size; // Number of properties
   b8bb2:	68db      	ldr	r3, [r3, #12]
        t_ = t + 1; // First property's name
   b8bb4:	6082      	str	r2, [r0, #8]
        n_ = t->size; // Number of properties
   b8bb6:	6143      	str	r3, [r0, #20]
   b8bb8:	f7ff ff51 	bl	b8a5e <_ZNSt12__shared_ptrIN5spark6detail8JSONDataELN9__gnu_cxx12_Lock_policyE0EEaSERKS5_.isra.0>
}
   b8bbc:	4620      	mov	r0, r4
   b8bbe:	bd38      	pop	{r3, r4, r5, pc}

000b8bc0 <_ZN5spark18JSONObjectIterator4nextEv>:
bool spark::JSONObjectIterator::next() {
   b8bc0:	b510      	push	{r4, lr}
    if (!n_) {
   b8bc2:	6943      	ldr	r3, [r0, #20]
bool spark::JSONObjectIterator::next() {
   b8bc4:	4604      	mov	r4, r0
    if (!n_) {
   b8bc6:	b163      	cbz	r3, b8be2 <_ZN5spark18JSONObjectIterator4nextEv+0x22>
    k_ = t_; // Name
   b8bc8:	6880      	ldr	r0, [r0, #8]
   b8bca:	60e0      	str	r0, [r4, #12]
    --n_;
   b8bcc:	3b01      	subs	r3, #1
    ++t_;
   b8bce:	3010      	adds	r0, #16
   b8bd0:	60a0      	str	r0, [r4, #8]
    v_ = t_; // Value
   b8bd2:	6120      	str	r0, [r4, #16]
    --n_;
   b8bd4:	6163      	str	r3, [r4, #20]
    if (n_) {
   b8bd6:	b113      	cbz	r3, b8bde <_ZN5spark18JSONObjectIterator4nextEv+0x1e>
        t_ = skipToken(t_);
   b8bd8:	f7ff fef2 	bl	b89c0 <_ZN12_GLOBAL__N_19skipTokenEPK9jsmntok_t>
   b8bdc:	60a0      	str	r0, [r4, #8]
    return true;
   b8bde:	2001      	movs	r0, #1
   b8be0:	e000      	b.n	b8be4 <_ZN5spark18JSONObjectIterator4nextEv+0x24>
        return false;
   b8be2:	4618      	mov	r0, r3
}
   b8be4:	bd10      	pop	{r4, pc}

000b8be6 <_ZN5spark10JSONWriter9endObjectEv>:
spark::JSONWriter& spark::JSONWriter::endObject() {
   b8be6:	b510      	push	{r4, lr}
    write('}');
   b8be8:	217d      	movs	r1, #125	; 0x7d
spark::JSONWriter& spark::JSONWriter::endObject() {
   b8bea:	4604      	mov	r4, r0
    write('}');
   b8bec:	f7ff ff49 	bl	b8a82 <_ZN5spark10JSONWriter5writeEc>
    state_ = NEXT;
   b8bf0:	2301      	movs	r3, #1
   b8bf2:	7123      	strb	r3, [r4, #4]
}
   b8bf4:	4620      	mov	r0, r4
   b8bf6:	bd10      	pop	{r4, pc}

000b8bf8 <_ZN5spark10JSONWriter14writeSeparatorEv>:

void spark::JSONWriter::writeSeparator() {
   b8bf8:	b508      	push	{r3, lr}
    switch (state_) {
   b8bfa:	7903      	ldrb	r3, [r0, #4]
   b8bfc:	2b01      	cmp	r3, #1
   b8bfe:	d002      	beq.n	b8c06 <_ZN5spark10JSONWriter14writeSeparatorEv+0xe>
   b8c00:	2b02      	cmp	r3, #2
   b8c02:	d004      	beq.n	b8c0e <_ZN5spark10JSONWriter14writeSeparatorEv+0x16>
        write(':');
        break;
    default:
        break;
    }
}
   b8c04:	bd08      	pop	{r3, pc}
        write(',');
   b8c06:	212c      	movs	r1, #44	; 0x2c
        write(':');
   b8c08:	f7ff ff3b 	bl	b8a82 <_ZN5spark10JSONWriter5writeEc>
}
   b8c0c:	e7fa      	b.n	b8c04 <_ZN5spark10JSONWriter14writeSeparatorEv+0xc>
        write(':');
   b8c0e:	213a      	movs	r1, #58	; 0x3a
   b8c10:	e7fa      	b.n	b8c08 <_ZN5spark10JSONWriter14writeSeparatorEv+0x10>

000b8c12 <_ZN5spark10JSONWriter11beginObjectEv>:
spark::JSONWriter& spark::JSONWriter::beginObject() {
   b8c12:	b510      	push	{r4, lr}
   b8c14:	4604      	mov	r4, r0
    writeSeparator();
   b8c16:	f7ff ffef 	bl	b8bf8 <_ZN5spark10JSONWriter14writeSeparatorEv>
    write('{');
   b8c1a:	4620      	mov	r0, r4
   b8c1c:	217b      	movs	r1, #123	; 0x7b
   b8c1e:	f7ff ff30 	bl	b8a82 <_ZN5spark10JSONWriter5writeEc>
    state_ = BEGIN;
   b8c22:	2300      	movs	r3, #0
   b8c24:	7123      	strb	r3, [r4, #4]
}
   b8c26:	4620      	mov	r0, r4
   b8c28:	bd10      	pop	{r4, pc}
	...

000b8c2c <_ZN5spark10JSONWriter5valueEi>:
spark::JSONWriter& spark::JSONWriter::value(int val) {
   b8c2c:	b513      	push	{r0, r1, r4, lr}
   b8c2e:	4604      	mov	r4, r0
   b8c30:	9101      	str	r1, [sp, #4]
    writeSeparator();
   b8c32:	f7ff ffe1 	bl	b8bf8 <_ZN5spark10JSONWriter14writeSeparatorEv>
    printf("%d", val);
   b8c36:	6823      	ldr	r3, [r4, #0]
   b8c38:	9a01      	ldr	r2, [sp, #4]
   b8c3a:	68db      	ldr	r3, [r3, #12]
   b8c3c:	4903      	ldr	r1, [pc, #12]	; (b8c4c <_ZN5spark10JSONWriter5valueEi+0x20>)
   b8c3e:	4620      	mov	r0, r4
   b8c40:	4798      	blx	r3
    state_ = NEXT;
   b8c42:	2301      	movs	r3, #1
}
   b8c44:	4620      	mov	r0, r4
    state_ = NEXT;
   b8c46:	7123      	strb	r3, [r4, #4]
}
   b8c48:	b002      	add	sp, #8
   b8c4a:	bd10      	pop	{r4, pc}
   b8c4c:	000bc9a4 	.word	0x000bc9a4

000b8c50 <_ZN5spark10JSONWriter5valueEj>:
spark::JSONWriter& spark::JSONWriter::value(unsigned val) {
   b8c50:	b513      	push	{r0, r1, r4, lr}
   b8c52:	4604      	mov	r4, r0
   b8c54:	9101      	str	r1, [sp, #4]
    writeSeparator();
   b8c56:	f7ff ffcf 	bl	b8bf8 <_ZN5spark10JSONWriter14writeSeparatorEv>
    printf("%u", val);
   b8c5a:	6823      	ldr	r3, [r4, #0]
   b8c5c:	9a01      	ldr	r2, [sp, #4]
   b8c5e:	68db      	ldr	r3, [r3, #12]
   b8c60:	4903      	ldr	r1, [pc, #12]	; (b8c70 <_ZN5spark10JSONWriter5valueEj+0x20>)
   b8c62:	4620      	mov	r0, r4
   b8c64:	4798      	blx	r3
    state_ = NEXT;
   b8c66:	2301      	movs	r3, #1
}
   b8c68:	4620      	mov	r0, r4
    state_ = NEXT;
   b8c6a:	7123      	strb	r3, [r4, #4]
}
   b8c6c:	b002      	add	sp, #8
   b8c6e:	bd10      	pop	{r4, pc}
   b8c70:	000bcd64 	.word	0x000bcd64

000b8c74 <_ZN5spark10JSONWriter12writeEscapedEPKcj>:

void spark::JSONWriter::writeEscaped(const char *str, size_t size) {
   b8c74:	e92d 47f0 	stmdb	sp!, {r4, r5, r6, r7, r8, r9, sl, lr}
   b8c78:	460d      	mov	r5, r1
    write('"');
   b8c7a:	2122      	movs	r1, #34	; 0x22
void spark::JSONWriter::writeEscaped(const char *str, size_t size) {
   b8c7c:	4690      	mov	r8, r2
   b8c7e:	4604      	mov	r4, r0
    write('"');
   b8c80:	f7ff feff 	bl	b8a82 <_ZN5spark10JSONWriter5writeEc>
            case 0x0d: // Carriage return
                write('r');
                break;
            default:
                // All other control characters are written in hex, e.g. "\u001f"
                printf("u%04x", (unsigned)c);
   b8c84:	f8df 90a4 	ldr.w	r9, [pc, #164]	; b8d2c <_ZN5spark10JSONWriter12writeEscapedEPKcj+0xb8>
    const char* const end = str + size;
   b8c88:	44a8      	add	r8, r5
    const char *s = str;
   b8c8a:	462f      	mov	r7, r5
    while (s != end) {
   b8c8c:	4547      	cmp	r7, r8
   b8c8e:	46ba      	mov	sl, r7
   b8c90:	d03d      	beq.n	b8d0e <_ZN5spark10JSONWriter12writeEscapedEPKcj+0x9a>
        const char c = *s;
   b8c92:	f817 6b01 	ldrb.w	r6, [r7], #1
        if (c == '"' || c == '\\' || !std::isprint((unsigned char)c)) {
   b8c96:	2e22      	cmp	r6, #34	; 0x22
   b8c98:	d006      	beq.n	b8ca8 <_ZN5spark10JSONWriter12writeEscapedEPKcj+0x34>
   b8c9a:	2e5c      	cmp	r6, #92	; 0x5c
   b8c9c:	d004      	beq.n	b8ca8 <_ZN5spark10JSONWriter12writeEscapedEPKcj+0x34>
   b8c9e:	4630      	mov	r0, r6
   b8ca0:	f003 fb8c 	bl	bc3bc <isprint>
   b8ca4:	2800      	cmp	r0, #0
   b8ca6:	d1f1      	bne.n	b8c8c <_ZN5spark10JSONWriter12writeEscapedEPKcj+0x18>
            write(str, s - str); // Write preceeding characters
   b8ca8:	6823      	ldr	r3, [r4, #0]
   b8caa:	ebaa 0205 	sub.w	r2, sl, r5
   b8cae:	689b      	ldr	r3, [r3, #8]
   b8cb0:	4629      	mov	r1, r5
   b8cb2:	4620      	mov	r0, r4
   b8cb4:	4798      	blx	r3
            write('\\');
   b8cb6:	215c      	movs	r1, #92	; 0x5c
   b8cb8:	4620      	mov	r0, r4
   b8cba:	f7ff fee2 	bl	b8a82 <_ZN5spark10JSONWriter5writeEc>
            switch (c) {
   b8cbe:	2e0d      	cmp	r6, #13
   b8cc0:	d80a      	bhi.n	b8cd8 <_ZN5spark10JSONWriter12writeEscapedEPKcj+0x64>
   b8cc2:	2e07      	cmp	r6, #7
   b8cc4:	d91c      	bls.n	b8d00 <_ZN5spark10JSONWriter12writeEscapedEPKcj+0x8c>
   b8cc6:	f1a6 0308 	sub.w	r3, r6, #8
   b8cca:	2b05      	cmp	r3, #5
   b8ccc:	d818      	bhi.n	b8d00 <_ZN5spark10JSONWriter12writeEscapedEPKcj+0x8c>
   b8cce:	e8df f003 	tbb	[pc, r3]
   b8cd2:	0f0d      	.short	0x0f0d
   b8cd4:	15131711 	.word	0x15131711
   b8cd8:	2e22      	cmp	r6, #34	; 0x22
   b8cda:	d001      	beq.n	b8ce0 <_ZN5spark10JSONWriter12writeEscapedEPKcj+0x6c>
   b8cdc:	2e5c      	cmp	r6, #92	; 0x5c
   b8cde:	d10f      	bne.n	b8d00 <_ZN5spark10JSONWriter12writeEscapedEPKcj+0x8c>
                write(c);
   b8ce0:	4631      	mov	r1, r6
                write('b');
   b8ce2:	4620      	mov	r0, r4
   b8ce4:	f7ff fecd 	bl	b8a82 <_ZN5spark10JSONWriter5writeEc>
                break;
            }
            str = s + 1;
   b8ce8:	463d      	mov	r5, r7
    while (s != end) {
   b8cea:	e7cf      	b.n	b8c8c <_ZN5spark10JSONWriter12writeEscapedEPKcj+0x18>
                write('b');
   b8cec:	2162      	movs	r1, #98	; 0x62
   b8cee:	e7f8      	b.n	b8ce2 <_ZN5spark10JSONWriter12writeEscapedEPKcj+0x6e>
                write('t');
   b8cf0:	2174      	movs	r1, #116	; 0x74
   b8cf2:	e7f6      	b.n	b8ce2 <_ZN5spark10JSONWriter12writeEscapedEPKcj+0x6e>
                write('n');
   b8cf4:	216e      	movs	r1, #110	; 0x6e
   b8cf6:	e7f4      	b.n	b8ce2 <_ZN5spark10JSONWriter12writeEscapedEPKcj+0x6e>
                write('f');
   b8cf8:	2166      	movs	r1, #102	; 0x66
   b8cfa:	e7f2      	b.n	b8ce2 <_ZN5spark10JSONWriter12writeEscapedEPKcj+0x6e>
                write('r');
   b8cfc:	2172      	movs	r1, #114	; 0x72
   b8cfe:	e7f0      	b.n	b8ce2 <_ZN5spark10JSONWriter12writeEscapedEPKcj+0x6e>
                printf("u%04x", (unsigned)c);
   b8d00:	6823      	ldr	r3, [r4, #0]
   b8d02:	4632      	mov	r2, r6
   b8d04:	68db      	ldr	r3, [r3, #12]
   b8d06:	4649      	mov	r1, r9
   b8d08:	4620      	mov	r0, r4
   b8d0a:	4798      	blx	r3
                break;
   b8d0c:	e7ec      	b.n	b8ce8 <_ZN5spark10JSONWriter12writeEscapedEPKcj+0x74>
        }
        ++s;
    }
    if (s != str) {
   b8d0e:	42bd      	cmp	r5, r7
   b8d10:	d005      	beq.n	b8d1e <_ZN5spark10JSONWriter12writeEscapedEPKcj+0xaa>
        write(str, s - str); // Write remaining characters
   b8d12:	6823      	ldr	r3, [r4, #0]
   b8d14:	1b7a      	subs	r2, r7, r5
   b8d16:	689b      	ldr	r3, [r3, #8]
   b8d18:	4629      	mov	r1, r5
   b8d1a:	4620      	mov	r0, r4
   b8d1c:	4798      	blx	r3
    }
    write('"');
   b8d1e:	2122      	movs	r1, #34	; 0x22
   b8d20:	4620      	mov	r0, r4
   b8d22:	f7ff feae 	bl	b8a82 <_ZN5spark10JSONWriter5writeEc>
}
   b8d26:	e8bd 87f0 	ldmia.w	sp!, {r4, r5, r6, r7, r8, r9, sl, pc}
   b8d2a:	bf00      	nop
   b8d2c:	000bcd67 	.word	0x000bcd67

000b8d30 <_ZN5spark10JSONWriter4nameEPKcj>:
spark::JSONWriter& spark::JSONWriter::name(const char *name, size_t size) {
   b8d30:	b513      	push	{r0, r1, r4, lr}
   b8d32:	4604      	mov	r4, r0
   b8d34:	e9cd 2100 	strd	r2, r1, [sp]
    writeSeparator();
   b8d38:	f7ff ff5e 	bl	b8bf8 <_ZN5spark10JSONWriter14writeSeparatorEv>
    writeEscaped(name, size);
   b8d3c:	4620      	mov	r0, r4
   b8d3e:	e9dd 2100 	ldrd	r2, r1, [sp]
   b8d42:	f7ff ff97 	bl	b8c74 <_ZN5spark10JSONWriter12writeEscapedEPKcj>
    state_ = VALUE;
   b8d46:	2302      	movs	r3, #2
}
   b8d48:	4620      	mov	r0, r4
    state_ = VALUE;
   b8d4a:	7123      	strb	r3, [r4, #4]
}
   b8d4c:	b002      	add	sp, #8
   b8d4e:	bd10      	pop	{r4, pc}

000b8d50 <_ZN5spark10JSONWriter5valueEPKcj>:
spark::JSONWriter& spark::JSONWriter::value(const char *val, size_t size) {
   b8d50:	b513      	push	{r0, r1, r4, lr}
   b8d52:	4604      	mov	r4, r0
   b8d54:	e9cd 2100 	strd	r2, r1, [sp]
    writeSeparator();
   b8d58:	f7ff ff4e 	bl	b8bf8 <_ZN5spark10JSONWriter14writeSeparatorEv>
    writeEscaped(val, size);
   b8d5c:	4620      	mov	r0, r4
   b8d5e:	e9dd 2100 	ldrd	r2, r1, [sp]
   b8d62:	f7ff ff87 	bl	b8c74 <_ZN5spark10JSONWriter12writeEscapedEPKcj>
    state_ = NEXT;
   b8d66:	2301      	movs	r3, #1
}
   b8d68:	4620      	mov	r0, r4
    state_ = NEXT;
   b8d6a:	7123      	strb	r3, [r4, #4]
}
   b8d6c:	b002      	add	sp, #8
   b8d6e:	bd10      	pop	{r4, pc}

000b8d70 <_ZN5spark16JSONStreamWriter5writeEPKcj>:
inline Print* spark::JSONStreamWriter::stream() const {
    return &strm_;
}

inline void spark::JSONStreamWriter::write(const char *data, size_t size) {
    strm_.write((const uint8_t*)data, size);
   b8d70:	6880      	ldr	r0, [r0, #8]
   b8d72:	6803      	ldr	r3, [r0, #0]
   b8d74:	68db      	ldr	r3, [r3, #12]
   b8d76:	4718      	bx	r3

000b8d78 <_ZN5spark20JSONStreamLogHandler5writeEPKcj>:
}

// spark::JSONStreamLogHandler
inline void spark::JSONStreamLogHandler::write(const char *data, size_t size) {
    // This handler doesn't support direct logging
}
   b8d78:	4770      	bx	lr

000b8d7a <_ZN5spark17LogHandlerFactory14destroyHandlerEPNS_10LogHandlerE>:

#if Wiring_LogConfig

// spark::LogHandlerFactory
inline void spark::LogHandlerFactory::destroyHandler(LogHandler *handler) {
    delete handler;
   b8d7a:	4608      	mov	r0, r1
   b8d7c:	b111      	cbz	r1, b8d84 <_ZN5spark17LogHandlerFactory14destroyHandlerEPNS_10LogHandlerE+0xa>
   b8d7e:	680b      	ldr	r3, [r1, #0]
   b8d80:	685b      	ldr	r3, [r3, #4]
   b8d82:	4718      	bx	r3
}
   b8d84:	4770      	bx	lr

000b8d86 <__tcf_0>:
    }
    return nullptr; // Unknown handler type
}

spark::DefaultLogHandlerFactory* spark::DefaultLogHandlerFactory::instance() {
    static DefaultLogHandlerFactory factory;
   b8d86:	4770      	bx	lr

000b8d88 <_ZN5spark26DefaultOutputStreamFactoryD1Ev>:
class DefaultOutputStreamFactory: public OutputStreamFactory {
   b8d88:	4770      	bx	lr

000b8d8a <_ZN5spark24DefaultLogHandlerFactoryD1Ev>:
class DefaultLogHandlerFactory: public LogHandlerFactory {
   b8d8a:	4770      	bx	lr

000b8d8c <_ZN5spark16JSONStreamWriterD1Ev>:
class JSONStreamWriter: public JSONWriter {
   b8d8c:	4770      	bx	lr

000b8d8e <_ZN12_GLOBAL__N_119nextSubcategoryNameERPKcRj>:
const char* nextSubcategoryName(const char* &category, size_t &size) {
   b8d8e:	b538      	push	{r3, r4, r5, lr}
   b8d90:	4604      	mov	r4, r0
   b8d92:	460d      	mov	r5, r1
    const char *s = strchrnul(category, '.');
   b8d94:	6800      	ldr	r0, [r0, #0]
   b8d96:	212e      	movs	r1, #46	; 0x2e
   b8d98:	f003 fbd1 	bl	bc53e <strchrnul>
    size = s - category;
   b8d9c:	6823      	ldr	r3, [r4, #0]
   b8d9e:	1ac3      	subs	r3, r0, r3
   b8da0:	602b      	str	r3, [r5, #0]
    if (size) {
   b8da2:	b123      	cbz	r3, b8dae <_ZN12_GLOBAL__N_119nextSubcategoryNameERPKcRj+0x20>
        if (*s) {
   b8da4:	7803      	ldrb	r3, [r0, #0]
   b8da6:	b103      	cbz	r3, b8daa <_ZN12_GLOBAL__N_119nextSubcategoryNameERPKcRj+0x1c>
            ++s;
   b8da8:	3001      	adds	r0, #1
#if __cplusplus < 201103L
      // concept requirements
      __glibcxx_function_requires(_SGIAssignableConcept<_Tp>)
#endif
      _Tp __tmp = _GLIBCXX_MOVE(__a);
      __a = _GLIBCXX_MOVE(__b);
   b8daa:	6823      	ldr	r3, [r4, #0]
      __b = _GLIBCXX_MOVE(__tmp);
   b8dac:	6020      	str	r0, [r4, #0]
}
   b8dae:	4618      	mov	r0, r3
   b8db0:	bd38      	pop	{r3, r4, r5, pc}

000b8db2 <_ZN5spark16JSONStreamWriterD0Ev>:
   b8db2:	b510      	push	{r4, lr}
   b8db4:	210c      	movs	r1, #12
   b8db6:	4604      	mov	r4, r0
   b8db8:	f7fb f971 	bl	b409e <_ZdlPvj>
   b8dbc:	4620      	mov	r0, r4
   b8dbe:	bd10      	pop	{r4, pc}

000b8dc0 <_ZN5spark24DefaultLogHandlerFactoryD0Ev>:
   b8dc0:	b510      	push	{r4, lr}
   b8dc2:	2104      	movs	r1, #4
   b8dc4:	4604      	mov	r4, r0
   b8dc6:	f7fb f96a 	bl	b409e <_ZdlPvj>
   b8dca:	4620      	mov	r0, r4
   b8dcc:	bd10      	pop	{r4, pc}

000b8dce <_ZN5spark26DefaultOutputStreamFactoryD0Ev>:
class DefaultOutputStreamFactory: public OutputStreamFactory {
   b8dce:	b510      	push	{r4, lr}
   b8dd0:	2104      	movs	r1, #4
   b8dd2:	4604      	mov	r4, r0
   b8dd4:	f7fb f963 	bl	b409e <_ZdlPvj>
   b8dd8:	4620      	mov	r0, r4
   b8dda:	bd10      	pop	{r4, pc}

000b8ddc <_ZN14RecursiveMutex4lockEv.isra.0>:
    void lock() { os_mutex_recursive_lock(handle_); }
   b8ddc:	f7fe bdfc 	b.w	b79d8 <os_mutex_recursive_lock>

000b8de0 <_ZNK5spark10JSONStringeqEPKc.isra.0>:
inline bool spark::JSONString::operator==(const char *str) const {
   b8de0:	b508      	push	{r3, lr}
    return strcmp(s_, str) == 0;
   b8de2:	f003 fbb6 	bl	bc552 <strcmp>
}
   b8de6:	fab0 f080 	clz	r0, r0
   b8dea:	0940      	lsrs	r0, r0, #5
   b8dec:	bd08      	pop	{r3, pc}

000b8dee <__tcf_1>:
   b8dee:	4770      	bx	lr

000b8df0 <_ZN5spark26DefaultOutputStreamFactory13destroyStreamEP5Print>:
    }
#endif // PLATFORM_ID != PLATFORM_GCC
    return nullptr;
}

void spark::DefaultOutputStreamFactory::destroyStream(Print *stream) {
   b8df0:	b510      	push	{r4, lr}
   b8df2:	460c      	mov	r4, r1
#if PLATFORM_ID != PLATFORM_GCC
    if (stream == &Serial) {
   b8df4:	f001 fd68 	bl	ba8c8 <_Z16_fetch_usbserialv>
   b8df8:	4284      	cmp	r4, r0
   b8dfa:	d010      	beq.n	b8e1e <_ZN5spark26DefaultOutputStreamFactory13destroyStreamEP5Print+0x2e>
    if (stream == &USBSerial1) {
        USBSerial1.end();
        return;
    }
#endif
    if (stream == &Serial1) {
   b8dfc:	f001 ff70 	bl	bace0 <_Z22__fetch_global_Serial1v>
   b8e00:	4284      	cmp	r4, r0
   b8e02:	d105      	bne.n	b8e10 <_ZN5spark26DefaultOutputStreamFactory13destroyStreamEP5Print+0x20>
        Serial1.end();
   b8e04:	f001 ff6c 	bl	bace0 <_Z22__fetch_global_Serial1v>
        return;
    }
#endif // PLATFORM_ID != PLATFORM_GCC
    OutputStreamFactory::destroyStream(stream);
}
   b8e08:	e8bd 4010 	ldmia.w	sp!, {r4, lr}
        Serial1.end();
   b8e0c:	f001 bcf7 	b.w	ba7fe <_ZN11USARTSerial3endEv>

// spark::OutputStreamFactory
inline void spark::OutputStreamFactory::destroyStream(Print *stream) {
    delete stream;
   b8e10:	b12c      	cbz	r4, b8e1e <_ZN5spark26DefaultOutputStreamFactory13destroyStreamEP5Print+0x2e>
   b8e12:	6823      	ldr	r3, [r4, #0]
   b8e14:	4620      	mov	r0, r4
   b8e16:	685b      	ldr	r3, [r3, #4]
}
   b8e18:	e8bd 4010 	ldmia.w	sp!, {r4, lr}
   b8e1c:	4718      	bx	r3
   b8e1e:	bd10      	pop	{r4, pc}

000b8e20 <_ZNSt12__shared_ptrIN5spark6detail8JSONDataELN9__gnu_cxx12_Lock_policyE0EEC1ERKS5_>:
      __shared_ptr(const __shared_ptr&) noexcept = default;
   b8e20:	680b      	ldr	r3, [r1, #0]
   b8e22:	6003      	str	r3, [r0, #0]
      : _M_pi(__r._M_pi)
   b8e24:	684b      	ldr	r3, [r1, #4]
   b8e26:	6043      	str	r3, [r0, #4]
	if (_M_pi != 0)
   b8e28:	b113      	cbz	r3, b8e30 <_ZNSt12__shared_ptrIN5spark6detail8JSONDataELN9__gnu_cxx12_Lock_policyE0EEC1ERKS5_+0x10>
    { ++_M_use_count; }
   b8e2a:	685a      	ldr	r2, [r3, #4]
   b8e2c:	3201      	adds	r2, #1
   b8e2e:	605a      	str	r2, [r3, #4]
      __shared_ptr(const __shared_ptr&) noexcept = default;
   b8e30:	4770      	bx	lr

000b8e32 <_ZN5spark10JSONWriter5valueEPKc>:
inline spark::JSONWriter& spark::JSONWriter::value(const char *val) {
   b8e32:	b513      	push	{r0, r1, r4, lr}
   b8e34:	4604      	mov	r4, r0
    return value(val, strlen(val));
   b8e36:	4608      	mov	r0, r1
   b8e38:	9101      	str	r1, [sp, #4]
   b8e3a:	f003 fb9c 	bl	bc576 <strlen>
   b8e3e:	9901      	ldr	r1, [sp, #4]
   b8e40:	4602      	mov	r2, r0
   b8e42:	4620      	mov	r0, r4
}
   b8e44:	b002      	add	sp, #8
   b8e46:	e8bd 4010 	ldmia.w	sp!, {r4, lr}
    return value(val, strlen(val));
   b8e4a:	f7ff bf81 	b.w	b8d50 <_ZN5spark10JSONWriter5valueEPKcj>

000b8e4e <_ZN5spark16StreamLogHandler5writeEPKc>:
inline void spark::StreamLogHandler::write(const char *str) {
   b8e4e:	b513      	push	{r0, r1, r4, lr}
   b8e50:	4604      	mov	r4, r0
    write(str, strlen(str));
   b8e52:	4608      	mov	r0, r1
   b8e54:	9101      	str	r1, [sp, #4]
   b8e56:	f003 fb8e 	bl	bc576 <strlen>
   b8e5a:	6823      	ldr	r3, [r4, #0]
   b8e5c:	9901      	ldr	r1, [sp, #4]
   b8e5e:	68db      	ldr	r3, [r3, #12]
   b8e60:	4602      	mov	r2, r0
   b8e62:	4620      	mov	r0, r4
}
   b8e64:	b002      	add	sp, #8
   b8e66:	e8bd 4010 	ldmia.w	sp!, {r4, lr}
    write(str, strlen(str));
   b8e6a:	4718      	bx	r3

000b8e6c <_ZN5spark16StreamLogHandler5writeEc>:
inline void spark::StreamLogHandler::write(char c) {
   b8e6c:	b507      	push	{r0, r1, r2, lr}
    write(&c, 1);
   b8e6e:	6803      	ldr	r3, [r0, #0]
inline void spark::StreamLogHandler::write(char c) {
   b8e70:	f88d 1007 	strb.w	r1, [sp, #7]
    write(&c, 1);
   b8e74:	68db      	ldr	r3, [r3, #12]
   b8e76:	2201      	movs	r2, #1
   b8e78:	f10d 0107 	add.w	r1, sp, #7
   b8e7c:	4798      	blx	r3
}
   b8e7e:	b003      	add	sp, #12
   b8e80:	f85d fb04 	ldr.w	pc, [sp], #4

000b8e84 <_ZN5spark16StreamLogHandler6printfEPKcz>:
inline void spark::StreamLogHandler::printf(const char *fmt, ...) {
   b8e84:	b40e      	push	{r1, r2, r3}
   b8e86:	b503      	push	{r0, r1, lr}
   b8e88:	ab03      	add	r3, sp, #12
    stream_->vprintf(false, fmt, args);
   b8e8a:	2100      	movs	r1, #0
inline void spark::StreamLogHandler::printf(const char *fmt, ...) {
   b8e8c:	f853 2b04 	ldr.w	r2, [r3], #4
    stream_->vprintf(false, fmt, args);
   b8e90:	6a00      	ldr	r0, [r0, #32]
    va_start(args, fmt);
   b8e92:	9301      	str	r3, [sp, #4]
    stream_->vprintf(false, fmt, args);
   b8e94:	f001 f8d7 	bl	ba046 <_ZN5Print7vprintfEbPKcSt9__va_list>
}
   b8e98:	b002      	add	sp, #8
   b8e9a:	f85d eb04 	ldr.w	lr, [sp], #4
   b8e9e:	b003      	add	sp, #12
   b8ea0:	4770      	bx	lr

000b8ea2 <_ZN5spark6detail9LogFilter4NodeC1EOS2_>:
struct spark::detail::LogFilter::Node {
   b8ea2:	680a      	ldr	r2, [r1, #0]
   b8ea4:	6002      	str	r2, [r0, #0]
   b8ea6:	684a      	ldr	r2, [r1, #4]
   b8ea8:	6042      	str	r2, [r0, #4]
        capacity_(0) {
   b8eaa:	2200      	movs	r2, #0
   b8eac:	e9c0 2202 	strd	r2, r2, [r0, #8]
   b8eb0:	b510      	push	{r4, lr}
   b8eb2:	6102      	str	r2, [r0, #16]
      __a = _GLIBCXX_MOVE(__b);
   b8eb4:	688c      	ldr	r4, [r1, #8]
   b8eb6:	6084      	str	r4, [r0, #8]
   b8eb8:	68cc      	ldr	r4, [r1, #12]
   b8eba:	60c4      	str	r4, [r0, #12]
   b8ebc:	690c      	ldr	r4, [r1, #16]
      __b = _GLIBCXX_MOVE(__tmp);
   b8ebe:	608a      	str	r2, [r1, #8]
   b8ec0:	60ca      	str	r2, [r1, #12]
      __a = _GLIBCXX_MOVE(__b);
   b8ec2:	6104      	str	r4, [r0, #16]
      __b = _GLIBCXX_MOVE(__tmp);
   b8ec4:	610a      	str	r2, [r1, #16]
   b8ec6:	bd10      	pop	{r4, pc}

000b8ec8 <_ZN5spark6detail9LogFilter9nodeIndexERKNS_6VectorINS1_4NodeENS_16DefaultAllocatorEEEPKcjRb>:
int spark::detail::LogFilter::nodeIndex(const Vector<Node> &nodes, const char *name, size_t size, bool &found) {
   b8ec8:	e92d 4ff7 	stmdb	sp!, {r0, r1, r2, r4, r5, r6, r7, r8, r9, sl, fp, lr}
}

template<typename T, typename AllocatorT>
const T* spark::Vector<T, AllocatorT>::end() const {
    return data_ + size_;
   b8ecc:	e9d0 8400 	ldrd	r8, r4, [r0]
   b8ed0:	f04f 0a14 	mov.w	sl, #20
   b8ed4:	9300      	str	r3, [sp, #0]
   b8ed6:	fb0a f404 	mul.w	r4, sl, r4
               random_access_iterator_tag)
    {
      // concept requirements
      __glibcxx_function_requires(_RandomAccessIteratorConcept<
				  _RandomAccessIterator>)
      return __last - __first;
   b8eda:	4b18      	ldr	r3, [pc, #96]	; (b8f3c <_ZN5spark6detail9LogFilter9nodeIndexERKNS_6VectorINS1_4NodeENS_16DefaultAllocatorEEEPKcjRb+0x74>)
   b8edc:	10a4      	asrs	r4, r4, #2
   b8ede:	4617      	mov	r7, r2
   b8ee0:	435c      	muls	r4, r3
   b8ee2:	4645      	mov	r5, r8
      typedef typename iterator_traits<_ForwardIterator>::difference_type
	_DistanceType;

      _DistanceType __len = std::distance(__first, __last);

      while (__len > 0)
   b8ee4:	2c00      	cmp	r4, #0
   b8ee6:	dd21      	ble.n	b8f2c <_ZN5spark6detail9LogFilter9nodeIndexERKNS_6VectorINS1_4NodeENS_16DefaultAllocatorEEEPKcjRb+0x64>
	{
	  _DistanceType __half = __len >> 1;
   b8ee8:	1066      	asrs	r6, r4, #1
      if (__builtin_constant_p(__n) && __n == 1)
	++__i;
      else if (__builtin_constant_p(__n) && __n == -1)
	--__i;
      else
	__i += __n;
   b8eea:	fb0a f006 	mul.w	r0, sl, r6
   b8eee:	eb05 0900 	add.w	r9, r5, r0
                const int cmp = strncmp(node.name, value.first, std::min<size_t>(node.size, value.second));
   b8ef2:	463a      	mov	r2, r7
   b8ef4:	f8b9 b004 	ldrh.w	fp, [r9, #4]
   b8ef8:	5828      	ldr	r0, [r5, r0]
   b8efa:	9101      	str	r1, [sp, #4]
   b8efc:	455f      	cmp	r7, fp
   b8efe:	bf28      	it	cs
   b8f00:	465a      	movcs	r2, fp
   b8f02:	f003 fb40 	bl	bc586 <strncmp>
                if (cmp == 0) {
   b8f06:	2800      	cmp	r0, #0
   b8f08:	9901      	ldr	r1, [sp, #4]
   b8f0a:	f04f 0301 	mov.w	r3, #1
   b8f0e:	d10b      	bne.n	b8f28 <_ZN5spark6detail9LogFilter9nodeIndexERKNS_6VectorINS1_4NodeENS_16DefaultAllocatorEEEPKcjRb+0x60>
                    if (node.size == value.second) { // Lengths are equal
   b8f10:	455f      	cmp	r7, fp
   b8f12:	d103      	bne.n	b8f1c <_ZN5spark6detail9LogFilter9nodeIndexERKNS_6VectorINS1_4NodeENS_16DefaultAllocatorEEEPKcjRb+0x54>
                        found = true; // Allows caller code to avoid extra call to strncmp()
   b8f14:	9a00      	ldr	r2, [sp, #0]
   b8f16:	7013      	strb	r3, [r2, #0]
int spark::detail::LogFilter::nodeIndex(const Vector<Node> &nodes, const char *name, size_t size, bool &found) {
   b8f18:	4634      	mov	r4, r6
   b8f1a:	e7e3      	b.n	b8ee4 <_ZN5spark6detail9LogFilter9nodeIndexERKNS_6VectorINS1_4NodeENS_16DefaultAllocatorEEEPKcjRb+0x1c>
	  _ForwardIterator __middle = __first;
	  std::advance(__middle, __half);
	  if (__comp(__middle, __val))
   b8f1c:	d9fc      	bls.n	b8f18 <_ZN5spark6detail9LogFilter9nodeIndexERKNS_6VectorINS1_4NodeENS_16DefaultAllocatorEEEPKcjRb+0x50>
	    {
	      __first = __middle;
	      ++__first;
	      __len = __len - __half - 1;
   b8f1e:	1ba6      	subs	r6, r4, r6
	      ++__first;
   b8f20:	f109 0514 	add.w	r5, r9, #20
	      __len = __len - __half - 1;
   b8f24:	3e01      	subs	r6, #1
   b8f26:	e7f7      	b.n	b8f18 <_ZN5spark6detail9LogFilter9nodeIndexERKNS_6VectorINS1_4NodeENS_16DefaultAllocatorEEEPKcjRb+0x50>
	  if (__comp(__middle, __val))
   b8f28:	dbf9      	blt.n	b8f1e <_ZN5spark6detail9LogFilter9nodeIndexERKNS_6VectorINS1_4NodeENS_16DefaultAllocatorEEEPKcjRb+0x56>
   b8f2a:	e7f5      	b.n	b8f18 <_ZN5spark6detail9LogFilter9nodeIndexERKNS_6VectorINS1_4NodeENS_16DefaultAllocatorEEEPKcjRb+0x50>
      return __last - __first;
   b8f2c:	eba5 0508 	sub.w	r5, r5, r8
}
   b8f30:	4802      	ldr	r0, [pc, #8]	; (b8f3c <_ZN5spark6detail9LogFilter9nodeIndexERKNS_6VectorINS1_4NodeENS_16DefaultAllocatorEEEPKcjRb+0x74>)
   b8f32:	10ad      	asrs	r5, r5, #2
   b8f34:	4368      	muls	r0, r5
   b8f36:	b003      	add	sp, #12
   b8f38:	e8bd 8ff0 	ldmia.w	sp!, {r4, r5, r6, r7, r8, r9, sl, fp, pc}
   b8f3c:	cccccccd 	.word	0xcccccccd

000b8f40 <_ZNK5spark6detail9LogFilter5levelEPKc>:
LogLevel spark::detail::LogFilter::level(const char *category) const {
   b8f40:	b57f      	push	{r0, r1, r2, r3, r4, r5, r6, lr}
    if (!nodes_.isEmpty() && category) {
   b8f42:	6903      	ldr	r3, [r0, #16]
    LogLevel level = level_; // Default level
   b8f44:	7e05      	ldrb	r5, [r0, #24]
LogLevel spark::detail::LogFilter::level(const char *category) const {
   b8f46:	9101      	str	r1, [sp, #4]
    if (!nodes_.isEmpty() && category) {
   b8f48:	b303      	cbz	r3, b8f8c <_ZNK5spark6detail9LogFilter5levelEPKc+0x4c>
   b8f4a:	b1f9      	cbz	r1, b8f8c <_ZNK5spark6detail9LogFilter5levelEPKc+0x4c>
        size_t size = 0; // Name length
   b8f4c:	2600      	movs	r6, #0
        const Vector<Node> *pNodes = &nodes_; // Root nodes
   b8f4e:	f100 040c 	add.w	r4, r0, #12
        size_t size = 0; // Name length
   b8f52:	9603      	str	r6, [sp, #12]
        while ((name = nextSubcategoryName(category, size))) {
   b8f54:	a903      	add	r1, sp, #12
   b8f56:	a801      	add	r0, sp, #4
   b8f58:	f7ff ff19 	bl	b8d8e <_ZN12_GLOBAL__N_119nextSubcategoryNameERPKcRj>
   b8f5c:	4601      	mov	r1, r0
   b8f5e:	b1a8      	cbz	r0, b8f8c <_ZNK5spark6detail9LogFilter5levelEPKc+0x4c>
            const int index = nodeIndex(*pNodes, name, size, found);
   b8f60:	f10d 030b 	add.w	r3, sp, #11
   b8f64:	9a03      	ldr	r2, [sp, #12]
            bool found = false;
   b8f66:	f88d 600b 	strb.w	r6, [sp, #11]
            const int index = nodeIndex(*pNodes, name, size, found);
   b8f6a:	4620      	mov	r0, r4
   b8f6c:	f7ff ffac 	bl	b8ec8 <_ZN5spark6detail9LogFilter9nodeIndexERKNS_6VectorINS1_4NodeENS_16DefaultAllocatorEEEPKcjRb>
            if (!found) {
   b8f70:	f89d 300b 	ldrb.w	r3, [sp, #11]
   b8f74:	b153      	cbz	r3, b8f8c <_ZNK5spark6detail9LogFilter5levelEPKc+0x4c>
    return data_[i];
   b8f76:	6823      	ldr	r3, [r4, #0]
   b8f78:	2414      	movs	r4, #20
   b8f7a:	fb04 3400 	mla	r4, r4, r0, r3
            pNodes = &node.nodes;
   b8f7e:	3408      	adds	r4, #8
            if (node.level >= 0) {
   b8f80:	f934 3c02 	ldrsh.w	r3, [r4, #-2]
   b8f84:	2b00      	cmp	r3, #0
                level = (LogLevel)node.level;
   b8f86:	bfa8      	it	ge
   b8f88:	b2dd      	uxtbge	r5, r3
        while ((name = nextSubcategoryName(category, size))) {
   b8f8a:	e7e3      	b.n	b8f54 <_ZNK5spark6detail9LogFilter5levelEPKc+0x14>
}
   b8f8c:	4628      	mov	r0, r5
   b8f8e:	b004      	add	sp, #16
   b8f90:	bd70      	pop	{r4, r5, r6, pc}
	...

000b8f94 <_ZN5spark24DefaultLogHandlerFactory8instanceEv>:
spark::DefaultLogHandlerFactory* spark::DefaultLogHandlerFactory::instance() {
   b8f94:	b510      	push	{r4, lr}
    static DefaultLogHandlerFactory factory;
   b8f96:	4c09      	ldr	r4, [pc, #36]	; (b8fbc <_ZN5spark24DefaultLogHandlerFactory8instanceEv+0x28>)
   b8f98:	7823      	ldrb	r3, [r4, #0]
   b8f9a:	f3bf 8f5b 	dmb	ish
   b8f9e:	07db      	lsls	r3, r3, #31
   b8fa0:	d409      	bmi.n	b8fb6 <_ZN5spark24DefaultLogHandlerFactory8instanceEv+0x22>
   b8fa2:	4620      	mov	r0, r4
   b8fa4:	f7fb f88a 	bl	b40bc <__cxa_guard_acquire>
   b8fa8:	b128      	cbz	r0, b8fb6 <_ZN5spark24DefaultLogHandlerFactory8instanceEv+0x22>
   b8faa:	4620      	mov	r0, r4
   b8fac:	f7fb f88b 	bl	b40c6 <__cxa_guard_release>
   b8fb0:	4803      	ldr	r0, [pc, #12]	; (b8fc0 <_ZN5spark24DefaultLogHandlerFactory8instanceEv+0x2c>)
   b8fb2:	f003 f9fd 	bl	bc3b0 <atexit>
}
   b8fb6:	4803      	ldr	r0, [pc, #12]	; (b8fc4 <_ZN5spark24DefaultLogHandlerFactory8instanceEv+0x30>)
   b8fb8:	bd10      	pop	{r4, pc}
   b8fba:	bf00      	nop
   b8fbc:	2003e6a4 	.word	0x2003e6a4
   b8fc0:	000b8d87 	.word	0x000b8d87
   b8fc4:	2003dbc4 	.word	0x2003dbc4

000b8fc8 <_ZN5spark26DefaultOutputStreamFactory8instanceEv>:

spark::DefaultOutputStreamFactory* spark::DefaultOutputStreamFactory::instance() {
   b8fc8:	b510      	push	{r4, lr}
    static DefaultOutputStreamFactory factory;
   b8fca:	4c09      	ldr	r4, [pc, #36]	; (b8ff0 <_ZN5spark26DefaultOutputStreamFactory8instanceEv+0x28>)
   b8fcc:	7823      	ldrb	r3, [r4, #0]
   b8fce:	f3bf 8f5b 	dmb	ish
   b8fd2:	07db      	lsls	r3, r3, #31
   b8fd4:	d409      	bmi.n	b8fea <_ZN5spark26DefaultOutputStreamFactory8instanceEv+0x22>
   b8fd6:	4620      	mov	r0, r4
   b8fd8:	f7fb f870 	bl	b40bc <__cxa_guard_acquire>
   b8fdc:	b128      	cbz	r0, b8fea <_ZN5spark26DefaultOutputStreamFactory8instanceEv+0x22>
   b8fde:	4620      	mov	r0, r4
   b8fe0:	f7fb f871 	bl	b40c6 <__cxa_guard_release>
   b8fe4:	4803      	ldr	r0, [pc, #12]	; (b8ff4 <_ZN5spark26DefaultOutputStreamFactory8instanceEv+0x2c>)
   b8fe6:	f003 f9e3 	bl	bc3b0 <atexit>
    return &factory;
}
   b8fea:	4803      	ldr	r0, [pc, #12]	; (b8ff8 <_ZN5spark26DefaultOutputStreamFactory8instanceEv+0x30>)
   b8fec:	bd10      	pop	{r4, pc}
   b8fee:	bf00      	nop
   b8ff0:	2003e6a8 	.word	0x2003e6a8
   b8ff4:	000b8def 	.word	0x000b8def
   b8ff8:	2003dbc8 	.word	0x2003dbc8

000b8ffc <_ZN5spark10LogManagerC1Ev>:
    Print *stream;
};

#endif // Wiring_LogConfig

spark::LogManager::LogManager() {
   b8ffc:	b538      	push	{r3, r4, r5, lr}
        capacity_(0) {
   b8ffe:	2500      	movs	r5, #0
   b9000:	4604      	mov	r4, r0
   b9002:	e9c0 5500 	strd	r5, r5, [r0]
   b9006:	e9c0 5504 	strd	r5, r5, [r0, #16]
   b900a:	6085      	str	r5, [r0, #8]
   b900c:	6185      	str	r5, [r0, #24]
    RecursiveMutex() : handle_(nullptr)
   b900e:	f840 5f24 	str.w	r5, [r0, #36]!
        os_mutex_recursive_create(&handle_);
   b9012:	f7fe fcd1 	bl	b79b8 <os_mutex_recursive_create>
#if Wiring_LogConfig
    handlerFactory_ = DefaultLogHandlerFactory::instance();
   b9016:	f7ff ffbd 	bl	b8f94 <_ZN5spark24DefaultLogHandlerFactory8instanceEv>
   b901a:	61e0      	str	r0, [r4, #28]
    streamFactory_ = DefaultOutputStreamFactory::instance();
   b901c:	f7ff ffd4 	bl	b8fc8 <_ZN5spark26DefaultOutputStreamFactory8instanceEv>
#endif
    outputActive_ = false;
   b9020:	7325      	strb	r5, [r4, #12]
    streamFactory_ = DefaultOutputStreamFactory::instance();
   b9022:	6220      	str	r0, [r4, #32]
}
   b9024:	4620      	mov	r0, r4
   b9026:	bd38      	pop	{r3, r4, r5, pc}

000b9028 <_ZN5spark10LogManager8instanceEv>:
            resetSystemCallbacks();
        }
    }
}

spark::LogManager* spark::LogManager::instance() {
   b9028:	b510      	push	{r4, lr}
    static LogManager mgr;
   b902a:	4c0a      	ldr	r4, [pc, #40]	; (b9054 <_ZN5spark10LogManager8instanceEv+0x2c>)
   b902c:	7823      	ldrb	r3, [r4, #0]
   b902e:	f3bf 8f5b 	dmb	ish
   b9032:	07db      	lsls	r3, r3, #31
   b9034:	d40c      	bmi.n	b9050 <_ZN5spark10LogManager8instanceEv+0x28>
   b9036:	4620      	mov	r0, r4
   b9038:	f7fb f840 	bl	b40bc <__cxa_guard_acquire>
   b903c:	b140      	cbz	r0, b9050 <_ZN5spark10LogManager8instanceEv+0x28>
   b903e:	4806      	ldr	r0, [pc, #24]	; (b9058 <_ZN5spark10LogManager8instanceEv+0x30>)
   b9040:	f7ff ffdc 	bl	b8ffc <_ZN5spark10LogManagerC1Ev>
   b9044:	4620      	mov	r0, r4
   b9046:	f7fb f83e 	bl	b40c6 <__cxa_guard_release>
   b904a:	4804      	ldr	r0, [pc, #16]	; (b905c <_ZN5spark10LogManager8instanceEv+0x34>)
   b904c:	f003 f9b0 	bl	bc3b0 <atexit>
    return &mgr;
}
   b9050:	4801      	ldr	r0, [pc, #4]	; (b9058 <_ZN5spark10LogManager8instanceEv+0x30>)
   b9052:	bd10      	pop	{r4, pc}
   b9054:	2003e6a0 	.word	0x2003e6a0
   b9058:	2003e6b0 	.word	0x2003e6b0
   b905c:	000b957d 	.word	0x000b957d

000b9060 <_ZN5spark10LogManager18setSystemCallbacksEv>:
}

#endif // Wiring_LogConfig

void spark::LogManager::setSystemCallbacks() {
    log_set_callbacks(logMessage, logWrite, logEnabled, nullptr);
   b9060:	4a02      	ldr	r2, [pc, #8]	; (b906c <_ZN5spark10LogManager18setSystemCallbacksEv+0xc>)
   b9062:	4903      	ldr	r1, [pc, #12]	; (b9070 <_ZN5spark10LogManager18setSystemCallbacksEv+0x10>)
   b9064:	4803      	ldr	r0, [pc, #12]	; (b9074 <_ZN5spark10LogManager18setSystemCallbacksEv+0x14>)
   b9066:	2300      	movs	r3, #0
   b9068:	f7fe be8e 	b.w	b7d88 <log_set_callbacks>
   b906c:	000b9361 	.word	0x000b9361
   b9070:	000b92ed 	.word	0x000b92ed
   b9074:	000b926d 	.word	0x000b926d

000b9078 <_ZN5spark10LogManager20resetSystemCallbacksEv>:
}

void spark::LogManager::resetSystemCallbacks() {
    log_set_callbacks(nullptr, nullptr, nullptr, nullptr);
   b9078:	2300      	movs	r3, #0
   b907a:	461a      	mov	r2, r3
   b907c:	4619      	mov	r1, r3
   b907e:	4618      	mov	r0, r3
   b9080:	f7fe be82 	b.w	b7d88 <log_set_callbacks>

000b9084 <_ZN5spark18JSONObjectIteratorC1ERKNS_9JSONValueE>:
inline spark::JSONObjectIterator::JSONObjectIterator(const JSONValue &value) :
   b9084:	b537      	push	{r0, r1, r2, r4, r5, lr}
        JSONObjectIterator(value.t_, value.d_) {
   b9086:	688d      	ldr	r5, [r1, #8]
inline spark::JSONObjectIterator::JSONObjectIterator(const JSONValue &value) :
   b9088:	4604      	mov	r4, r0
      shared_ptr(const shared_ptr&) noexcept = default; ///< Copy constructor
   b908a:	4668      	mov	r0, sp
   b908c:	f7ff fec8 	bl	b8e20 <_ZNSt12__shared_ptrIN5spark6detail8JSONDataELN9__gnu_cxx12_Lock_policyE0EEC1ERKS5_>
        JSONObjectIterator(value.t_, value.d_) {
   b9090:	466a      	mov	r2, sp
   b9092:	4629      	mov	r1, r5
   b9094:	4620      	mov	r0, r4
   b9096:	f7ff fd7b 	bl	b8b90 <_ZN5spark18JSONObjectIteratorC1EPK9jsmntok_tSt10shared_ptrINS_6detail8JSONDataEE>
      ~__shared_ptr() = default;
   b909a:	a801      	add	r0, sp, #4
   b909c:	f7ff f8ef 	bl	b827e <_ZNSt14__shared_countILN9__gnu_cxx12_Lock_policyE0EED1Ev>
}
   b90a0:	4620      	mov	r0, r4
   b90a2:	b003      	add	sp, #12
   b90a4:	bd30      	pop	{r4, r5, pc}

000b90a6 <_ZNK5spark18JSONObjectIterator4nameEv>:
inline spark::JSONString spark::JSONObjectIterator::name() const {
   b90a6:	b537      	push	{r0, r1, r2, r4, r5, lr}
    return JSONString(k_, d_);
   b90a8:	68cd      	ldr	r5, [r1, #12]
inline spark::JSONString spark::JSONObjectIterator::name() const {
   b90aa:	4604      	mov	r4, r0
   b90ac:	4668      	mov	r0, sp
   b90ae:	f7ff feb7 	bl	b8e20 <_ZNSt12__shared_ptrIN5spark6detail8JSONDataELN9__gnu_cxx12_Lock_policyE0EEC1ERKS5_>
    return JSONString(k_, d_);
   b90b2:	466a      	mov	r2, sp
   b90b4:	4629      	mov	r1, r5
   b90b6:	4620      	mov	r0, r4
   b90b8:	f7ff fd46 	bl	b8b48 <_ZN5spark10JSONStringC1EPK9jsmntok_tSt10shared_ptrINS_6detail8JSONDataEE>
   b90bc:	a801      	add	r0, sp, #4
   b90be:	f7ff f8de 	bl	b827e <_ZNSt14__shared_countILN9__gnu_cxx12_Lock_policyE0EED1Ev>
}
   b90c2:	4620      	mov	r0, r4
   b90c4:	b003      	add	sp, #12
   b90c6:	bd30      	pop	{r4, r5, pc}

000b90c8 <_ZNK5spark18JSONObjectIterator5valueEv>:
inline spark::JSONValue spark::JSONObjectIterator::value() const {
   b90c8:	b537      	push	{r0, r1, r2, r4, r5, lr}
    return JSONValue(v_, d_);
   b90ca:	690d      	ldr	r5, [r1, #16]
inline spark::JSONValue spark::JSONObjectIterator::value() const {
   b90cc:	4604      	mov	r4, r0
   b90ce:	4668      	mov	r0, sp
   b90d0:	f7ff fea6 	bl	b8e20 <_ZNSt12__shared_ptrIN5spark6detail8JSONDataELN9__gnu_cxx12_Lock_policyE0EEC1ERKS5_>
    return JSONValue(v_, d_);
   b90d4:	466a      	mov	r2, sp
   b90d6:	4629      	mov	r1, r5
   b90d8:	4620      	mov	r0, r4
   b90da:	f7ff fcde 	bl	b8a9a <_ZN5spark9JSONValueC1EPK9jsmntok_tSt10shared_ptrINS_6detail8JSONDataEE>
   b90de:	a801      	add	r0, sp, #4
   b90e0:	f7ff f8cd 	bl	b827e <_ZNSt14__shared_countILN9__gnu_cxx12_Lock_policyE0EED1Ev>
}
   b90e4:	4620      	mov	r0, r4
   b90e6:	b003      	add	sp, #12
   b90e8:	bd30      	pop	{r4, r5, pc}
	...

000b90ec <_ZN5spark26DefaultOutputStreamFactory9getParamsERKNS_9JSONValueEPi>:
void spark::DefaultOutputStreamFactory::getParams(const JSONValue &params, int *baudRate) {
   b90ec:	b570      	push	{r4, r5, r6, lr}
   b90ee:	b08a      	sub	sp, #40	; 0x28
   b90f0:	460d      	mov	r5, r1
    JSONObjectIterator it(params);
   b90f2:	4601      	mov	r1, r0
   b90f4:	a804      	add	r0, sp, #16
   b90f6:	f7ff ffc5 	bl	b9084 <_ZN5spark18JSONObjectIteratorC1ERKNS_9JSONValueE>
        if (it.name() == "baud" && baudRate) {
   b90fa:	4e14      	ldr	r6, [pc, #80]	; (b914c <_ZN5spark26DefaultOutputStreamFactory9getParamsERKNS_9JSONValueEPi+0x60>)
    while (it.next()) {
   b90fc:	a804      	add	r0, sp, #16
   b90fe:	f7ff fd5f 	bl	b8bc0 <_ZN5spark18JSONObjectIterator4nextEv>
   b9102:	b1e8      	cbz	r0, b9140 <_ZN5spark26DefaultOutputStreamFactory9getParamsERKNS_9JSONValueEPi+0x54>
        if (it.name() == "baud" && baudRate) {
   b9104:	a904      	add	r1, sp, #16
   b9106:	4668      	mov	r0, sp
   b9108:	f7ff ffcd 	bl	b90a6 <_ZNK5spark18JSONObjectIterator4nameEv>
   b910c:	9802      	ldr	r0, [sp, #8]
   b910e:	4631      	mov	r1, r6
   b9110:	f7ff fe66 	bl	b8de0 <_ZNK5spark10JSONStringeqEPKc.isra.0>
   b9114:	4604      	mov	r4, r0
   b9116:	b110      	cbz	r0, b911e <_ZN5spark26DefaultOutputStreamFactory9getParamsERKNS_9JSONValueEPi+0x32>
   b9118:	1e2c      	subs	r4, r5, #0
   b911a:	bf18      	it	ne
   b911c:	2401      	movne	r4, #1
   b911e:	a801      	add	r0, sp, #4
   b9120:	f7ff f8ad 	bl	b827e <_ZNSt14__shared_countILN9__gnu_cxx12_Lock_policyE0EED1Ev>
   b9124:	2c00      	cmp	r4, #0
   b9126:	d0e9      	beq.n	b90fc <_ZN5spark26DefaultOutputStreamFactory9getParamsERKNS_9JSONValueEPi+0x10>
            *baudRate = it.value().toInt();
   b9128:	a904      	add	r1, sp, #16
   b912a:	4668      	mov	r0, sp
   b912c:	f7ff ffcc 	bl	b90c8 <_ZNK5spark18JSONObjectIterator5valueEv>
   b9130:	4668      	mov	r0, sp
   b9132:	f7ff fce8 	bl	b8b06 <_ZNK5spark9JSONValue5toIntEv>
   b9136:	6028      	str	r0, [r5, #0]
   b9138:	a801      	add	r0, sp, #4
   b913a:	f7ff f8a0 	bl	b827e <_ZNSt14__shared_countILN9__gnu_cxx12_Lock_policyE0EED1Ev>
   b913e:	e7dd      	b.n	b90fc <_ZN5spark26DefaultOutputStreamFactory9getParamsERKNS_9JSONValueEPi+0x10>
   b9140:	a805      	add	r0, sp, #20
   b9142:	f7ff f89c 	bl	b827e <_ZNSt14__shared_countILN9__gnu_cxx12_Lock_policyE0EED1Ev>
}
   b9146:	b00a      	add	sp, #40	; 0x28
   b9148:	bd70      	pop	{r4, r5, r6, pc}
   b914a:	bf00      	nop
   b914c:	000bcd6d 	.word	0x000bcd6d

000b9150 <_ZN5spark26DefaultOutputStreamFactory12createStreamEPKcRKNS_9JSONValueE>:
Print* spark::DefaultOutputStreamFactory::createStream(const char *type, const JSONValue &params) {
   b9150:	b537      	push	{r0, r1, r2, r4, r5, lr}
   b9152:	460c      	mov	r4, r1
    if (strcmp(type, "Serial") == 0) {
   b9154:	4620      	mov	r0, r4
   b9156:	4913      	ldr	r1, [pc, #76]	; (b91a4 <_ZN5spark26DefaultOutputStreamFactory12createStreamEPKcRKNS_9JSONValueE+0x54>)
Print* spark::DefaultOutputStreamFactory::createStream(const char *type, const JSONValue &params) {
   b9158:	4615      	mov	r5, r2
    if (strcmp(type, "Serial") == 0) {
   b915a:	f003 f9fa 	bl	bc552 <strcmp>
   b915e:	b950      	cbnz	r0, b9176 <_ZN5spark26DefaultOutputStreamFactory12createStreamEPKcRKNS_9JSONValueE+0x26>
        Serial.begin();
   b9160:	f001 fbb2 	bl	ba8c8 <_Z16_fetch_usbserialv>
   b9164:	f44f 5116 	mov.w	r1, #9600	; 0x2580
   b9168:	f001 fb9e 	bl	ba8a8 <_ZN9USBSerial5beginEl>
}
   b916c:	b003      	add	sp, #12
   b916e:	e8bd 4030 	ldmia.w	sp!, {r4, r5, lr}
        return &Serial;
   b9172:	f001 bba9 	b.w	ba8c8 <_Z16_fetch_usbserialv>
    if (strcmp(type, "Serial1") == 0) {
   b9176:	490c      	ldr	r1, [pc, #48]	; (b91a8 <_ZN5spark26DefaultOutputStreamFactory12createStreamEPKcRKNS_9JSONValueE+0x58>)
   b9178:	4620      	mov	r0, r4
   b917a:	f003 f9ea 	bl	bc552 <strcmp>
   b917e:	b978      	cbnz	r0, b91a0 <_ZN5spark26DefaultOutputStreamFactory12createStreamEPKcRKNS_9JSONValueE+0x50>
        int baud = 9600;
   b9180:	f44f 5316 	mov.w	r3, #9600	; 0x2580
        getParams(params, &baud);
   b9184:	a901      	add	r1, sp, #4
   b9186:	4628      	mov	r0, r5
        int baud = 9600;
   b9188:	9301      	str	r3, [sp, #4]
        getParams(params, &baud);
   b918a:	f7ff ffaf 	bl	b90ec <_ZN5spark26DefaultOutputStreamFactory9getParamsERKNS_9JSONValueEPi>
        Serial1.begin(baud);
   b918e:	f001 fda7 	bl	bace0 <_Z22__fetch_global_Serial1v>
   b9192:	9901      	ldr	r1, [sp, #4]
   b9194:	f001 fb30 	bl	ba7f8 <_ZN11USARTSerial5beginEm>
        return &Serial1;
   b9198:	f001 fda2 	bl	bace0 <_Z22__fetch_global_Serial1v>
}
   b919c:	b003      	add	sp, #12
   b919e:	bd30      	pop	{r4, r5, pc}
    return nullptr;
   b91a0:	2000      	movs	r0, #0
   b91a2:	e7fb      	b.n	b919c <_ZN5spark26DefaultOutputStreamFactory12createStreamEPKcRKNS_9JSONValueE+0x4c>
   b91a4:	000bcd72 	.word	0x000bcd72
   b91a8:	000bcd79 	.word	0x000bcd79

000b91ac <_ZN5spark6VectorINS_6detail9LogFilter4NodeENS_16DefaultAllocatorEED1Ev>:
inline spark::Vector<T, AllocatorT>::~Vector() {
   b91ac:	b570      	push	{r4, r5, r6, lr}
    destruct(data_, data_ + size_);
   b91ae:	e9d0 5300 	ldrd	r5, r3, [r0]
   b91b2:	2614      	movs	r6, #20
inline spark::Vector<T, AllocatorT>::~Vector() {
   b91b4:	4604      	mov	r4, r0
    destruct(data_, data_ + size_);
   b91b6:	fb06 5603 	mla	r6, r6, r3, r5
        for (; p != end; ++p) {
   b91ba:	42ae      	cmp	r6, r5
   b91bc:	d005      	beq.n	b91ca <_ZN5spark6VectorINS_6detail9LogFilter4NodeENS_16DefaultAllocatorEED1Ev+0x1e>
struct spark::detail::LogFilter::Node {
   b91be:	f105 0008 	add.w	r0, r5, #8
   b91c2:	f7ff fff3 	bl	b91ac <_ZN5spark6VectorINS_6detail9LogFilter4NodeENS_16DefaultAllocatorEED1Ev>
   b91c6:	3514      	adds	r5, #20
   b91c8:	e7f7      	b.n	b91ba <_ZN5spark6VectorINS_6detail9LogFilter4NodeENS_16DefaultAllocatorEED1Ev+0xe>
    ::free(ptr);
   b91ca:	6820      	ldr	r0, [r4, #0]
   b91cc:	f7fe feb6 	bl	b7f3c <free>
}
   b91d0:	4620      	mov	r0, r4
   b91d2:	bd70      	pop	{r4, r5, r6, pc}

000b91d4 <_ZN5spark6detail9LogFilterD1Ev>:
spark::detail::LogFilter::~LogFilter() {
   b91d4:	b510      	push	{r4, lr}
   b91d6:	4604      	mov	r4, r0
   b91d8:	300c      	adds	r0, #12
   b91da:	f7ff ffe7 	bl	b91ac <_ZN5spark6VectorINS_6detail9LogFilter4NodeENS_16DefaultAllocatorEED1Ev>
   b91de:	4620      	mov	r0, r4
   b91e0:	f7ff f82a 	bl	b8238 <_ZN5spark6VectorI6StringNS_16DefaultAllocatorEED1Ev>
}
   b91e4:	4620      	mov	r0, r4
   b91e6:	bd10      	pop	{r4, pc}

000b91e8 <_ZN5spark16StreamLogHandlerD1Ev>:
class StreamLogHandler: public LogHandler {
   b91e8:	b510      	push	{r4, lr}
    virtual ~LogHandler() = default;
   b91ea:	4b04      	ldr	r3, [pc, #16]	; (b91fc <_ZN5spark16StreamLogHandlerD1Ev+0x14>)
class StreamLogHandler: public LogHandler {
   b91ec:	4604      	mov	r4, r0
    virtual ~LogHandler() = default;
   b91ee:	f840 3b04 	str.w	r3, [r0], #4
   b91f2:	f7ff ffef 	bl	b91d4 <_ZN5spark6detail9LogFilterD1Ev>
class StreamLogHandler: public LogHandler {
   b91f6:	4620      	mov	r0, r4
   b91f8:	bd10      	pop	{r4, pc}
   b91fa:	bf00      	nop
   b91fc:	000bcbb0 	.word	0x000bcbb0

000b9200 <_ZN5spark16StreamLogHandlerD0Ev>:
   b9200:	b510      	push	{r4, lr}
   b9202:	4604      	mov	r4, r0
   b9204:	f7ff fff0 	bl	b91e8 <_ZN5spark16StreamLogHandlerD1Ev>
   b9208:	4620      	mov	r0, r4
   b920a:	2124      	movs	r1, #36	; 0x24
   b920c:	f7fa ff47 	bl	b409e <_ZdlPvj>
   b9210:	4620      	mov	r0, r4
   b9212:	bd10      	pop	{r4, pc}

000b9214 <_ZN5spark20JSONStreamLogHandlerD1Ev>:
class JSONStreamLogHandler: public StreamLogHandler {
   b9214:	b510      	push	{r4, lr}
   b9216:	4b03      	ldr	r3, [pc, #12]	; (b9224 <_ZN5spark20JSONStreamLogHandlerD1Ev+0x10>)
   b9218:	6003      	str	r3, [r0, #0]
   b921a:	4604      	mov	r4, r0
   b921c:	f7ff ffe4 	bl	b91e8 <_ZN5spark16StreamLogHandlerD1Ev>
   b9220:	4620      	mov	r0, r4
   b9222:	bd10      	pop	{r4, pc}
   b9224:	000bce14 	.word	0x000bce14

000b9228 <_ZN5spark20JSONStreamLogHandlerD0Ev>:
   b9228:	b510      	push	{r4, lr}
   b922a:	4604      	mov	r4, r0
   b922c:	f7ff fff2 	bl	b9214 <_ZN5spark20JSONStreamLogHandlerD1Ev>
   b9230:	4620      	mov	r0, r4
   b9232:	2124      	movs	r1, #36	; 0x24
   b9234:	f7fa ff33 	bl	b409e <_ZdlPvj>
   b9238:	4620      	mov	r0, r4
   b923a:	bd10      	pop	{r4, pc}

000b923c <_ZN5spark6VectorINS_17LogCategoryFilterENS_16DefaultAllocatorEEC1EOS3_>:
        capacity_(0) {
   b923c:	2200      	movs	r2, #0
   b923e:	e9c0 2200 	strd	r2, r2, [r0]
inline spark::Vector<T, AllocatorT>::Vector(Vector<T, AllocatorT>&& vector) : Vector() {
   b9242:	b510      	push	{r4, lr}
        capacity_(0) {
   b9244:	6082      	str	r2, [r0, #8]
      __a = _GLIBCXX_MOVE(__b);
   b9246:	680c      	ldr	r4, [r1, #0]
   b9248:	6004      	str	r4, [r0, #0]
   b924a:	684c      	ldr	r4, [r1, #4]
   b924c:	6044      	str	r4, [r0, #4]
   b924e:	688c      	ldr	r4, [r1, #8]
      __b = _GLIBCXX_MOVE(__tmp);
   b9250:	600a      	str	r2, [r1, #0]
   b9252:	604a      	str	r2, [r1, #4]
      __a = _GLIBCXX_MOVE(__b);
   b9254:	6084      	str	r4, [r0, #8]
      __b = _GLIBCXX_MOVE(__tmp);
   b9256:	608a      	str	r2, [r1, #8]
}
   b9258:	bd10      	pop	{r4, pc}

000b925a <_ZNSt10lock_guardI14RecursiveMutexED1Ev>:
      { _M_device.lock(); }

      lock_guard(mutex_type& __m, adopt_lock_t) noexcept : _M_device(__m)
      { } // calling thread owns mutex

      ~lock_guard()
   b925a:	b510      	push	{r4, lr}
    void unlock() { os_mutex_recursive_unlock(handle_); }
   b925c:	6803      	ldr	r3, [r0, #0]
   b925e:	4604      	mov	r4, r0
   b9260:	6818      	ldr	r0, [r3, #0]
   b9262:	f7fe fbc1 	bl	b79e8 <os_mutex_recursive_unlock>
      { _M_device.unlock(); }
   b9266:	4620      	mov	r0, r4
   b9268:	bd10      	pop	{r4, pc}
	...

000b926c <_ZN5spark10LogManager10logMessageEPKciS2_PK13LogAttributesPv>:
}

void spark::LogManager::logMessage(const char *msg, int level, const char *category, const LogAttributes *attr, void *reserved) {
   b926c:	e92d 4ff0 	stmdb	sp!, {r4, r5, r6, r7, r8, r9, sl, fp, lr}
   b9270:	b087      	sub	sp, #28
   b9272:	4680      	mov	r8, r0
   b9274:	9303      	str	r3, [sp, #12]
#endif /* nRF52840 */

#if defined(STM32F10X_MD) || defined(STM32F10X_HD) || defined(STM32F2XX) || defined(nRF52840)
static inline bool HAL_IsISR() 
{
	return (SCB->ICSR & SCB_ICSR_VECTACTIVE_Msk) != 0;
   b9276:	4b1c      	ldr	r3, [pc, #112]	; (b92e8 <_ZN5spark10LogManager10logMessageEPKciS2_PK13LogAttributesPv+0x7c>)
   b9278:	685b      	ldr	r3, [r3, #4]
   b927a:	f3c3 0308 	ubfx	r3, r3, #0, #9
   b927e:	4689      	mov	r9, r1
   b9280:	4616      	mov	r6, r2
#ifndef LOG_FROM_ISR
    if (HAL_IsISR()) {
   b9282:	b96b      	cbnz	r3, b92a0 <_ZN5spark10LogManager10logMessageEPKciS2_PK13LogAttributesPv+0x34>
        return;
    }
#endif
    LogManager *that = instance();
   b9284:	f7ff fed0 	bl	b9028 <_ZN5spark10LogManager8instanceEv>
   b9288:	4604      	mov	r4, r0
    LOG_WITH_LOCK(that->mutex_) {
   b928a:	f100 0324 	add.w	r3, r0, #36	; 0x24
      { _M_device.lock(); }
   b928e:	6a40      	ldr	r0, [r0, #36]	; 0x24
      explicit lock_guard(mutex_type& __m) : _M_device(__m)
   b9290:	9305      	str	r3, [sp, #20]
      { _M_device.lock(); }
   b9292:	f7ff fda3 	bl	b8ddc <_ZN14RecursiveMutex4lockEv.isra.0>
        // prevent re-entry
        if (that->isActive()) {
   b9296:	7b23      	ldrb	r3, [r4, #12]
   b9298:	b12b      	cbz	r3, b92a6 <_ZN5spark10LogManager10logMessageEPKciS2_PK13LogAttributesPv+0x3a>
    LOG_WITH_LOCK(that->mutex_) {
   b929a:	a805      	add	r0, sp, #20
   b929c:	f7ff ffdd 	bl	b925a <_ZNSt10lock_guardI14RecursiveMutexED1Ev>
        for (LogHandler *handler: that->activeHandlers_) {
            handler->message(msg, (LogLevel)level, category, *attr);
        }
        that->setActive(false);
    }
}
   b92a0:	b007      	add	sp, #28
   b92a2:	e8bd 8ff0 	ldmia.w	sp!, {r4, r5, r6, r7, r8, r9, sl, fp, pc}
inline bool spark::LogManager::isActive() const {
    return outputActive_;
}

inline void spark::LogManager::setActive(bool outputActive) {
    outputActive_ = outputActive;
   b92a6:	2301      	movs	r3, #1
   b92a8:	7323      	strb	r3, [r4, #12]
    return data_ + size_;
   b92aa:	e9d4 5300 	ldrd	r5, r3, [r4]
            handler->message(msg, (LogLevel)level, category, *attr);
   b92ae:	fa5f f989 	uxtb.w	r9, r9
   b92b2:	eb05 0a83 	add.w	sl, r5, r3, lsl #2
        for (LogHandler *handler: that->activeHandlers_) {
   b92b6:	45aa      	cmp	sl, r5
   b92b8:	d012      	beq.n	b92e0 <_ZN5spark10LogManager10logMessageEPKciS2_PK13LogAttributesPv+0x74>
   b92ba:	f855 7b04 	ldr.w	r7, [r5], #4
    if (level >= filter_.level(category)) {
   b92be:	4631      	mov	r1, r6
   b92c0:	1d38      	adds	r0, r7, #4
   b92c2:	f7ff fe3d 	bl	b8f40 <_ZNK5spark6detail9LogFilter5levelEPKc>
   b92c6:	4581      	cmp	r9, r0
   b92c8:	d3f5      	bcc.n	b92b6 <_ZN5spark10LogManager10logMessageEPKciS2_PK13LogAttributesPv+0x4a>
        logMessage(msg, level, category, attr);
   b92ca:	683b      	ldr	r3, [r7, #0]
   b92cc:	9a03      	ldr	r2, [sp, #12]
   b92ce:	9200      	str	r2, [sp, #0]
   b92d0:	f8d3 b008 	ldr.w	fp, [r3, #8]
   b92d4:	464a      	mov	r2, r9
   b92d6:	4633      	mov	r3, r6
   b92d8:	4641      	mov	r1, r8
   b92da:	4638      	mov	r0, r7
   b92dc:	47d8      	blx	fp
   b92de:	e7ea      	b.n	b92b6 <_ZN5spark10LogManager10logMessageEPKciS2_PK13LogAttributesPv+0x4a>
    outputActive_ = outputActive;
   b92e0:	2300      	movs	r3, #0
   b92e2:	7323      	strb	r3, [r4, #12]
   b92e4:	e7d9      	b.n	b929a <_ZN5spark10LogManager10logMessageEPKciS2_PK13LogAttributesPv+0x2e>
   b92e6:	bf00      	nop
   b92e8:	e000ed00 	.word	0xe000ed00

000b92ec <_ZN5spark10LogManager8logWriteEPKcjiS2_Pv>:
void spark::LogManager::logWrite(const char *data, size_t size, int level, const char *category, void *reserved) {
   b92ec:	e92d 4ff7 	stmdb	sp!, {r0, r1, r2, r4, r5, r6, r7, r8, r9, sl, fp, lr}
   b92f0:	469b      	mov	fp, r3
   b92f2:	4b1a      	ldr	r3, [pc, #104]	; (b935c <_ZN5spark10LogManager8logWriteEPKcjiS2_Pv+0x70>)
   b92f4:	685b      	ldr	r3, [r3, #4]
   b92f6:	f3c3 0308 	ubfx	r3, r3, #0, #9
   b92fa:	4680      	mov	r8, r0
   b92fc:	4689      	mov	r9, r1
   b92fe:	4616      	mov	r6, r2
    if (HAL_IsISR()) {
   b9300:	b96b      	cbnz	r3, b931e <_ZN5spark10LogManager8logWriteEPKcjiS2_Pv+0x32>
    LogManager *that = instance();
   b9302:	f7ff fe91 	bl	b9028 <_ZN5spark10LogManager8instanceEv>
   b9306:	4604      	mov	r4, r0
    LOG_WITH_LOCK(that->mutex_) {
   b9308:	f100 0324 	add.w	r3, r0, #36	; 0x24
   b930c:	6a40      	ldr	r0, [r0, #36]	; 0x24
      explicit lock_guard(mutex_type& __m) : _M_device(__m)
   b930e:	9301      	str	r3, [sp, #4]
      { _M_device.lock(); }
   b9310:	f7ff fd64 	bl	b8ddc <_ZN14RecursiveMutex4lockEv.isra.0>
        if (that->isActive()) {
   b9314:	7b23      	ldrb	r3, [r4, #12]
   b9316:	b12b      	cbz	r3, b9324 <_ZN5spark10LogManager8logWriteEPKcjiS2_Pv+0x38>
    LOG_WITH_LOCK(that->mutex_) {
   b9318:	a801      	add	r0, sp, #4
   b931a:	f7ff ff9e 	bl	b925a <_ZNSt10lock_guardI14RecursiveMutexED1Ev>
}
   b931e:	b003      	add	sp, #12
   b9320:	e8bd 8ff0 	ldmia.w	sp!, {r4, r5, r6, r7, r8, r9, sl, fp, pc}
    outputActive_ = outputActive;
   b9324:	2301      	movs	r3, #1
   b9326:	7323      	strb	r3, [r4, #12]
   b9328:	e9d4 5300 	ldrd	r5, r3, [r4]
    if (level >= filter_.level(category)) {
   b932c:	b2f6      	uxtb	r6, r6
   b932e:	eb05 0a83 	add.w	sl, r5, r3, lsl #2
        for (LogHandler *handler: that->activeHandlers_) {
   b9332:	4555      	cmp	r5, sl
   b9334:	d00e      	beq.n	b9354 <_ZN5spark10LogManager8logWriteEPKcjiS2_Pv+0x68>
   b9336:	f855 7b04 	ldr.w	r7, [r5], #4
   b933a:	4659      	mov	r1, fp
   b933c:	1d38      	adds	r0, r7, #4
   b933e:	f7ff fdff 	bl	b8f40 <_ZNK5spark6detail9LogFilter5levelEPKc>
   b9342:	4286      	cmp	r6, r0
   b9344:	d3f5      	bcc.n	b9332 <_ZN5spark10LogManager8logWriteEPKcjiS2_Pv+0x46>
        write(data, size);
   b9346:	683b      	ldr	r3, [r7, #0]
   b9348:	464a      	mov	r2, r9
   b934a:	68db      	ldr	r3, [r3, #12]
   b934c:	4641      	mov	r1, r8
   b934e:	4638      	mov	r0, r7
   b9350:	4798      	blx	r3
   b9352:	e7ee      	b.n	b9332 <_ZN5spark10LogManager8logWriteEPKcjiS2_Pv+0x46>
    outputActive_ = outputActive;
   b9354:	2300      	movs	r3, #0
   b9356:	7323      	strb	r3, [r4, #12]
   b9358:	e7de      	b.n	b9318 <_ZN5spark10LogManager8logWriteEPKcjiS2_Pv+0x2c>
   b935a:	bf00      	nop
   b935c:	e000ed00 	.word	0xe000ed00

000b9360 <_ZN5spark10LogManager10logEnabledEiPKcPv>:
int spark::LogManager::logEnabled(int level, const char *category, void *reserved) {
   b9360:	e92d 41f3 	stmdb	sp!, {r0, r1, r4, r5, r6, r7, r8, lr}
   b9364:	4b16      	ldr	r3, [pc, #88]	; (b93c0 <_ZN5spark10LogManager10logEnabledEiPKcPv+0x60>)
   b9366:	685b      	ldr	r3, [r3, #4]
   b9368:	f3c3 0308 	ubfx	r3, r3, #0, #9
   b936c:	4605      	mov	r5, r0
   b936e:	460f      	mov	r7, r1
    if (HAL_IsISR()) {
   b9370:	bb1b      	cbnz	r3, b93ba <_ZN5spark10LogManager10logEnabledEiPKcPv+0x5a>
    LogManager *that = instance();
   b9372:	f7ff fe59 	bl	b9028 <_ZN5spark10LogManager8instanceEv>
    LOG_WITH_LOCK(that->mutex_) {
   b9376:	f100 0324 	add.w	r3, r0, #36	; 0x24
    LogManager *that = instance();
   b937a:	4604      	mov	r4, r0
   b937c:	6a40      	ldr	r0, [r0, #36]	; 0x24
      explicit lock_guard(mutex_type& __m) : _M_device(__m)
   b937e:	9301      	str	r3, [sp, #4]
      { _M_device.lock(); }
   b9380:	f7ff fd2c 	bl	b8ddc <_ZN14RecursiveMutex4lockEv.isra.0>
   b9384:	e9d4 6300 	ldrd	r6, r3, [r4]
    int minLevel = LOG_LEVEL_NONE;
   b9388:	2446      	movs	r4, #70	; 0x46
   b938a:	eb06 0883 	add.w	r8, r6, r3, lsl #2
        for (LogHandler *handler: that->activeHandlers_) {
   b938e:	45b0      	cmp	r8, r6
   b9390:	d109      	bne.n	b93a6 <_ZN5spark10LogManager10logEnabledEiPKcPv+0x46>
    LOG_WITH_LOCK(that->mutex_) {
   b9392:	a801      	add	r0, sp, #4
   b9394:	f7ff ff61 	bl	b925a <_ZNSt10lock_guardI14RecursiveMutexED1Ev>
    return (level >= minLevel);
   b9398:	42a5      	cmp	r5, r4
   b939a:	bfb4      	ite	lt
   b939c:	2000      	movlt	r0, #0
   b939e:	2001      	movge	r0, #1
}
   b93a0:	b002      	add	sp, #8
   b93a2:	e8bd 81f0 	ldmia.w	sp!, {r4, r5, r6, r7, r8, pc}
    return filter_.level(category);
   b93a6:	f856 0b04 	ldr.w	r0, [r6], #4
   b93aa:	4639      	mov	r1, r7
   b93ac:	3004      	adds	r0, #4
   b93ae:	f7ff fdc7 	bl	b8f40 <_ZNK5spark6detail9LogFilter5levelEPKc>
            if (level < minLevel) {
   b93b2:	4284      	cmp	r4, r0
   b93b4:	bfa8      	it	ge
   b93b6:	4604      	movge	r4, r0
        for (LogHandler *handler: that->activeHandlers_) {
   b93b8:	e7e9      	b.n	b938e <_ZN5spark10LogManager10logEnabledEiPKcPv+0x2e>
        return 0;
   b93ba:	2000      	movs	r0, #0
   b93bc:	e7f0      	b.n	b93a0 <_ZN5spark10LogManager10logEnabledEiPKcPv+0x40>
   b93be:	bf00      	nop
   b93c0:	e000ed00 	.word	0xe000ed00

000b93c4 <_ZN5spark6VectorIPNS_10LogHandlerENS_16DefaultAllocatorEE6appendES2_>:
inline bool spark::Vector<T, AllocatorT>::append(T value) {
   b93c4:	b5f8      	push	{r3, r4, r5, r6, r7, lr}
    if (size_ + 1 > capacity_ && !realloc(size_ + 1)) {
   b93c6:	e9d0 5301 	ldrd	r5, r3, [r0, #4]
   b93ca:	429d      	cmp	r5, r3
inline bool spark::Vector<T, AllocatorT>::append(T value) {
   b93cc:	4604      	mov	r4, r0
   b93ce:	460e      	mov	r6, r1
    if (size_ + 1 > capacity_ && !realloc(size_ + 1)) {
   b93d0:	db0d      	blt.n	b93ee <_ZN5spark6VectorIPNS_10LogHandlerENS_16DefaultAllocatorEE6appendES2_+0x2a>
   b93d2:	1c6f      	adds	r7, r5, #1
        if (n > 0) {
   b93d4:	2f00      	cmp	r7, #0
            d = (T*)AllocatorT::realloc(data_, n * sizeof(T));
   b93d6:	6800      	ldr	r0, [r0, #0]
        if (n > 0) {
   b93d8:	dd04      	ble.n	b93e4 <_ZN5spark6VectorIPNS_10LogHandlerENS_16DefaultAllocatorEE6appendES2_+0x20>
    return ::realloc(ptr, size);
   b93da:	00b9      	lsls	r1, r7, #2
   b93dc:	f7fe fdb6 	bl	b7f4c <realloc>
            if (!d) {
   b93e0:	b918      	cbnz	r0, b93ea <_ZN5spark6VectorIPNS_10LogHandlerENS_16DefaultAllocatorEE6appendES2_+0x26>
}
   b93e2:	bdf8      	pop	{r3, r4, r5, r6, r7, pc}
    ::free(ptr);
   b93e4:	f7fe fdaa 	bl	b7f3c <free>
        T* d = nullptr;
   b93e8:	2000      	movs	r0, #0
        data_ = d;
   b93ea:	6020      	str	r0, [r4, #0]
        capacity_ = n;
   b93ec:	60a7      	str	r7, [r4, #8]
    T* const p = data_ + i;
   b93ee:	6827      	ldr	r7, [r4, #0]
    move(p + 1, p, data_ + size_);
   b93f0:	6862      	ldr	r2, [r4, #4]
    T* const p = data_ + i;
   b93f2:	eb07 0185 	add.w	r1, r7, r5, lsl #2
    move(p + 1, p, data_ + size_);
   b93f6:	0092      	lsls	r2, r2, #2
        ::memmove(dest, p, (end - p) * sizeof(T));
   b93f8:	eba2 0285 	sub.w	r2, r2, r5, lsl #2
   b93fc:	1d08      	adds	r0, r1, #4
   b93fe:	f003 f803 	bl	bc408 <memmove>
    new(p) T(std::move(value));
   b9402:	f847 6025 	str.w	r6, [r7, r5, lsl #2]
    ++size_;
   b9406:	6863      	ldr	r3, [r4, #4]
   b9408:	3301      	adds	r3, #1
   b940a:	6063      	str	r3, [r4, #4]
    return true;
   b940c:	2001      	movs	r0, #1
   b940e:	e7e8      	b.n	b93e2 <_ZN5spark6VectorIPNS_10LogHandlerENS_16DefaultAllocatorEE6appendES2_+0x1e>

000b9410 <_ZN5spark10LogManager10addHandlerEPNS_10LogHandlerE>:
bool spark::LogManager::addHandler(LogHandler *handler) {
   b9410:	b537      	push	{r0, r1, r2, r4, r5, lr}
    LOG_WITH_LOCK(mutex_) {
   b9412:	f100 0324 	add.w	r3, r0, #36	; 0x24
bool spark::LogManager::addHandler(LogHandler *handler) {
   b9416:	4604      	mov	r4, r0
   b9418:	6a40      	ldr	r0, [r0, #36]	; 0x24
      explicit lock_guard(mutex_type& __m) : _M_device(__m)
   b941a:	9301      	str	r3, [sp, #4]
   b941c:	460d      	mov	r5, r1
      { _M_device.lock(); }
   b941e:	f7ff fcdd 	bl	b8ddc <_ZN14RecursiveMutex4lockEv.isra.0>
    return find(data_, data_ + size_, value);
   b9422:	e9d4 3200 	ldrd	r3, r2, [r4]
   b9426:	eb03 0282 	add.w	r2, r3, r2, lsl #2
        for (; p != end; ++p) {
   b942a:	4293      	cmp	r3, r2
   b942c:	4619      	mov	r1, r3
   b942e:	d00b      	beq.n	b9448 <_ZN5spark10LogManager10addHandlerEPNS_10LogHandlerE+0x38>
            if (*p == value) {
   b9430:	6809      	ldr	r1, [r1, #0]
   b9432:	42a9      	cmp	r1, r5
   b9434:	f103 0304 	add.w	r3, r3, #4
   b9438:	d1f7      	bne.n	b942a <_ZN5spark10LogManager10addHandlerEPNS_10LogHandlerE+0x1a>
            return false;
   b943a:	a801      	add	r0, sp, #4
   b943c:	f7ff ff0d 	bl	b925a <_ZNSt10lock_guardI14RecursiveMutexED1Ev>
   b9440:	2500      	movs	r5, #0
}
   b9442:	4628      	mov	r0, r5
   b9444:	b003      	add	sp, #12
   b9446:	bd30      	pop	{r4, r5, pc}
        if (activeHandlers_.contains(handler) || !activeHandlers_.append(handler)) {
   b9448:	4629      	mov	r1, r5
   b944a:	4620      	mov	r0, r4
   b944c:	f7ff ffba 	bl	b93c4 <_ZN5spark6VectorIPNS_10LogHandlerENS_16DefaultAllocatorEE6appendES2_>
   b9450:	4605      	mov	r5, r0
   b9452:	2800      	cmp	r0, #0
   b9454:	d0f1      	beq.n	b943a <_ZN5spark10LogManager10addHandlerEPNS_10LogHandlerE+0x2a>
        if (activeHandlers_.size() == 1) {
   b9456:	6863      	ldr	r3, [r4, #4]
   b9458:	2b01      	cmp	r3, #1
   b945a:	d101      	bne.n	b9460 <_ZN5spark10LogManager10addHandlerEPNS_10LogHandlerE+0x50>
            setSystemCallbacks();
   b945c:	f7ff fe00 	bl	b9060 <_ZN5spark10LogManager18setSystemCallbacksEv>
    LOG_WITH_LOCK(mutex_) {
   b9460:	a801      	add	r0, sp, #4
   b9462:	f7ff fefa 	bl	b925a <_ZNSt10lock_guardI14RecursiveMutexED1Ev>
   b9466:	e7ec      	b.n	b9442 <_ZN5spark10LogManager10addHandlerEPNS_10LogHandlerE+0x32>

000b9468 <_ZN5spark6VectorIPNS_10LogHandlerENS_16DefaultAllocatorEE9removeOneERKS2_>:
inline bool spark::Vector<T, AllocatorT>::removeOne(const T &value) {
   b9468:	b570      	push	{r4, r5, r6, lr}
   b946a:	4604      	mov	r4, r0
    T* const p = find(data_, data_ + size_, value);
   b946c:	e9d0 0200 	ldrd	r0, r2, [r0]
inline bool spark::Vector<T, AllocatorT>::removeOne(const T &value) {
   b9470:	460b      	mov	r3, r1
    T* const p = find(data_, data_ + size_, value);
   b9472:	eb00 0282 	add.w	r2, r0, r2, lsl #2
        for (; p != end; ++p) {
   b9476:	4282      	cmp	r2, r0
   b9478:	d00f      	beq.n	b949a <_ZN5spark6VectorIPNS_10LogHandlerENS_16DefaultAllocatorEE9removeOneERKS2_+0x32>
    move(p, p + 1, data_ + size_);
   b947a:	4601      	mov	r1, r0
            if (*p == value) {
   b947c:	681d      	ldr	r5, [r3, #0]
   b947e:	f851 6b04 	ldr.w	r6, [r1], #4
   b9482:	42ae      	cmp	r6, r5
   b9484:	d107      	bne.n	b9496 <_ZN5spark6VectorIPNS_10LogHandlerENS_16DefaultAllocatorEE9removeOneERKS2_+0x2e>
        ::memmove(dest, p, (end - p) * sizeof(T));
   b9486:	1a52      	subs	r2, r2, r1
   b9488:	f002 ffbe 	bl	bc408 <memmove>
    --size_;
   b948c:	6863      	ldr	r3, [r4, #4]
   b948e:	3b01      	subs	r3, #1
   b9490:	6063      	str	r3, [r4, #4]
    return true;
   b9492:	2001      	movs	r0, #1
}
   b9494:	bd70      	pop	{r4, r5, r6, pc}
    move(p, p + 1, data_ + size_);
   b9496:	4608      	mov	r0, r1
   b9498:	e7ed      	b.n	b9476 <_ZN5spark6VectorIPNS_10LogHandlerENS_16DefaultAllocatorEE9removeOneERKS2_+0xe>
        return false;
   b949a:	2000      	movs	r0, #0
   b949c:	e7fa      	b.n	b9494 <_ZN5spark6VectorIPNS_10LogHandlerENS_16DefaultAllocatorEE9removeOneERKS2_+0x2c>

000b949e <_ZN5spark10LogManager13removeHandlerEPNS_10LogHandlerE>:
void spark::LogManager::removeHandler(LogHandler *handler) {
   b949e:	b51f      	push	{r0, r1, r2, r3, r4, lr}
    LOG_WITH_LOCK(mutex_) {
   b94a0:	f100 0324 	add.w	r3, r0, #36	; 0x24
void spark::LogManager::removeHandler(LogHandler *handler) {
   b94a4:	4604      	mov	r4, r0
   b94a6:	6a40      	ldr	r0, [r0, #36]	; 0x24
   b94a8:	9101      	str	r1, [sp, #4]
      explicit lock_guard(mutex_type& __m) : _M_device(__m)
   b94aa:	9303      	str	r3, [sp, #12]
      { _M_device.lock(); }
   b94ac:	f7ff fc96 	bl	b8ddc <_ZN14RecursiveMutex4lockEv.isra.0>
        if (activeHandlers_.removeOne(handler) && activeHandlers_.isEmpty()) {
   b94b0:	a901      	add	r1, sp, #4
   b94b2:	4620      	mov	r0, r4
   b94b4:	f7ff ffd8 	bl	b9468 <_ZN5spark6VectorIPNS_10LogHandlerENS_16DefaultAllocatorEE9removeOneERKS2_>
   b94b8:	b118      	cbz	r0, b94c2 <_ZN5spark10LogManager13removeHandlerEPNS_10LogHandlerE+0x24>
   b94ba:	6863      	ldr	r3, [r4, #4]
   b94bc:	b90b      	cbnz	r3, b94c2 <_ZN5spark10LogManager13removeHandlerEPNS_10LogHandlerE+0x24>
            resetSystemCallbacks();
   b94be:	f7ff fddb 	bl	b9078 <_ZN5spark10LogManager20resetSystemCallbacksEv>
    LOG_WITH_LOCK(mutex_) {
   b94c2:	a803      	add	r0, sp, #12
   b94c4:	f7ff fec9 	bl	b925a <_ZNSt10lock_guardI14RecursiveMutexED1Ev>
}
   b94c8:	b004      	add	sp, #16
   b94ca:	bd10      	pop	{r4, pc}

000b94cc <_ZN5spark10LogManager22destroyFactoryHandlersEv>:
void spark::LogManager::destroyFactoryHandlers() {
   b94cc:	b570      	push	{r4, r5, r6, lr}
    return data_ + size_;
   b94ce:	e9d0 5604 	ldrd	r5, r6, [r0, #16]
   b94d2:	2318      	movs	r3, #24
   b94d4:	4604      	mov	r4, r0
   b94d6:	fb03 5606 	mla	r6, r3, r6, r5
    for (const FactoryHandler &h: factoryHandlers_) {
   b94da:	42ae      	cmp	r6, r5
   b94dc:	d015      	beq.n	b950a <_ZN5spark10LogManager22destroyFactoryHandlersEv+0x3e>
        activeHandlers_.removeOne(h.handler);
   b94de:	f105 0110 	add.w	r1, r5, #16
   b94e2:	4620      	mov	r0, r4
   b94e4:	f7ff ffc0 	bl	b9468 <_ZN5spark6VectorIPNS_10LogHandlerENS_16DefaultAllocatorEE9removeOneERKS2_>
        if (activeHandlers_.isEmpty()) {
   b94e8:	6863      	ldr	r3, [r4, #4]
   b94ea:	b90b      	cbnz	r3, b94f0 <_ZN5spark10LogManager22destroyFactoryHandlersEv+0x24>
            resetSystemCallbacks();
   b94ec:	f7ff fdc4 	bl	b9078 <_ZN5spark10LogManager20resetSystemCallbacksEv>
        handlerFactory_->destroyHandler(h.handler);
   b94f0:	69e0      	ldr	r0, [r4, #28]
   b94f2:	6929      	ldr	r1, [r5, #16]
   b94f4:	6803      	ldr	r3, [r0, #0]
   b94f6:	68db      	ldr	r3, [r3, #12]
   b94f8:	4798      	blx	r3
        if (h.stream) {
   b94fa:	6969      	ldr	r1, [r5, #20]
   b94fc:	b119      	cbz	r1, b9506 <_ZN5spark10LogManager22destroyFactoryHandlersEv+0x3a>
            streamFactory_->destroyStream(h.stream);
   b94fe:	6a20      	ldr	r0, [r4, #32]
   b9500:	6803      	ldr	r3, [r0, #0]
   b9502:	68db      	ldr	r3, [r3, #12]
   b9504:	4798      	blx	r3
    for (const FactoryHandler &h: factoryHandlers_) {
   b9506:	3518      	adds	r5, #24
   b9508:	e7e7      	b.n	b94da <_ZN5spark10LogManager22destroyFactoryHandlersEv+0xe>
    destruct(data_, data_ + size_);
   b950a:	e9d4 5304 	ldrd	r5, r3, [r4, #16]
   b950e:	2618      	movs	r6, #24
   b9510:	fb06 5603 	mla	r6, r6, r3, r5
        for (; p != end; ++p) {
   b9514:	42ae      	cmp	r6, r5
   b9516:	d004      	beq.n	b9522 <_ZN5spark10LogManager22destroyFactoryHandlersEv+0x56>
struct spark::LogManager::FactoryHandler {
   b9518:	4628      	mov	r0, r5
   b951a:	f000 feff 	bl	ba31c <_ZN6StringD1Ev>
   b951e:	3518      	adds	r5, #24
   b9520:	e7f8      	b.n	b9514 <_ZN5spark10LogManager22destroyFactoryHandlersEv+0x48>
    size_ = 0;
   b9522:	2300      	movs	r3, #0
   b9524:	6163      	str	r3, [r4, #20]
}
   b9526:	bd70      	pop	{r4, r5, r6, pc}

000b9528 <_ZN5spark10LogManagerD1Ev>:
spark::LogManager::~LogManager() {
   b9528:	b573      	push	{r0, r1, r4, r5, r6, lr}
   b952a:	4604      	mov	r4, r0
    resetSystemCallbacks();
   b952c:	f7ff fda4 	bl	b9078 <_ZN5spark10LogManager20resetSystemCallbacksEv>
    LOG_WITH_LOCK(mutex_) {
   b9530:	f104 0324 	add.w	r3, r4, #36	; 0x24
   b9534:	6a60      	ldr	r0, [r4, #36]	; 0x24
      explicit lock_guard(mutex_type& __m) : _M_device(__m)
   b9536:	9301      	str	r3, [sp, #4]
      { _M_device.lock(); }
   b9538:	f7ff fc50 	bl	b8ddc <_ZN14RecursiveMutex4lockEv.isra.0>
         destroyFactoryHandlers();
   b953c:	4620      	mov	r0, r4
   b953e:	f7ff ffc5 	bl	b94cc <_ZN5spark10LogManager22destroyFactoryHandlersEv>
    LOG_WITH_LOCK(mutex_) {
   b9542:	a801      	add	r0, sp, #4
   b9544:	f7ff fe89 	bl	b925a <_ZNSt10lock_guardI14RecursiveMutexED1Ev>
        if (handle_) {
   b9548:	6a60      	ldr	r0, [r4, #36]	; 0x24
   b954a:	b108      	cbz	r0, b9550 <_ZN5spark10LogManagerD1Ev+0x28>
            os_mutex_recursive_destroy(handle_);
   b954c:	f7fe fa3c 	bl	b79c8 <os_mutex_recursive_destroy>
    destruct(data_, data_ + size_);
   b9550:	e9d4 5304 	ldrd	r5, r3, [r4, #16]
   b9554:	2618      	movs	r6, #24
   b9556:	fb06 5603 	mla	r6, r6, r3, r5
        for (; p != end; ++p) {
   b955a:	42ae      	cmp	r6, r5
   b955c:	d004      	beq.n	b9568 <_ZN5spark10LogManagerD1Ev+0x40>
struct spark::LogManager::FactoryHandler {
   b955e:	4628      	mov	r0, r5
   b9560:	f000 fedc 	bl	ba31c <_ZN6StringD1Ev>
   b9564:	3518      	adds	r5, #24
   b9566:	e7f8      	b.n	b955a <_ZN5spark10LogManagerD1Ev+0x32>
    ::free(ptr);
   b9568:	6920      	ldr	r0, [r4, #16]
   b956a:	f7fe fce7 	bl	b7f3c <free>
   b956e:	6820      	ldr	r0, [r4, #0]
   b9570:	f7fe fce4 	bl	b7f3c <free>
}
   b9574:	4620      	mov	r0, r4
   b9576:	b002      	add	sp, #8
   b9578:	bd70      	pop	{r4, r5, r6, pc}
	...

000b957c <__tcf_2>:
    static LogManager mgr;
   b957c:	4801      	ldr	r0, [pc, #4]	; (b9584 <__tcf_2+0x8>)
   b957e:	f7ff bfd3 	b.w	b9528 <_ZN5spark10LogManagerD1Ev>
   b9582:	bf00      	nop
   b9584:	2003e6b0 	.word	0x2003e6b0

000b9588 <_ZN5spark6VectorINS_6detail9LogFilter4NodeENS_16DefaultAllocatorEE4moveIS3_Li0EEEvPS3_S7_S7_>:
        if (dest > p && dest < end) {
   b9588:	4288      	cmp	r0, r1
    static void move(T* dest, T* p, T* end) {
   b958a:	b5f8      	push	{r3, r4, r5, r6, r7, lr}
   b958c:	4604      	mov	r4, r0
   b958e:	460d      	mov	r5, r1
   b9590:	4616      	mov	r6, r2
        if (dest > p && dest < end) {
   b9592:	d915      	bls.n	b95c0 <_ZN5spark6VectorINS_6detail9LogFilter4NodeENS_16DefaultAllocatorEE4moveIS3_Li0EEEvPS3_S7_S7_+0x38>
   b9594:	4290      	cmp	r0, r2
   b9596:	d214      	bcs.n	b95c2 <_ZN5spark6VectorINS_6detail9LogFilter4NodeENS_16DefaultAllocatorEE4moveIS3_Li0EEEvPS3_S7_S7_+0x3a>
            --end;
   b9598:	f1a2 0614 	sub.w	r6, r2, #20
            dest += end - p - 1;
   b959c:	1a75      	subs	r5, r6, r1
   b959e:	f1a1 0714 	sub.w	r7, r1, #20
   b95a2:	442c      	add	r4, r5
            for (; end != p; --end, --dest) {
   b95a4:	42b7      	cmp	r7, r6
   b95a6:	d01a      	beq.n	b95de <_ZN5spark6VectorINS_6detail9LogFilter4NodeENS_16DefaultAllocatorEE4moveIS3_Li0EEEvPS3_S7_S7_+0x56>
                new(dest) T(std::move(*end));
   b95a8:	b11c      	cbz	r4, b95b2 <_ZN5spark6VectorINS_6detail9LogFilter4NodeENS_16DefaultAllocatorEE4moveIS3_Li0EEEvPS3_S7_S7_+0x2a>
   b95aa:	4631      	mov	r1, r6
   b95ac:	4620      	mov	r0, r4
   b95ae:	f7ff fc78 	bl	b8ea2 <_ZN5spark6detail9LogFilter4NodeC1EOS2_>
struct spark::detail::LogFilter::Node {
   b95b2:	f106 0008 	add.w	r0, r6, #8
   b95b6:	f7ff fdf9 	bl	b91ac <_ZN5spark6VectorINS_6detail9LogFilter4NodeENS_16DefaultAllocatorEED1Ev>
            for (; end != p; --end, --dest) {
   b95ba:	3e14      	subs	r6, #20
   b95bc:	3c14      	subs	r4, #20
   b95be:	e7f1      	b.n	b95a4 <_ZN5spark6VectorINS_6detail9LogFilter4NodeENS_16DefaultAllocatorEE4moveIS3_Li0EEEvPS3_S7_S7_+0x1c>
        } else if (dest != p) {
   b95c0:	d00d      	beq.n	b95de <_ZN5spark6VectorINS_6detail9LogFilter4NodeENS_16DefaultAllocatorEE4moveIS3_Li0EEEvPS3_S7_S7_+0x56>
            for (; p != end; ++p, ++dest) {
   b95c2:	42b5      	cmp	r5, r6
   b95c4:	d00b      	beq.n	b95de <_ZN5spark6VectorINS_6detail9LogFilter4NodeENS_16DefaultAllocatorEE4moveIS3_Li0EEEvPS3_S7_S7_+0x56>
                new(dest) T(std::move(*p));
   b95c6:	b11c      	cbz	r4, b95d0 <_ZN5spark6VectorINS_6detail9LogFilter4NodeENS_16DefaultAllocatorEE4moveIS3_Li0EEEvPS3_S7_S7_+0x48>
   b95c8:	4629      	mov	r1, r5
   b95ca:	4620      	mov	r0, r4
   b95cc:	f7ff fc69 	bl	b8ea2 <_ZN5spark6detail9LogFilter4NodeC1EOS2_>
   b95d0:	f105 0008 	add.w	r0, r5, #8
   b95d4:	f7ff fdea 	bl	b91ac <_ZN5spark6VectorINS_6detail9LogFilter4NodeENS_16DefaultAllocatorEED1Ev>
            for (; p != end; ++p, ++dest) {
   b95d8:	3514      	adds	r5, #20
   b95da:	3414      	adds	r4, #20
   b95dc:	e7f1      	b.n	b95c2 <_ZN5spark6VectorINS_6detail9LogFilter4NodeENS_16DefaultAllocatorEE4moveIS3_Li0EEEvPS3_S7_S7_+0x3a>
    }
   b95de:	bdf8      	pop	{r3, r4, r5, r6, r7, pc}

000b95e0 <_ZN5spark6VectorI6StringNS_16DefaultAllocatorEE4moveIS1_Li0EEEvPS1_S5_S5_>:
        if (dest > p && dest < end) {
   b95e0:	4288      	cmp	r0, r1
    static void move(T* dest, T* p, T* end) {
   b95e2:	b5f8      	push	{r3, r4, r5, r6, r7, lr}
   b95e4:	4604      	mov	r4, r0
   b95e6:	460d      	mov	r5, r1
   b95e8:	4616      	mov	r6, r2
        if (dest > p && dest < end) {
   b95ea:	d914      	bls.n	b9616 <_ZN5spark6VectorI6StringNS_16DefaultAllocatorEE4moveIS1_Li0EEEvPS1_S5_S5_+0x36>
   b95ec:	4290      	cmp	r0, r2
   b95ee:	d213      	bcs.n	b9618 <_ZN5spark6VectorI6StringNS_16DefaultAllocatorEE4moveIS1_Li0EEEvPS1_S5_S5_+0x38>
            --end;
   b95f0:	f1a2 0610 	sub.w	r6, r2, #16
            dest += end - p - 1;
   b95f4:	1a75      	subs	r5, r6, r1
   b95f6:	f1a1 0710 	sub.w	r7, r1, #16
   b95fa:	442c      	add	r4, r5
            for (; end != p; --end, --dest) {
   b95fc:	42b7      	cmp	r7, r6
   b95fe:	d018      	beq.n	b9632 <_ZN5spark6VectorI6StringNS_16DefaultAllocatorEE4moveIS1_Li0EEEvPS1_S5_S5_+0x52>
                new(dest) T(std::move(*end));
   b9600:	b11c      	cbz	r4, b960a <_ZN5spark6VectorI6StringNS_16DefaultAllocatorEE4moveIS1_Li0EEEvPS1_S5_S5_+0x2a>
   b9602:	4631      	mov	r1, r6
   b9604:	4620      	mov	r0, r4
   b9606:	f000 ff05 	bl	ba414 <_ZN6StringC1EOS_>
                end->~T();
   b960a:	4630      	mov	r0, r6
   b960c:	f000 fe86 	bl	ba31c <_ZN6StringD1Ev>
            for (; end != p; --end, --dest) {
   b9610:	3e10      	subs	r6, #16
   b9612:	3c10      	subs	r4, #16
   b9614:	e7f2      	b.n	b95fc <_ZN5spark6VectorI6StringNS_16DefaultAllocatorEE4moveIS1_Li0EEEvPS1_S5_S5_+0x1c>
        } else if (dest != p) {
   b9616:	d00c      	beq.n	b9632 <_ZN5spark6VectorI6StringNS_16DefaultAllocatorEE4moveIS1_Li0EEEvPS1_S5_S5_+0x52>
            for (; p != end; ++p, ++dest) {
   b9618:	42b5      	cmp	r5, r6
   b961a:	d00a      	beq.n	b9632 <_ZN5spark6VectorI6StringNS_16DefaultAllocatorEE4moveIS1_Li0EEEvPS1_S5_S5_+0x52>
                new(dest) T(std::move(*p));
   b961c:	b11c      	cbz	r4, b9626 <_ZN5spark6VectorI6StringNS_16DefaultAllocatorEE4moveIS1_Li0EEEvPS1_S5_S5_+0x46>
   b961e:	4629      	mov	r1, r5
   b9620:	4620      	mov	r0, r4
   b9622:	f000 fef7 	bl	ba414 <_ZN6StringC1EOS_>
                p->~T();
   b9626:	4628      	mov	r0, r5
   b9628:	f000 fe78 	bl	ba31c <_ZN6StringD1Ev>
            for (; p != end; ++p, ++dest) {
   b962c:	3510      	adds	r5, #16
   b962e:	3410      	adds	r4, #16
   b9630:	e7f2      	b.n	b9618 <_ZN5spark6VectorI6StringNS_16DefaultAllocatorEE4moveIS1_Li0EEEvPS1_S5_S5_+0x38>
    }
   b9632:	bdf8      	pop	{r3, r4, r5, r6, r7, pc}

000b9634 <_ZN5spark6VectorI6StringNS_16DefaultAllocatorEE7reallocIS1_Li0EEEbi>:
    bool realloc(int n) {
   b9634:	b570      	push	{r4, r5, r6, lr}
        if (n > 0) {
   b9636:	1e0e      	subs	r6, r1, #0
    bool realloc(int n) {
   b9638:	4605      	mov	r5, r0
        if (n > 0) {
   b963a:	dd11      	ble.n	b9660 <_ZN5spark6VectorI6StringNS_16DefaultAllocatorEE7reallocIS1_Li0EEEbi+0x2c>
    return ::malloc(size);
   b963c:	0130      	lsls	r0, r6, #4
   b963e:	f7fe fc75 	bl	b7f2c <malloc>
            if (!d) {
   b9642:	4604      	mov	r4, r0
   b9644:	b158      	cbz	r0, b965e <_ZN5spark6VectorI6StringNS_16DefaultAllocatorEE7reallocIS1_Li0EEEbi+0x2a>
            move(d, data_, data_ + size_);
   b9646:	e9d5 1200 	ldrd	r1, r2, [r5]
   b964a:	eb01 1202 	add.w	r2, r1, r2, lsl #4
   b964e:	f7ff ffc7 	bl	b95e0 <_ZN5spark6VectorI6StringNS_16DefaultAllocatorEE4moveIS1_Li0EEEvPS1_S5_S5_>
    ::free(ptr);
   b9652:	6828      	ldr	r0, [r5, #0]
   b9654:	f7fe fc72 	bl	b7f3c <free>
        data_ = d;
   b9658:	602c      	str	r4, [r5, #0]
        capacity_ = n;
   b965a:	60ae      	str	r6, [r5, #8]
        return true;
   b965c:	2001      	movs	r0, #1
    }
   b965e:	bd70      	pop	{r4, r5, r6, pc}
        T* d = nullptr;
   b9660:	2400      	movs	r4, #0
   b9662:	e7f6      	b.n	b9652 <_ZN5spark6VectorI6StringNS_16DefaultAllocatorEE7reallocIS1_Li0EEEbi+0x1e>

000b9664 <_ZN5spark6detail9LogFilterC1E8LogLevelNS_6VectorINS_17LogCategoryFilterENS_16DefaultAllocatorEEE>:
spark::detail::LogFilter::LogFilter(LogLevel level, LogCategoryFilters filters) :
   b9664:	e92d 4ff0 	stmdb	sp!, {r4, r5, r6, r7, r8, r9, sl, fp, lr}
   b9668:	4690      	mov	r8, r2
   b966a:	b095      	sub	sp, #84	; 0x54
        capacity_(0) {
   b966c:	2300      	movs	r3, #0
   b966e:	9103      	str	r1, [sp, #12]
    return size_;
   b9670:	f8d8 1004 	ldr.w	r1, [r8, #4]
        capacity_(0) {
   b9674:	930a      	str	r3, [sp, #40]	; 0x28
        level_(LOG_LEVEL_NONE) { // Fallback level that will be used in case of construction errors
   b9676:	2246      	movs	r2, #70	; 0x46
    if (n > capacity_ && !realloc(n)) {
   b9678:	4299      	cmp	r1, r3
        capacity_(0) {
   b967a:	e9c0 3300 	strd	r3, r3, [r0]
   b967e:	e9c0 3302 	strd	r3, r3, [r0, #8]
   b9682:	e9c0 3304 	strd	r3, r3, [r0, #16]
   b9686:	e9cd 3308 	strd	r3, r3, [sp, #32]
spark::detail::LogFilter::LogFilter(LogLevel level, LogCategoryFilters filters) :
   b968a:	4604      	mov	r4, r0
        level_(LOG_LEVEL_NONE) { // Fallback level that will be used in case of construction errors
   b968c:	7602      	strb	r2, [r0, #24]
    if (n > capacity_ && !realloc(n)) {
   b968e:	dc23      	bgt.n	b96d8 <_ZN5spark6detail9LogFilterC1E8LogLevelNS_6VectorINS_17LogCategoryFilterENS_16DefaultAllocatorEEE+0x74>
    return data_ + size_;
   b9690:	e9d8 5700 	ldrd	r5, r7, [r8]
   b9694:	2314      	movs	r3, #20
   b9696:	fb03 5707 	mla	r7, r3, r7, r5
    for (LogCategoryFilter &filter: filters) {
   b969a:	42af      	cmp	r7, r5
   b969c:	d03b      	beq.n	b9716 <_ZN5spark6detail9LogFilterC1E8LogLevelNS_6VectorINS_17LogCategoryFilterENS_16DefaultAllocatorEEE+0xb2>
        cats.append(std::move(filter.cat_));
   b969e:	4629      	mov	r1, r5
   b96a0:	a80b      	add	r0, sp, #44	; 0x2c
   b96a2:	f000 feb7 	bl	ba414 <_ZN6StringC1EOS_>
    return insert(size_, std::move(value));
   b96a6:	a90b      	add	r1, sp, #44	; 0x2c
   b96a8:	a80f      	add	r0, sp, #60	; 0x3c
   b96aa:	9e09      	ldr	r6, [sp, #36]	; 0x24
   b96ac:	f000 feb2 	bl	ba414 <_ZN6StringC1EOS_>
    if (size_ + 1 > capacity_ && !realloc(size_ + 1)) {
   b96b0:	e9dd 1309 	ldrd	r1, r3, [sp, #36]	; 0x24
   b96b4:	4299      	cmp	r1, r3
   b96b6:	da1b      	bge.n	b96f0 <_ZN5spark6detail9LogFilterC1E8LogLevelNS_6VectorINS_17LogCategoryFilterENS_16DefaultAllocatorEEE+0x8c>
    T* const p = data_ + i;
   b96b8:	9b08      	ldr	r3, [sp, #32]
    move(p + 1, p, data_ + size_);
   b96ba:	9a09      	ldr	r2, [sp, #36]	; 0x24
    T* const p = data_ + i;
   b96bc:	eb03 1606 	add.w	r6, r3, r6, lsl #4
    move(p + 1, p, data_ + size_);
   b96c0:	eb03 1202 	add.w	r2, r3, r2, lsl #4
   b96c4:	4631      	mov	r1, r6
   b96c6:	f106 0010 	add.w	r0, r6, #16
   b96ca:	f7ff ff89 	bl	b95e0 <_ZN5spark6VectorI6StringNS_16DefaultAllocatorEE4moveIS1_Li0EEEvPS1_S5_S5_>
    new(p) T(std::move(value));
   b96ce:	b9ee      	cbnz	r6, b970c <_ZN5spark6detail9LogFilterC1E8LogLevelNS_6VectorINS_17LogCategoryFilterENS_16DefaultAllocatorEEE+0xa8>
    ++size_;
   b96d0:	9b09      	ldr	r3, [sp, #36]	; 0x24
   b96d2:	3301      	adds	r3, #1
   b96d4:	9309      	str	r3, [sp, #36]	; 0x24
    return true;
   b96d6:	e011      	b.n	b96fc <_ZN5spark6detail9LogFilterC1E8LogLevelNS_6VectorINS_17LogCategoryFilterENS_16DefaultAllocatorEEE+0x98>
    if (n > capacity_ && !realloc(n)) {
   b96d8:	a808      	add	r0, sp, #32
   b96da:	f7ff ffab 	bl	b9634 <_ZN5spark6VectorI6StringNS_16DefaultAllocatorEE7reallocIS1_Li0EEEbi>
   b96de:	2800      	cmp	r0, #0
   b96e0:	d1d6      	bne.n	b9690 <_ZN5spark6detail9LogFilterC1E8LogLevelNS_6VectorINS_17LogCategoryFilterENS_16DefaultAllocatorEEE+0x2c>
        return;
   b96e2:	a808      	add	r0, sp, #32
   b96e4:	f7fe fda8 	bl	b8238 <_ZN5spark6VectorI6StringNS_16DefaultAllocatorEED1Ev>
}
   b96e8:	4620      	mov	r0, r4
   b96ea:	b015      	add	sp, #84	; 0x54
   b96ec:	e8bd 8ff0 	ldmia.w	sp!, {r4, r5, r6, r7, r8, r9, sl, fp, pc}
    if (size_ + 1 > capacity_ && !realloc(size_ + 1)) {
   b96f0:	3101      	adds	r1, #1
   b96f2:	a808      	add	r0, sp, #32
   b96f4:	f7ff ff9e 	bl	b9634 <_ZN5spark6VectorI6StringNS_16DefaultAllocatorEE7reallocIS1_Li0EEEbi>
   b96f8:	2800      	cmp	r0, #0
   b96fa:	d1dd      	bne.n	b96b8 <_ZN5spark6detail9LogFilterC1E8LogLevelNS_6VectorINS_17LogCategoryFilterENS_16DefaultAllocatorEEE+0x54>
    return insert(size_, std::move(value));
   b96fc:	a80f      	add	r0, sp, #60	; 0x3c
   b96fe:	f000 fe0d 	bl	ba31c <_ZN6StringD1Ev>
        cats.append(std::move(filter.cat_));
   b9702:	a80b      	add	r0, sp, #44	; 0x2c
   b9704:	f000 fe0a 	bl	ba31c <_ZN6StringD1Ev>
    for (LogCategoryFilter &filter: filters) {
   b9708:	3514      	adds	r5, #20
   b970a:	e7c6      	b.n	b969a <_ZN5spark6detail9LogFilterC1E8LogLevelNS_6VectorINS_17LogCategoryFilterENS_16DefaultAllocatorEEE+0x36>
    new(p) T(std::move(value));
   b970c:	a90f      	add	r1, sp, #60	; 0x3c
   b970e:	4630      	mov	r0, r6
   b9710:	f000 fe80 	bl	ba414 <_ZN6StringC1EOS_>
   b9714:	e7dc      	b.n	b96d0 <_ZN5spark6detail9LogFilterC1E8LogLevelNS_6VectorINS_17LogCategoryFilterENS_16DefaultAllocatorEEE+0x6c>
        capacity_(0) {
   b9716:	2600      	movs	r6, #0
   b9718:	e9cd 660b 	strd	r6, r6, [sp, #44]	; 0x2c
   b971c:	960d      	str	r6, [sp, #52]	; 0x34
    for (int i = 0; i < cats.size(); ++i) {
   b971e:	f04f 0914 	mov.w	r9, #20
    return data_[i];
   b9722:	e9dd 2308 	ldrd	r2, r3, [sp, #32]
   b9726:	429e      	cmp	r6, r3
   b9728:	da7c      	bge.n	b9824 <_ZN5spark6detail9LogFilterC1E8LogLevelNS_6VectorINS_17LogCategoryFilterENS_16DefaultAllocatorEEE+0x1c0>
	char operator [] (unsigned int index) const;
	char& operator [] (unsigned int index);
	void getBytes(unsigned char *buf, unsigned int bufsize, unsigned int index=0) const;
	void toCharArray(char *buf, unsigned int bufsize, unsigned int index=0) const
		{getBytes((unsigned char *)buf, bufsize, index);}
	const char * c_str() const { return buffer; }
   b972a:	0133      	lsls	r3, r6, #4
   b972c:	58d3      	ldr	r3, [r2, r3]
        const char *category = cats.at(i).c_str();
   b972e:	9306      	str	r3, [sp, #24]
        if (!category) {
   b9730:	b90b      	cbnz	r3, b9736 <_ZN5spark6detail9LogFilterC1E8LogLevelNS_6VectorINS_17LogCategoryFilterENS_16DefaultAllocatorEEE+0xd2>
    for (int i = 0; i < cats.size(); ++i) {
   b9732:	3601      	adds	r6, #1
   b9734:	e7f5      	b.n	b9722 <_ZN5spark6detail9LogFilterC1E8LogLevelNS_6VectorINS_17LogCategoryFilterENS_16DefaultAllocatorEEE+0xbe>
        size_t size = 0; // Name length
   b9736:	2300      	movs	r3, #0
   b9738:	9307      	str	r3, [sp, #28]
   b973a:	fb09 f306 	mul.w	r3, r9, r6
   b973e:	9302      	str	r3, [sp, #8]
        Vector<Node> *pNodes = &nodes; // Root nodes
   b9740:	ad0b      	add	r5, sp, #44	; 0x2c
        while ((name = nextSubcategoryName(category, size))) {
   b9742:	a907      	add	r1, sp, #28
   b9744:	a806      	add	r0, sp, #24
   b9746:	f7ff fb22 	bl	b8d8e <_ZN12_GLOBAL__N_119nextSubcategoryNameERPKcRj>
   b974a:	4682      	mov	sl, r0
   b974c:	2800      	cmp	r0, #0
   b974e:	d0f0      	beq.n	b9732 <_ZN5spark6detail9LogFilterC1E8LogLevelNS_6VectorINS_17LogCategoryFilterENS_16DefaultAllocatorEEE+0xce>
            bool found = false;
   b9750:	f04f 0300 	mov.w	r3, #0
   b9754:	f88d 3017 	strb.w	r3, [sp, #23]
            const int index = nodeIndex(*pNodes, name, size, found);
   b9758:	4601      	mov	r1, r0
   b975a:	9a07      	ldr	r2, [sp, #28]
   b975c:	f10d 0317 	add.w	r3, sp, #23
   b9760:	4628      	mov	r0, r5
   b9762:	f7ff fbb1 	bl	b8ec8 <_ZN5spark6detail9LogFilter9nodeIndexERKNS_6VectorINS1_4NodeENS_16DefaultAllocatorEEEPKcjRb>
            if (!found && !pNodes->insert(index, Node(name, size))) { // Add node
   b9766:	f89d 7017 	ldrb.w	r7, [sp, #23]
            const int index = nodeIndex(*pNodes, name, size, found);
   b976a:	9001      	str	r0, [sp, #4]
            if (!found && !pNodes->insert(index, Node(name, size))) { // Add node
   b976c:	2f00      	cmp	r7, #0
   b976e:	d14a      	bne.n	b9806 <_ZN5spark6detail9LogFilterC1E8LogLevelNS_6VectorINS_17LogCategoryFilterENS_16DefaultAllocatorEEE+0x1a2>
   b9770:	f8bd 301c 	ldrh.w	r3, [sp, #28]
            level(-1) {
   b9774:	f8ad 3040 	strh.w	r3, [sp, #64]	; 0x40
        capacity_(0) {
   b9778:	e9cd 7711 	strd	r7, r7, [sp, #68]	; 0x44
   b977c:	f64f 73ff 	movw	r3, #65535	; 0xffff
   b9780:	f8cd a03c 	str.w	sl, [sp, #60]	; 0x3c
   b9784:	f8ad 3042 	strh.w	r3, [sp, #66]	; 0x42
   b9788:	9713      	str	r7, [sp, #76]	; 0x4c
    if (size_ + 1 > capacity_ && !realloc(size_ + 1)) {
   b978a:	e9d5 3201 	ldrd	r3, r2, [r5, #4]
   b978e:	4293      	cmp	r3, r2
   b9790:	db17      	blt.n	b97c2 <_ZN5spark6detail9LogFilterC1E8LogLevelNS_6VectorINS_17LogCategoryFilterENS_16DefaultAllocatorEEE+0x15e>
   b9792:	f103 0a01 	add.w	sl, r3, #1
        if (n > 0) {
   b9796:	f1ba 0f00 	cmp.w	sl, #0
   b979a:	dd30      	ble.n	b97fe <_ZN5spark6detail9LogFilterC1E8LogLevelNS_6VectorINS_17LogCategoryFilterENS_16DefaultAllocatorEEE+0x19a>
    return ::malloc(size);
   b979c:	fb09 f00a 	mul.w	r0, r9, sl
   b97a0:	f7fe fbc4 	bl	b7f2c <malloc>
            if (!d) {
   b97a4:	4683      	mov	fp, r0
   b97a6:	b360      	cbz	r0, b9802 <_ZN5spark6detail9LogFilterC1E8LogLevelNS_6VectorINS_17LogCategoryFilterENS_16DefaultAllocatorEEE+0x19e>
            move(d, data_, data_ + size_);
   b97a8:	e9d5 1200 	ldrd	r1, r2, [r5]
   b97ac:	fb09 1202 	mla	r2, r9, r2, r1
   b97b0:	f7ff feea 	bl	b9588 <_ZN5spark6VectorINS_6detail9LogFilter4NodeENS_16DefaultAllocatorEE4moveIS3_Li0EEEvPS3_S7_S7_>
    ::free(ptr);
   b97b4:	6828      	ldr	r0, [r5, #0]
   b97b6:	f7fe fbc1 	bl	b7f3c <free>
        data_ = d;
   b97ba:	f8c5 b000 	str.w	fp, [r5]
        capacity_ = n;
   b97be:	f8c5 a008 	str.w	sl, [r5, #8]
    T* const p = data_ + i;
   b97c2:	682b      	ldr	r3, [r5, #0]
   b97c4:	9a01      	ldr	r2, [sp, #4]
   b97c6:	fb09 3a02 	mla	sl, r9, r2, r3
    move(p + 1, p, data_ + size_);
   b97ca:	686a      	ldr	r2, [r5, #4]
   b97cc:	4651      	mov	r1, sl
   b97ce:	fb09 3202 	mla	r2, r9, r2, r3
   b97d2:	f10a 0014 	add.w	r0, sl, #20
   b97d6:	f7ff fed7 	bl	b9588 <_ZN5spark6VectorINS_6detail9LogFilter4NodeENS_16DefaultAllocatorEE4moveIS3_Li0EEEvPS3_S7_S7_>
    new(p) T(std::move(value));
   b97da:	f1ba 0f00 	cmp.w	sl, #0
   b97de:	d003      	beq.n	b97e8 <_ZN5spark6detail9LogFilterC1E8LogLevelNS_6VectorINS_17LogCategoryFilterENS_16DefaultAllocatorEEE+0x184>
   b97e0:	a90f      	add	r1, sp, #60	; 0x3c
   b97e2:	4650      	mov	r0, sl
   b97e4:	f7ff fb5d 	bl	b8ea2 <_ZN5spark6detail9LogFilter4NodeC1EOS2_>
    ++size_;
   b97e8:	686b      	ldr	r3, [r5, #4]
   b97ea:	3301      	adds	r3, #1
   b97ec:	606b      	str	r3, [r5, #4]
struct spark::detail::LogFilter::Node {
   b97ee:	a811      	add	r0, sp, #68	; 0x44
   b97f0:	f7ff fcdc 	bl	b91ac <_ZN5spark6VectorINS_6detail9LogFilter4NodeENS_16DefaultAllocatorEED1Ev>
            if (!found && !pNodes->insert(index, Node(name, size))) { // Add node
   b97f4:	b13f      	cbz	r7, b9806 <_ZN5spark6detail9LogFilterC1E8LogLevelNS_6VectorINS_17LogCategoryFilterENS_16DefaultAllocatorEEE+0x1a2>
    Vector<Node> nodes;
   b97f6:	a80b      	add	r0, sp, #44	; 0x2c
   b97f8:	f7ff fcd8 	bl	b91ac <_ZN5spark6VectorINS_6detail9LogFilter4NodeENS_16DefaultAllocatorEED1Ev>
   b97fc:	e771      	b.n	b96e2 <_ZN5spark6detail9LogFilterC1E8LogLevelNS_6VectorINS_17LogCategoryFilterENS_16DefaultAllocatorEEE+0x7e>
        T* d = nullptr;
   b97fe:	46bb      	mov	fp, r7
   b9800:	e7d8      	b.n	b97b4 <_ZN5spark6detail9LogFilterC1E8LogLevelNS_6VectorINS_17LogCategoryFilterENS_16DefaultAllocatorEEE+0x150>
            if (!found && !pNodes->insert(index, Node(name, size))) { // Add node
   b9802:	2701      	movs	r7, #1
   b9804:	e7f3      	b.n	b97ee <_ZN5spark6detail9LogFilterC1E8LogLevelNS_6VectorINS_17LogCategoryFilterENS_16DefaultAllocatorEEE+0x18a>
    return data_[i];
   b9806:	9b01      	ldr	r3, [sp, #4]
   b9808:	682d      	ldr	r5, [r5, #0]
   b980a:	fb09 5503 	mla	r5, r9, r3, r5
            if (!*category) { // Check if it's last subcategory
   b980e:	9b06      	ldr	r3, [sp, #24]
   b9810:	781b      	ldrb	r3, [r3, #0]
   b9812:	b92b      	cbnz	r3, b9820 <_ZN5spark6detail9LogFilterC1E8LogLevelNS_6VectorINS_17LogCategoryFilterENS_16DefaultAllocatorEEE+0x1bc>
                node.level = filters.at(i).level_;
   b9814:	f8d8 3000 	ldr.w	r3, [r8]
   b9818:	9a02      	ldr	r2, [sp, #8]
   b981a:	4413      	add	r3, r2
   b981c:	7c1b      	ldrb	r3, [r3, #16]
   b981e:	80eb      	strh	r3, [r5, #6]
            pNodes = &node.nodes;
   b9820:	3508      	adds	r5, #8
        while ((name = nextSubcategoryName(category, size))) {
   b9822:	e78e      	b.n	b9742 <_ZN5spark6detail9LogFilterC1E8LogLevelNS_6VectorINS_17LogCategoryFilterENS_16DefaultAllocatorEEE+0xde>
      _Tp __tmp = _GLIBCXX_MOVE(__a);
   b9824:	6821      	ldr	r1, [r4, #0]
      __a = _GLIBCXX_MOVE(__b);
   b9826:	6022      	str	r2, [r4, #0]
      _Tp __tmp = _GLIBCXX_MOVE(__a);
   b9828:	6862      	ldr	r2, [r4, #4]
      __a = _GLIBCXX_MOVE(__b);
   b982a:	6063      	str	r3, [r4, #4]
      _Tp __tmp = _GLIBCXX_MOVE(__a);
   b982c:	68a3      	ldr	r3, [r4, #8]
      __b = _GLIBCXX_MOVE(__tmp);
   b982e:	9209      	str	r2, [sp, #36]	; 0x24
      __a = _GLIBCXX_MOVE(__b);
   b9830:	9a0a      	ldr	r2, [sp, #40]	; 0x28
      __b = _GLIBCXX_MOVE(__tmp);
   b9832:	930a      	str	r3, [sp, #40]	; 0x28
      _Tp __tmp = _GLIBCXX_MOVE(__a);
   b9834:	68e3      	ldr	r3, [r4, #12]
      __a = _GLIBCXX_MOVE(__b);
   b9836:	60a2      	str	r2, [r4, #8]
   b9838:	9a0b      	ldr	r2, [sp, #44]	; 0x2c
      __b = _GLIBCXX_MOVE(__tmp);
   b983a:	930b      	str	r3, [sp, #44]	; 0x2c
      _Tp __tmp = _GLIBCXX_MOVE(__a);
   b983c:	6923      	ldr	r3, [r4, #16]
      __a = _GLIBCXX_MOVE(__b);
   b983e:	60e2      	str	r2, [r4, #12]
   b9840:	9a0c      	ldr	r2, [sp, #48]	; 0x30
      __b = _GLIBCXX_MOVE(__tmp);
   b9842:	930c      	str	r3, [sp, #48]	; 0x30
      _Tp __tmp = _GLIBCXX_MOVE(__a);
   b9844:	6963      	ldr	r3, [r4, #20]
      __a = _GLIBCXX_MOVE(__b);
   b9846:	6122      	str	r2, [r4, #16]
   b9848:	9a0d      	ldr	r2, [sp, #52]	; 0x34
      __b = _GLIBCXX_MOVE(__tmp);
   b984a:	930d      	str	r3, [sp, #52]	; 0x34
    level_ = level;
   b984c:	9b03      	ldr	r3, [sp, #12]
   b984e:	9108      	str	r1, [sp, #32]
      __a = _GLIBCXX_MOVE(__b);
   b9850:	6162      	str	r2, [r4, #20]
   b9852:	7623      	strb	r3, [r4, #24]
   b9854:	e7cf      	b.n	b97f6 <_ZN5spark6detail9LogFilterC1E8LogLevelNS_6VectorINS_17LogCategoryFilterENS_16DefaultAllocatorEEE+0x192>
	...

000b9858 <_ZN5spark16StreamLogHandlerC1ER5Print8LogLevelNS_6VectorINS_17LogCategoryFilterENS_16DefaultAllocatorEEE>:
inline spark::StreamLogHandler::StreamLogHandler(Print &stream, LogLevel level, LogCategoryFilters filters) :
   b9858:	b5f0      	push	{r4, r5, r6, r7, lr}
   b985a:	4604      	mov	r4, r0
   b985c:	b087      	sub	sp, #28
   b985e:	460d      	mov	r5, r1
        filter_(level, filters) {
   b9860:	4626      	mov	r6, r4
        stream_(&stream) {
   b9862:	4619      	mov	r1, r3
   b9864:	4668      	mov	r0, sp
inline spark::StreamLogHandler::StreamLogHandler(Print &stream, LogLevel level, LogCategoryFilters filters) :
   b9866:	4617      	mov	r7, r2
        stream_(&stream) {
   b9868:	f7fb fe8d 	bl	b5586 <_ZN5spark6VectorINS_17LogCategoryFilterENS_16DefaultAllocatorEEC1ERKS3_>
        filter_(level, filters) {
   b986c:	4b0b      	ldr	r3, [pc, #44]	; (b989c <_ZN5spark16StreamLogHandlerC1ER5Print8LogLevelNS_6VectorINS_17LogCategoryFilterENS_16DefaultAllocatorEEE+0x44>)
   b986e:	f846 3b04 	str.w	r3, [r6], #4
   b9872:	4669      	mov	r1, sp
   b9874:	a803      	add	r0, sp, #12
   b9876:	f7fb fe86 	bl	b5586 <_ZN5spark6VectorINS_17LogCategoryFilterENS_16DefaultAllocatorEEC1ERKS3_>
   b987a:	aa03      	add	r2, sp, #12
   b987c:	4639      	mov	r1, r7
   b987e:	4630      	mov	r0, r6
   b9880:	f7ff fef0 	bl	b9664 <_ZN5spark6detail9LogFilterC1E8LogLevelNS_6VectorINS_17LogCategoryFilterENS_16DefaultAllocatorEEE>
   b9884:	a803      	add	r0, sp, #12
   b9886:	f7fb fe3d 	bl	b5504 <_ZN5spark6VectorINS_17LogCategoryFilterENS_16DefaultAllocatorEED1Ev>
        stream_(&stream) {
   b988a:	4668      	mov	r0, sp
   b988c:	f7fb fe3a 	bl	b5504 <_ZN5spark6VectorINS_17LogCategoryFilterENS_16DefaultAllocatorEED1Ev>
   b9890:	4b03      	ldr	r3, [pc, #12]	; (b98a0 <_ZN5spark16StreamLogHandlerC1ER5Print8LogLevelNS_6VectorINS_17LogCategoryFilterENS_16DefaultAllocatorEEE+0x48>)
   b9892:	6023      	str	r3, [r4, #0]
}
   b9894:	4620      	mov	r0, r4
        stream_(&stream) {
   b9896:	6225      	str	r5, [r4, #32]
}
   b9898:	b007      	add	sp, #28
   b989a:	bdf0      	pop	{r4, r5, r6, r7, pc}
   b989c:	000bcbb0 	.word	0x000bcbb0
   b98a0:	000bcdfc 	.word	0x000bcdfc

000b98a4 <_ZN5spark24DefaultLogHandlerFactory13createHandlerEPKc8LogLevelNS_6VectorINS_17LogCategoryFilterENS_16DefaultAllocatorEEEP5PrintRKNS_9JSONValueE>:
            Print *stream, const JSONValue &params) {
   b98a4:	b5f0      	push	{r4, r5, r6, r7, lr}
   b98a6:	460f      	mov	r7, r1
   b98a8:	b085      	sub	sp, #20
    if (strcmp(type, "JSONStreamLogHandler") == 0) {
   b98aa:	491d      	ldr	r1, [pc, #116]	; (b9920 <_ZN5spark24DefaultLogHandlerFactory13createHandlerEPKc8LogLevelNS_6VectorINS_17LogCategoryFilterENS_16DefaultAllocatorEEEP5PrintRKNS_9JSONValueE+0x7c>)
            Print *stream, const JSONValue &params) {
   b98ac:	9c0a      	ldr	r4, [sp, #40]	; 0x28
    if (strcmp(type, "JSONStreamLogHandler") == 0) {
   b98ae:	4638      	mov	r0, r7
            Print *stream, const JSONValue &params) {
   b98b0:	4616      	mov	r6, r2
   b98b2:	461d      	mov	r5, r3
    if (strcmp(type, "JSONStreamLogHandler") == 0) {
   b98b4:	f002 fe4d 	bl	bc552 <strcmp>
   b98b8:	b9c0      	cbnz	r0, b98ec <_ZN5spark24DefaultLogHandlerFactory13createHandlerEPKc8LogLevelNS_6VectorINS_17LogCategoryFilterENS_16DefaultAllocatorEEEP5PrintRKNS_9JSONValueE+0x48>
        if (!stream) {
   b98ba:	b1a4      	cbz	r4, b98e6 <_ZN5spark24DefaultLogHandlerFactory13createHandlerEPKc8LogLevelNS_6VectorINS_17LogCategoryFilterENS_16DefaultAllocatorEEEP5PrintRKNS_9JSONValueE+0x42>
        return new(std::nothrow) JSONStreamLogHandler(*stream, level, std::move(filters));
   b98bc:	4629      	mov	r1, r5
   b98be:	a801      	add	r0, sp, #4
   b98c0:	f7ff fcbc 	bl	b923c <_ZN5spark6VectorINS_17LogCategoryFilterENS_16DefaultAllocatorEEC1EOS3_>
   b98c4:	4917      	ldr	r1, [pc, #92]	; (b9924 <_ZN5spark24DefaultLogHandlerFactory13createHandlerEPKc8LogLevelNS_6VectorINS_17LogCategoryFilterENS_16DefaultAllocatorEEEP5PrintRKNS_9JSONValueE+0x80>)
   b98c6:	2024      	movs	r0, #36	; 0x24
   b98c8:	f001 fa2e 	bl	bad28 <_ZnwjRKSt9nothrow_t>
   b98cc:	4605      	mov	r5, r0
   b98ce:	b130      	cbz	r0, b98de <_ZN5spark24DefaultLogHandlerFactory13createHandlerEPKc8LogLevelNS_6VectorINS_17LogCategoryFilterENS_16DefaultAllocatorEEEP5PrintRKNS_9JSONValueE+0x3a>
    using StreamLogHandler::StreamLogHandler;
   b98d0:	ab01      	add	r3, sp, #4
   b98d2:	4632      	mov	r2, r6
   b98d4:	4621      	mov	r1, r4
   b98d6:	f7ff ffbf 	bl	b9858 <_ZN5spark16StreamLogHandlerC1ER5Print8LogLevelNS_6VectorINS_17LogCategoryFilterENS_16DefaultAllocatorEEE>
   b98da:	4b13      	ldr	r3, [pc, #76]	; (b9928 <_ZN5spark24DefaultLogHandlerFactory13createHandlerEPKc8LogLevelNS_6VectorINS_17LogCategoryFilterENS_16DefaultAllocatorEEEP5PrintRKNS_9JSONValueE+0x84>)
   b98dc:	602b      	str	r3, [r5, #0]
        return new(std::nothrow) StreamLogHandler(*stream, level, std::move(filters));
   b98de:	a801      	add	r0, sp, #4
   b98e0:	f7fb fe10 	bl	b5504 <_ZN5spark6VectorINS_17LogCategoryFilterENS_16DefaultAllocatorEED1Ev>
   b98e4:	462c      	mov	r4, r5
}
   b98e6:	4620      	mov	r0, r4
   b98e8:	b005      	add	sp, #20
   b98ea:	bdf0      	pop	{r4, r5, r6, r7, pc}
    } else if (strcmp(type, "StreamLogHandler") == 0) {
   b98ec:	490f      	ldr	r1, [pc, #60]	; (b992c <_ZN5spark24DefaultLogHandlerFactory13createHandlerEPKc8LogLevelNS_6VectorINS_17LogCategoryFilterENS_16DefaultAllocatorEEEP5PrintRKNS_9JSONValueE+0x88>)
   b98ee:	4638      	mov	r0, r7
   b98f0:	f002 fe2f 	bl	bc552 <strcmp>
   b98f4:	b990      	cbnz	r0, b991c <_ZN5spark24DefaultLogHandlerFactory13createHandlerEPKc8LogLevelNS_6VectorINS_17LogCategoryFilterENS_16DefaultAllocatorEEEP5PrintRKNS_9JSONValueE+0x78>
        if (!stream) {
   b98f6:	2c00      	cmp	r4, #0
   b98f8:	d0f5      	beq.n	b98e6 <_ZN5spark24DefaultLogHandlerFactory13createHandlerEPKc8LogLevelNS_6VectorINS_17LogCategoryFilterENS_16DefaultAllocatorEEEP5PrintRKNS_9JSONValueE+0x42>
        return new(std::nothrow) StreamLogHandler(*stream, level, std::move(filters));
   b98fa:	4629      	mov	r1, r5
   b98fc:	a801      	add	r0, sp, #4
   b98fe:	f7ff fc9d 	bl	b923c <_ZN5spark6VectorINS_17LogCategoryFilterENS_16DefaultAllocatorEEC1EOS3_>
   b9902:	4908      	ldr	r1, [pc, #32]	; (b9924 <_ZN5spark24DefaultLogHandlerFactory13createHandlerEPKc8LogLevelNS_6VectorINS_17LogCategoryFilterENS_16DefaultAllocatorEEEP5PrintRKNS_9JSONValueE+0x80>)
   b9904:	2024      	movs	r0, #36	; 0x24
   b9906:	f001 fa0f 	bl	bad28 <_ZnwjRKSt9nothrow_t>
   b990a:	4605      	mov	r5, r0
   b990c:	2800      	cmp	r0, #0
   b990e:	d0e6      	beq.n	b98de <_ZN5spark24DefaultLogHandlerFactory13createHandlerEPKc8LogLevelNS_6VectorINS_17LogCategoryFilterENS_16DefaultAllocatorEEEP5PrintRKNS_9JSONValueE+0x3a>
   b9910:	ab01      	add	r3, sp, #4
   b9912:	4632      	mov	r2, r6
   b9914:	4621      	mov	r1, r4
   b9916:	f7ff ff9f 	bl	b9858 <_ZN5spark16StreamLogHandlerC1ER5Print8LogLevelNS_6VectorINS_17LogCategoryFilterENS_16DefaultAllocatorEEE>
   b991a:	e7e0      	b.n	b98de <_ZN5spark24DefaultLogHandlerFactory13createHandlerEPKc8LogLevelNS_6VectorINS_17LogCategoryFilterENS_16DefaultAllocatorEEEP5PrintRKNS_9JSONValueE+0x3a>
            return nullptr; // Output stream is not specified
   b991c:	2400      	movs	r4, #0
   b991e:	e7e2      	b.n	b98e6 <_ZN5spark24DefaultLogHandlerFactory13createHandlerEPKc8LogLevelNS_6VectorINS_17LogCategoryFilterENS_16DefaultAllocatorEEEP5PrintRKNS_9JSONValueE+0x42>
   b9920:	000bcd81 	.word	0x000bcd81
   b9924:	000bcf8c 	.word	0x000bcf8c
   b9928:	000bce14 	.word	0x000bce14
   b992c:	000bcd85 	.word	0x000bcd85

000b9930 <_GLOBAL__sub_I__ZN5spark3LogE>:
        name_(name) {
   b9930:	4b01      	ldr	r3, [pc, #4]	; (b9938 <_GLOBAL__sub_I__ZN5spark3LogE+0x8>)
   b9932:	4a02      	ldr	r2, [pc, #8]	; (b993c <_GLOBAL__sub_I__ZN5spark3LogE+0xc>)
   b9934:	601a      	str	r2, [r3, #0]
#if Wiring_LogConfig

// spark::
void spark::logProcessControlRequest(ctrl_request* req) {
    JSONRequestHandler::process(req);
}
   b9936:	4770      	bx	lr
   b9938:	2003e6ac 	.word	0x2003e6ac
   b993c:	000bcd96 	.word	0x000bcd96

000b9940 <_ZN5spark16StreamLogHandler10logMessageEPKc8LogLevelS2_RK13LogAttributes>:
void spark::StreamLogHandler::logMessage(const char *msg, LogLevel level, const char *category, const LogAttributes &attr) {
   b9940:	e92d 47f0 	stmdb	sp!, {r4, r5, r6, r7, r8, r9, sl, lr}
   b9944:	9d08      	ldr	r5, [sp, #32]
    if (stream_ == &Serial && Network.listening()) {
   b9946:	f8d0 9020 	ldr.w	r9, [r0, #32]
void spark::StreamLogHandler::logMessage(const char *msg, LogLevel level, const char *category, const LogAttributes &attr) {
   b994a:	4604      	mov	r4, r0
   b994c:	460e      	mov	r6, r1
   b994e:	4617      	mov	r7, r2
   b9950:	4698      	mov	r8, r3
    if (stream_ == &Serial && Network.listening()) {
   b9952:	f000 ffb9 	bl	ba8c8 <_Z16_fetch_usbserialv>
   b9956:	4581      	cmp	r9, r0
   b9958:	d04c      	beq.n	b99f4 <_ZN5spark16StreamLogHandler10logMessageEPKc8LogLevelS2_RK13LogAttributes+0xb4>
    if (attr.has_time) {
   b995a:	792b      	ldrb	r3, [r5, #4]
   b995c:	0719      	lsls	r1, r3, #28
   b995e:	d504      	bpl.n	b996a <_ZN5spark16StreamLogHandler10logMessageEPKc8LogLevelS2_RK13LogAttributes+0x2a>
        printf("%010u ", (unsigned)attr.time);
   b9960:	696a      	ldr	r2, [r5, #20]
   b9962:	4954      	ldr	r1, [pc, #336]	; (b9ab4 <_ZN5spark16StreamLogHandler10logMessageEPKc8LogLevelS2_RK13LogAttributes+0x174>)
   b9964:	4620      	mov	r0, r4
   b9966:	f7ff fa8d 	bl	b8e84 <_ZN5spark16StreamLogHandler6printfEPKcz>
    if (category) {
   b996a:	f1b8 0f00 	cmp.w	r8, #0
   b996e:	d00d      	beq.n	b998c <_ZN5spark16StreamLogHandler10logMessageEPKc8LogLevelS2_RK13LogAttributes+0x4c>
        write('[');
   b9970:	215b      	movs	r1, #91	; 0x5b
   b9972:	4620      	mov	r0, r4
   b9974:	f7ff fa7a 	bl	b8e6c <_ZN5spark16StreamLogHandler5writeEc>
        write(category);
   b9978:	4641      	mov	r1, r8
   b997a:	4620      	mov	r0, r4
   b997c:	f7ff fa67 	bl	b8e4e <_ZN5spark16StreamLogHandler5writeEPKc>
        write("] ", 2);
   b9980:	6823      	ldr	r3, [r4, #0]
   b9982:	494d      	ldr	r1, [pc, #308]	; (b9ab8 <_ZN5spark16StreamLogHandler10logMessageEPKc8LogLevelS2_RK13LogAttributes+0x178>)
   b9984:	68db      	ldr	r3, [r3, #12]
   b9986:	2202      	movs	r2, #2
   b9988:	4620      	mov	r0, r4
   b998a:	4798      	blx	r3
    if (attr.has_file) {
   b998c:	792b      	ldrb	r3, [r5, #4]
   b998e:	07da      	lsls	r2, r3, #31
   b9990:	d523      	bpl.n	b99da <_ZN5spark16StreamLogHandler10logMessageEPKc8LogLevelS2_RK13LogAttributes+0x9a>
        s = extractFileName(attr.file); // Strip directory path
   b9992:	f8d5 8008 	ldr.w	r8, [r5, #8]
    const char *s1 = strrchr(s, '/');
   b9996:	212f      	movs	r1, #47	; 0x2f
   b9998:	4640      	mov	r0, r8
   b999a:	f002 fe1b 	bl	bc5d4 <strrchr>
    if (s1) {
   b999e:	b108      	cbz	r0, b99a4 <_ZN5spark16StreamLogHandler10logMessageEPKc8LogLevelS2_RK13LogAttributes+0x64>
        return s1 + 1;
   b99a0:	f100 0801 	add.w	r8, r0, #1
        write(s); // File name
   b99a4:	4641      	mov	r1, r8
   b99a6:	4620      	mov	r0, r4
   b99a8:	f7ff fa51 	bl	b8e4e <_ZN5spark16StreamLogHandler5writeEPKc>
        if (attr.has_line) {
   b99ac:	792b      	ldrb	r3, [r5, #4]
   b99ae:	079b      	lsls	r3, r3, #30
   b99b0:	d508      	bpl.n	b99c4 <_ZN5spark16StreamLogHandler10logMessageEPKc8LogLevelS2_RK13LogAttributes+0x84>
            write(':');
   b99b2:	213a      	movs	r1, #58	; 0x3a
   b99b4:	4620      	mov	r0, r4
   b99b6:	f7ff fa59 	bl	b8e6c <_ZN5spark16StreamLogHandler5writeEc>
            printf("%d", (int)attr.line); // Line number
   b99ba:	68ea      	ldr	r2, [r5, #12]
   b99bc:	493f      	ldr	r1, [pc, #252]	; (b9abc <_ZN5spark16StreamLogHandler10logMessageEPKc8LogLevelS2_RK13LogAttributes+0x17c>)
   b99be:	4620      	mov	r0, r4
   b99c0:	f7ff fa60 	bl	b8e84 <_ZN5spark16StreamLogHandler6printfEPKcz>
        if (attr.has_function) {
   b99c4:	792a      	ldrb	r2, [r5, #4]
            write(", ", 2);
   b99c6:	6823      	ldr	r3, [r4, #0]
        if (attr.has_function) {
   b99c8:	f012 0f04 	tst.w	r2, #4
            write(", ", 2);
   b99cc:	68db      	ldr	r3, [r3, #12]
   b99ce:	bf14      	ite	ne
   b99d0:	493b      	ldrne	r1, [pc, #236]	; (b9ac0 <_ZN5spark16StreamLogHandler10logMessageEPKc8LogLevelS2_RK13LogAttributes+0x180>)
            write(": ", 2);
   b99d2:	493c      	ldreq	r1, [pc, #240]	; (b9ac4 <_ZN5spark16StreamLogHandler10logMessageEPKc8LogLevelS2_RK13LogAttributes+0x184>)
            write(", ", 2);
   b99d4:	2202      	movs	r2, #2
            write(": ", 2);
   b99d6:	4620      	mov	r0, r4
   b99d8:	4798      	blx	r3
    if (attr.has_function) {
   b99da:	792b      	ldrb	r3, [r5, #4]
   b99dc:	0758      	lsls	r0, r3, #29
   b99de:	d51d      	bpl.n	b9a1c <_ZN5spark16StreamLogHandler10logMessageEPKc8LogLevelS2_RK13LogAttributes+0xdc>
        s = extractFuncName(attr.function, &n); // Strip argument and return types
   b99e0:	6929      	ldr	r1, [r5, #16]
const char* extractFuncName(const char *s, size_t *size) {
   b99e2:	460b      	mov	r3, r1
   b99e4:	461a      	mov	r2, r3
    for (; *s; ++s) {
   b99e6:	f813 0b01 	ldrb.w	r0, [r3], #1
   b99ea:	b160      	cbz	r0, b9a06 <_ZN5spark16StreamLogHandler10logMessageEPKc8LogLevelS2_RK13LogAttributes+0xc6>
        if (*s == ' ') {
   b99ec:	2820      	cmp	r0, #32
   b99ee:	d108      	bne.n	b9a02 <_ZN5spark16StreamLogHandler10logMessageEPKc8LogLevelS2_RK13LogAttributes+0xc2>
            s1 = s + 1; // Skip return type
   b99f0:	4619      	mov	r1, r3
   b99f2:	e7f7      	b.n	b99e4 <_ZN5spark16StreamLogHandler10logMessageEPKc8LogLevelS2_RK13LogAttributes+0xa4>
    if (stream_ == &Serial && Network.listening()) {
   b99f4:	4834      	ldr	r0, [pc, #208]	; (b9ac8 <_ZN5spark16StreamLogHandler10logMessageEPKc8LogLevelS2_RK13LogAttributes+0x188>)
   b99f6:	f000 f966 	bl	b9cc6 <_ZN5spark12NetworkClass9listeningEv>
   b99fa:	2800      	cmp	r0, #0
   b99fc:	d0ad      	beq.n	b995a <_ZN5spark16StreamLogHandler10logMessageEPKc8LogLevelS2_RK13LogAttributes+0x1a>
}
   b99fe:	e8bd 87f0 	ldmia.w	sp!, {r4, r5, r6, r7, r8, r9, sl, pc}
        } else if (*s == '(') {
   b9a02:	2828      	cmp	r0, #40	; 0x28
   b9a04:	d1ee      	bne.n	b99e4 <_ZN5spark16StreamLogHandler10logMessageEPKc8LogLevelS2_RK13LogAttributes+0xa4>
        write(s, n);
   b9a06:	6823      	ldr	r3, [r4, #0]
   b9a08:	1a52      	subs	r2, r2, r1
   b9a0a:	68db      	ldr	r3, [r3, #12]
   b9a0c:	4620      	mov	r0, r4
   b9a0e:	4798      	blx	r3
        write("(): ", 4);
   b9a10:	6823      	ldr	r3, [r4, #0]
   b9a12:	492e      	ldr	r1, [pc, #184]	; (b9acc <_ZN5spark16StreamLogHandler10logMessageEPKc8LogLevelS2_RK13LogAttributes+0x18c>)
   b9a14:	68db      	ldr	r3, [r3, #12]
   b9a16:	2204      	movs	r2, #4
   b9a18:	4620      	mov	r0, r4
   b9a1a:	4798      	blx	r3
    return log_level_name(level, nullptr);
   b9a1c:	2100      	movs	r1, #0
   b9a1e:	4638      	mov	r0, r7
   b9a20:	f7fe f9aa 	bl	b7d78 <log_level_name>
   b9a24:	4601      	mov	r1, r0
    write(s);
   b9a26:	4620      	mov	r0, r4
   b9a28:	f7ff fa11 	bl	b8e4e <_ZN5spark16StreamLogHandler5writeEPKc>
    write(": ", 2);
   b9a2c:	6823      	ldr	r3, [r4, #0]
   b9a2e:	4925      	ldr	r1, [pc, #148]	; (b9ac4 <_ZN5spark16StreamLogHandler10logMessageEPKc8LogLevelS2_RK13LogAttributes+0x184>)
   b9a30:	68db      	ldr	r3, [r3, #12]
   b9a32:	2202      	movs	r2, #2
   b9a34:	4620      	mov	r0, r4
   b9a36:	4798      	blx	r3
    if (msg) {
   b9a38:	b11e      	cbz	r6, b9a42 <_ZN5spark16StreamLogHandler10logMessageEPKc8LogLevelS2_RK13LogAttributes+0x102>
        write(msg);
   b9a3a:	4631      	mov	r1, r6
   b9a3c:	4620      	mov	r0, r4
   b9a3e:	f7ff fa06 	bl	b8e4e <_ZN5spark16StreamLogHandler5writeEPKc>
    if (attr.has_code || attr.has_details) {
   b9a42:	792b      	ldrb	r3, [r5, #4]
   b9a44:	f013 0f30 	tst.w	r3, #48	; 0x30
   b9a48:	d02c      	beq.n	b9aa4 <_ZN5spark16StreamLogHandler10logMessageEPKc8LogLevelS2_RK13LogAttributes+0x164>
        write(" [", 2);
   b9a4a:	6823      	ldr	r3, [r4, #0]
   b9a4c:	4920      	ldr	r1, [pc, #128]	; (b9ad0 <_ZN5spark16StreamLogHandler10logMessageEPKc8LogLevelS2_RK13LogAttributes+0x190>)
   b9a4e:	68db      	ldr	r3, [r3, #12]
   b9a50:	2202      	movs	r2, #2
   b9a52:	4620      	mov	r0, r4
   b9a54:	4798      	blx	r3
        if (attr.has_code) {
   b9a56:	792b      	ldrb	r3, [r5, #4]
   b9a58:	06d9      	lsls	r1, r3, #27
   b9a5a:	d50a      	bpl.n	b9a72 <_ZN5spark16StreamLogHandler10logMessageEPKc8LogLevelS2_RK13LogAttributes+0x132>
            write("code = ", 7);
   b9a5c:	6823      	ldr	r3, [r4, #0]
   b9a5e:	491d      	ldr	r1, [pc, #116]	; (b9ad4 <_ZN5spark16StreamLogHandler10logMessageEPKc8LogLevelS2_RK13LogAttributes+0x194>)
   b9a60:	68db      	ldr	r3, [r3, #12]
   b9a62:	2207      	movs	r2, #7
   b9a64:	4620      	mov	r0, r4
   b9a66:	4798      	blx	r3
            printf("%" PRIiPTR, (intptr_t)attr.code);
   b9a68:	69aa      	ldr	r2, [r5, #24]
   b9a6a:	491b      	ldr	r1, [pc, #108]	; (b9ad8 <_ZN5spark16StreamLogHandler10logMessageEPKc8LogLevelS2_RK13LogAttributes+0x198>)
   b9a6c:	4620      	mov	r0, r4
   b9a6e:	f7ff fa09 	bl	b8e84 <_ZN5spark16StreamLogHandler6printfEPKcz>
        if (attr.has_details) {
   b9a72:	792b      	ldrb	r3, [r5, #4]
   b9a74:	069a      	lsls	r2, r3, #26
   b9a76:	d511      	bpl.n	b9a9c <_ZN5spark16StreamLogHandler10logMessageEPKc8LogLevelS2_RK13LogAttributes+0x15c>
            if (attr.has_code) {
   b9a78:	06db      	lsls	r3, r3, #27
   b9a7a:	d505      	bpl.n	b9a88 <_ZN5spark16StreamLogHandler10logMessageEPKc8LogLevelS2_RK13LogAttributes+0x148>
                write(", ", 2);
   b9a7c:	6823      	ldr	r3, [r4, #0]
   b9a7e:	4910      	ldr	r1, [pc, #64]	; (b9ac0 <_ZN5spark16StreamLogHandler10logMessageEPKc8LogLevelS2_RK13LogAttributes+0x180>)
   b9a80:	68db      	ldr	r3, [r3, #12]
   b9a82:	2202      	movs	r2, #2
   b9a84:	4620      	mov	r0, r4
   b9a86:	4798      	blx	r3
            write("details = ", 10);
   b9a88:	6823      	ldr	r3, [r4, #0]
   b9a8a:	4914      	ldr	r1, [pc, #80]	; (b9adc <_ZN5spark16StreamLogHandler10logMessageEPKc8LogLevelS2_RK13LogAttributes+0x19c>)
   b9a8c:	68db      	ldr	r3, [r3, #12]
   b9a8e:	4620      	mov	r0, r4
   b9a90:	220a      	movs	r2, #10
   b9a92:	4798      	blx	r3
            write(attr.details);
   b9a94:	69e9      	ldr	r1, [r5, #28]
   b9a96:	4620      	mov	r0, r4
   b9a98:	f7ff f9d9 	bl	b8e4e <_ZN5spark16StreamLogHandler5writeEPKc>
        write(']');
   b9a9c:	215d      	movs	r1, #93	; 0x5d
   b9a9e:	4620      	mov	r0, r4
   b9aa0:	f7ff f9e4 	bl	b8e6c <_ZN5spark16StreamLogHandler5writeEc>
    write("\r\n", 2);
   b9aa4:	6823      	ldr	r3, [r4, #0]
   b9aa6:	490e      	ldr	r1, [pc, #56]	; (b9ae0 <_ZN5spark16StreamLogHandler10logMessageEPKc8LogLevelS2_RK13LogAttributes+0x1a0>)
   b9aa8:	68db      	ldr	r3, [r3, #12]
   b9aaa:	4620      	mov	r0, r4
   b9aac:	2202      	movs	r2, #2
}
   b9aae:	e8bd 47f0 	ldmia.w	sp!, {r4, r5, r6, r7, r8, r9, sl, lr}
    write("\r\n", 2);
   b9ab2:	4718      	bx	r3
   b9ab4:	000bcd9a 	.word	0x000bcd9a
   b9ab8:	000bcda1 	.word	0x000bcda1
   b9abc:	000bc9a4 	.word	0x000bc9a4
   b9ac0:	000bcaff 	.word	0x000bcaff
   b9ac4:	000bcda6 	.word	0x000bcda6
   b9ac8:	2003e6d8 	.word	0x2003e6d8
   b9acc:	000bcda4 	.word	0x000bcda4
   b9ad0:	000bcda9 	.word	0x000bcda9
   b9ad4:	000bcdac 	.word	0x000bcdac
   b9ad8:	000bcdb4 	.word	0x000bcdb4
   b9adc:	000bcdb7 	.word	0x000bcdb7
   b9ae0:	000bcdc2 	.word	0x000bcdc2

000b9ae4 <_ZN5spark20JSONStreamLogHandler10logMessageEPKc8LogLevelS2_RK13LogAttributes>:
void spark::JSONStreamLogHandler::logMessage(const char *msg, LogLevel level, const char *category, const LogAttributes &attr) {
   b9ae4:	e92d 43f0 	stmdb	sp!, {r4, r5, r6, r7, r8, r9, lr}
   b9ae8:	b085      	sub	sp, #20
    return stream_;
   b9aea:	f8d0 9020 	ldr.w	r9, [r0, #32]
   b9aee:	9c0c      	ldr	r4, [sp, #48]	; 0x30
   b9af0:	4605      	mov	r5, r0
   b9af2:	460f      	mov	r7, r1
   b9af4:	4690      	mov	r8, r2
   b9af6:	461e      	mov	r6, r3
    if (this->stream() == &Serial && Network.listening()) {
   b9af8:	f000 fee6 	bl	ba8c8 <_Z16_fetch_usbserialv>
   b9afc:	4581      	cmp	r9, r0
   b9afe:	d105      	bne.n	b9b0c <_ZN5spark20JSONStreamLogHandler10logMessageEPKc8LogLevelS2_RK13LogAttributes+0x28>
   b9b00:	4849      	ldr	r0, [pc, #292]	; (b9c28 <_ZN5spark20JSONStreamLogHandler10logMessageEPKc8LogLevelS2_RK13LogAttributes+0x144>)
   b9b02:	f000 f8e0 	bl	b9cc6 <_ZN5spark12NetworkClass9listeningEv>
   b9b06:	2800      	cmp	r0, #0
   b9b08:	f040 808a 	bne.w	b9c20 <_ZN5spark20JSONStreamLogHandler10logMessageEPKc8LogLevelS2_RK13LogAttributes+0x13c>
   b9b0c:	6a2b      	ldr	r3, [r5, #32]
        strm_(stream) {
   b9b0e:	4a47      	ldr	r2, [pc, #284]	; (b9c2c <_ZN5spark20JSONStreamLogHandler10logMessageEPKc8LogLevelS2_RK13LogAttributes+0x148>)
   b9b10:	9201      	str	r2, [sp, #4]
        state_(BEGIN) {
   b9b12:	f04f 0900 	mov.w	r9, #0
    json.beginObject();
   b9b16:	a801      	add	r0, sp, #4
        strm_(stream) {
   b9b18:	9303      	str	r3, [sp, #12]
        state_(BEGIN) {
   b9b1a:	f88d 9008 	strb.w	r9, [sp, #8]
   b9b1e:	f7ff f878 	bl	b8c12 <_ZN5spark10JSONWriter11beginObjectEv>
    return log_level_name(level, nullptr);
   b9b22:	4649      	mov	r1, r9
   b9b24:	4640      	mov	r0, r8
   b9b26:	f7fe f927 	bl	b7d78 <log_level_name>
    json.name("l", 1).value(s);
   b9b2a:	4941      	ldr	r1, [pc, #260]	; (b9c30 <_ZN5spark20JSONStreamLogHandler10logMessageEPKc8LogLevelS2_RK13LogAttributes+0x14c>)
   b9b2c:	4680      	mov	r8, r0
   b9b2e:	2201      	movs	r2, #1
   b9b30:	a801      	add	r0, sp, #4
   b9b32:	f7ff f8fd 	bl	b8d30 <_ZN5spark10JSONWriter4nameEPKcj>
   b9b36:	4641      	mov	r1, r8
   b9b38:	f7ff f97b 	bl	b8e32 <_ZN5spark10JSONWriter5valueEPKc>
    if (msg) {
   b9b3c:	b13f      	cbz	r7, b9b4e <_ZN5spark20JSONStreamLogHandler10logMessageEPKc8LogLevelS2_RK13LogAttributes+0x6a>
        json.name("m", 1).value(msg);
   b9b3e:	493d      	ldr	r1, [pc, #244]	; (b9c34 <_ZN5spark20JSONStreamLogHandler10logMessageEPKc8LogLevelS2_RK13LogAttributes+0x150>)
   b9b40:	2201      	movs	r2, #1
   b9b42:	a801      	add	r0, sp, #4
   b9b44:	f7ff f8f4 	bl	b8d30 <_ZN5spark10JSONWriter4nameEPKcj>
   b9b48:	4639      	mov	r1, r7
   b9b4a:	f7ff f972 	bl	b8e32 <_ZN5spark10JSONWriter5valueEPKc>
    if (category) {
   b9b4e:	b13e      	cbz	r6, b9b60 <_ZN5spark20JSONStreamLogHandler10logMessageEPKc8LogLevelS2_RK13LogAttributes+0x7c>
        json.name("c", 1).value(category);
   b9b50:	4939      	ldr	r1, [pc, #228]	; (b9c38 <_ZN5spark20JSONStreamLogHandler10logMessageEPKc8LogLevelS2_RK13LogAttributes+0x154>)
   b9b52:	2201      	movs	r2, #1
   b9b54:	a801      	add	r0, sp, #4
   b9b56:	f7ff f8eb 	bl	b8d30 <_ZN5spark10JSONWriter4nameEPKcj>
   b9b5a:	4631      	mov	r1, r6
   b9b5c:	f7ff f969 	bl	b8e32 <_ZN5spark10JSONWriter5valueEPKc>
    if (attr.has_file) {
   b9b60:	7923      	ldrb	r3, [r4, #4]
   b9b62:	07df      	lsls	r7, r3, #31
   b9b64:	d50e      	bpl.n	b9b84 <_ZN5spark20JSONStreamLogHandler10logMessageEPKc8LogLevelS2_RK13LogAttributes+0xa0>
        s = extractFileName(attr.file); // Strip directory path
   b9b66:	68a6      	ldr	r6, [r4, #8]
    const char *s1 = strrchr(s, '/');
   b9b68:	212f      	movs	r1, #47	; 0x2f
   b9b6a:	4630      	mov	r0, r6
   b9b6c:	f002 fd32 	bl	bc5d4 <strrchr>
    if (s1) {
   b9b70:	b100      	cbz	r0, b9b74 <_ZN5spark20JSONStreamLogHandler10logMessageEPKc8LogLevelS2_RK13LogAttributes+0x90>
        return s1 + 1;
   b9b72:	1c46      	adds	r6, r0, #1
        json.name("f", 1).value(s);
   b9b74:	4931      	ldr	r1, [pc, #196]	; (b9c3c <_ZN5spark20JSONStreamLogHandler10logMessageEPKc8LogLevelS2_RK13LogAttributes+0x158>)
   b9b76:	2201      	movs	r2, #1
   b9b78:	a801      	add	r0, sp, #4
   b9b7a:	f7ff f8d9 	bl	b8d30 <_ZN5spark10JSONWriter4nameEPKcj>
   b9b7e:	4631      	mov	r1, r6
   b9b80:	f7ff f957 	bl	b8e32 <_ZN5spark10JSONWriter5valueEPKc>
    if (attr.has_line) {
   b9b84:	7923      	ldrb	r3, [r4, #4]
   b9b86:	079e      	lsls	r6, r3, #30
   b9b88:	d507      	bpl.n	b9b9a <_ZN5spark20JSONStreamLogHandler10logMessageEPKc8LogLevelS2_RK13LogAttributes+0xb6>
        json.name("ln", 2).value(attr.line);
   b9b8a:	492d      	ldr	r1, [pc, #180]	; (b9c40 <_ZN5spark20JSONStreamLogHandler10logMessageEPKc8LogLevelS2_RK13LogAttributes+0x15c>)
   b9b8c:	2202      	movs	r2, #2
   b9b8e:	a801      	add	r0, sp, #4
   b9b90:	f7ff f8ce 	bl	b8d30 <_ZN5spark10JSONWriter4nameEPKcj>
   b9b94:	68e1      	ldr	r1, [r4, #12]
   b9b96:	f7ff f849 	bl	b8c2c <_ZN5spark10JSONWriter5valueEi>
    if (attr.has_function) {
   b9b9a:	7923      	ldrb	r3, [r4, #4]
   b9b9c:	0758      	lsls	r0, r3, #29
   b9b9e:	d514      	bpl.n	b9bca <_ZN5spark20JSONStreamLogHandler10logMessageEPKc8LogLevelS2_RK13LogAttributes+0xe6>
        s = extractFuncName(attr.function, &n); // Strip argument and return types
   b9ba0:	6926      	ldr	r6, [r4, #16]
const char* extractFuncName(const char *s, size_t *size) {
   b9ba2:	4633      	mov	r3, r6
   b9ba4:	461f      	mov	r7, r3
    for (; *s; ++s) {
   b9ba6:	f813 2b01 	ldrb.w	r2, [r3], #1
   b9baa:	b12a      	cbz	r2, b9bb8 <_ZN5spark20JSONStreamLogHandler10logMessageEPKc8LogLevelS2_RK13LogAttributes+0xd4>
        if (*s == ' ') {
   b9bac:	2a20      	cmp	r2, #32
   b9bae:	d101      	bne.n	b9bb4 <_ZN5spark20JSONStreamLogHandler10logMessageEPKc8LogLevelS2_RK13LogAttributes+0xd0>
            s1 = s + 1; // Skip return type
   b9bb0:	461e      	mov	r6, r3
   b9bb2:	e7f7      	b.n	b9ba4 <_ZN5spark20JSONStreamLogHandler10logMessageEPKc8LogLevelS2_RK13LogAttributes+0xc0>
        } else if (*s == '(') {
   b9bb4:	2a28      	cmp	r2, #40	; 0x28
   b9bb6:	d1f5      	bne.n	b9ba4 <_ZN5spark20JSONStreamLogHandler10logMessageEPKc8LogLevelS2_RK13LogAttributes+0xc0>
        json.name("fn", 2).value(s, n);
   b9bb8:	4922      	ldr	r1, [pc, #136]	; (b9c44 <_ZN5spark20JSONStreamLogHandler10logMessageEPKc8LogLevelS2_RK13LogAttributes+0x160>)
   b9bba:	2202      	movs	r2, #2
   b9bbc:	a801      	add	r0, sp, #4
   b9bbe:	f7ff f8b7 	bl	b8d30 <_ZN5spark10JSONWriter4nameEPKcj>
   b9bc2:	1bba      	subs	r2, r7, r6
   b9bc4:	4631      	mov	r1, r6
   b9bc6:	f7ff f8c3 	bl	b8d50 <_ZN5spark10JSONWriter5valueEPKcj>
    if (attr.has_time) {
   b9bca:	7923      	ldrb	r3, [r4, #4]
   b9bcc:	0719      	lsls	r1, r3, #28
   b9bce:	d507      	bpl.n	b9be0 <_ZN5spark20JSONStreamLogHandler10logMessageEPKc8LogLevelS2_RK13LogAttributes+0xfc>
        json.name("t", 1).value((unsigned)attr.time);
   b9bd0:	491d      	ldr	r1, [pc, #116]	; (b9c48 <_ZN5spark20JSONStreamLogHandler10logMessageEPKc8LogLevelS2_RK13LogAttributes+0x164>)
   b9bd2:	2201      	movs	r2, #1
   b9bd4:	a801      	add	r0, sp, #4
   b9bd6:	f7ff f8ab 	bl	b8d30 <_ZN5spark10JSONWriter4nameEPKcj>
   b9bda:	6961      	ldr	r1, [r4, #20]
   b9bdc:	f7ff f838 	bl	b8c50 <_ZN5spark10JSONWriter5valueEj>
    if (attr.has_code) {
   b9be0:	7923      	ldrb	r3, [r4, #4]
   b9be2:	06da      	lsls	r2, r3, #27
   b9be4:	d508      	bpl.n	b9bf8 <_ZN5spark20JSONStreamLogHandler10logMessageEPKc8LogLevelS2_RK13LogAttributes+0x114>
        json.name("code", 4).value((int)attr.code);
   b9be6:	2204      	movs	r2, #4
   b9be8:	4918      	ldr	r1, [pc, #96]	; (b9c4c <_ZN5spark20JSONStreamLogHandler10logMessageEPKc8LogLevelS2_RK13LogAttributes+0x168>)
   b9bea:	eb0d 0002 	add.w	r0, sp, r2
   b9bee:	f7ff f89f 	bl	b8d30 <_ZN5spark10JSONWriter4nameEPKcj>
   b9bf2:	69a1      	ldr	r1, [r4, #24]
   b9bf4:	f7ff f81a 	bl	b8c2c <_ZN5spark10JSONWriter5valueEi>
    if (attr.has_details) {
   b9bf8:	7923      	ldrb	r3, [r4, #4]
   b9bfa:	069b      	lsls	r3, r3, #26
   b9bfc:	d507      	bpl.n	b9c0e <_ZN5spark20JSONStreamLogHandler10logMessageEPKc8LogLevelS2_RK13LogAttributes+0x12a>
        json.name("detail", 6).value(attr.details);
   b9bfe:	4914      	ldr	r1, [pc, #80]	; (b9c50 <_ZN5spark20JSONStreamLogHandler10logMessageEPKc8LogLevelS2_RK13LogAttributes+0x16c>)
   b9c00:	2206      	movs	r2, #6
   b9c02:	a801      	add	r0, sp, #4
   b9c04:	f7ff f894 	bl	b8d30 <_ZN5spark10JSONWriter4nameEPKcj>
   b9c08:	69e1      	ldr	r1, [r4, #28]
   b9c0a:	f7ff f912 	bl	b8e32 <_ZN5spark10JSONWriter5valueEPKc>
    json.endObject();
   b9c0e:	a801      	add	r0, sp, #4
   b9c10:	f7fe ffe9 	bl	b8be6 <_ZN5spark10JSONWriter9endObjectEv>
    return stream_;
   b9c14:	6a28      	ldr	r0, [r5, #32]
    this->stream()->write((const uint8_t*)"\r\n", 2);
   b9c16:	490f      	ldr	r1, [pc, #60]	; (b9c54 <_ZN5spark20JSONStreamLogHandler10logMessageEPKc8LogLevelS2_RK13LogAttributes+0x170>)
   b9c18:	6803      	ldr	r3, [r0, #0]
   b9c1a:	2202      	movs	r2, #2
   b9c1c:	68db      	ldr	r3, [r3, #12]
   b9c1e:	4798      	blx	r3
}
   b9c20:	b005      	add	sp, #20
   b9c22:	e8bd 83f0 	ldmia.w	sp!, {r4, r5, r6, r7, r8, r9, pc}
   b9c26:	bf00      	nop
   b9c28:	2003e6d8 	.word	0x2003e6d8
   b9c2c:	000bcde4 	.word	0x000bcde4
   b9c30:	000bcd77 	.word	0x000bcd77
   b9c34:	000bcdc5 	.word	0x000bcdc5
   b9c38:	000bd0f3 	.word	0x000bd0f3
   b9c3c:	000bce96 	.word	0x000bce96
   b9c40:	000bcdc7 	.word	0x000bcdc7
   b9c44:	000bcdca 	.word	0x000bcdca
   b9c48:	000bc9b0 	.word	0x000bc9b0
   b9c4c:	000bcdcd 	.word	0x000bcdcd
   b9c50:	000bcdd2 	.word	0x000bcdd2
   b9c54:	000bcdc2 	.word	0x000bcdc2

000b9c58 <_ZN5spark12NetworkClass7connectEj>:
        return Network;
    }
}

void NetworkClass::connect(unsigned flags) {
    network_connect(*this, flags, 0, nullptr);
   b9c58:	2300      	movs	r3, #0
   b9c5a:	6840      	ldr	r0, [r0, #4]
   b9c5c:	461a      	mov	r2, r3
   b9c5e:	f7fe b905 	b.w	b7e6c <network_connect>

000b9c62 <_ZN5spark12NetworkClass10disconnectEv>:
}

void NetworkClass::disconnect() {
    network_disconnect(*this, NETWORK_DISCONNECT_REASON_USER, nullptr);
   b9c62:	6840      	ldr	r0, [r0, #4]
   b9c64:	2200      	movs	r2, #0
   b9c66:	2102      	movs	r1, #2
   b9c68:	f7fe b910 	b.w	b7e8c <network_disconnect>

000b9c6c <_ZN5spark12NetworkClass10connectingEv>:
}

bool NetworkClass::connecting() {
    return network_connecting(*this, 0, nullptr);
   b9c6c:	2200      	movs	r2, #0
   b9c6e:	6840      	ldr	r0, [r0, #4]
   b9c70:	4611      	mov	r1, r2
   b9c72:	f7fe b903 	b.w	b7e7c <network_connecting>

000b9c76 <_ZN5spark12NetworkClass5readyEv>:
}

bool NetworkClass::ready() {
    return network_ready(*this, 0, nullptr);
   b9c76:	2200      	movs	r2, #0
   b9c78:	6840      	ldr	r0, [r0, #4]
   b9c7a:	4611      	mov	r1, r2
   b9c7c:	f7fe b90e 	b.w	b7e9c <network_ready>

000b9c80 <_ZN5spark12NetworkClass2onEv>:
}

void NetworkClass::on() {
    network_on(*this, 0, 0, nullptr);
   b9c80:	2300      	movs	r3, #0
   b9c82:	6840      	ldr	r0, [r0, #4]
   b9c84:	461a      	mov	r2, r3
   b9c86:	4619      	mov	r1, r3
   b9c88:	f7fe b910 	b.w	b7eac <network_on>

000b9c8c <_ZN5spark12NetworkClass3offEv>:
}

void NetworkClass::off() {
    network_off(*this, 0, 0, nullptr);
   b9c8c:	2300      	movs	r3, #0
   b9c8e:	6840      	ldr	r0, [r0, #4]
   b9c90:	461a      	mov	r2, r3
   b9c92:	4619      	mov	r1, r3
   b9c94:	f7fe b912 	b.w	b7ebc <network_off>

000b9c98 <_ZN5spark12NetworkClass4isOnEv>:
}

bool NetworkClass::isOn() {
    return network_is_on(*this, nullptr);
   b9c98:	6840      	ldr	r0, [r0, #4]
   b9c9a:	2100      	movs	r1, #0
   b9c9c:	f7fe b936 	b.w	b7f0c <network_is_on>

000b9ca0 <_ZN5spark12NetworkClass5isOffEv>:
}

bool NetworkClass::isOff() {
    return network_is_off(*this, nullptr);
   b9ca0:	6840      	ldr	r0, [r0, #4]
   b9ca2:	2100      	movs	r1, #0
   b9ca4:	f7fe b93a 	b.w	b7f1c <network_is_off>

000b9ca8 <_ZN5spark12NetworkClass6listenEb>:
}

void NetworkClass::listen(bool begin) {
    network_listen(*this, begin ? 0 : 1, nullptr);
   b9ca8:	6840      	ldr	r0, [r0, #4]
   b9caa:	2200      	movs	r2, #0
   b9cac:	f081 0101 	eor.w	r1, r1, #1
   b9cb0:	f7fe b90c 	b.w	b7ecc <network_listen>

000b9cb4 <_ZN5spark12NetworkClass16setListenTimeoutEt>:
}

void NetworkClass::setListenTimeout(uint16_t timeout) {
    network_set_listen_timeout(*this, timeout, nullptr);
   b9cb4:	6840      	ldr	r0, [r0, #4]
   b9cb6:	2200      	movs	r2, #0
   b9cb8:	f7fe b918 	b.w	b7eec <network_set_listen_timeout>

000b9cbc <_ZN5spark12NetworkClass16getListenTimeoutEv>:
}

uint16_t NetworkClass::getListenTimeout() {
    return network_get_listen_timeout(*this, 0, nullptr);
   b9cbc:	2200      	movs	r2, #0
   b9cbe:	6840      	ldr	r0, [r0, #4]
   b9cc0:	4611      	mov	r1, r2
   b9cc2:	f7fe b91b 	b.w	b7efc <network_get_listen_timeout>

000b9cc6 <_ZN5spark12NetworkClass9listeningEv>:
}

bool NetworkClass::listening() {
    return network_listening(*this, 0, nullptr);
   b9cc6:	2200      	movs	r2, #0
   b9cc8:	6840      	ldr	r0, [r0, #4]
   b9cca:	4611      	mov	r1, r2
   b9ccc:	f7fe b906 	b.w	b7edc <network_listening>

000b9cd0 <_ZN5spark12NetworkClass7resolveEPKc>:
}

IPAddress NetworkClass::resolve(const char* name) {
   b9cd0:	e92d 43f0 	stmdb	sp!, {r4, r5, r6, r7, r8, r9, lr}
   b9cd4:	b095      	sub	sp, #84	; 0x54
   b9cd6:	4614      	mov	r4, r2
   b9cd8:	460d      	mov	r5, r1
   b9cda:	4607      	mov	r7, r0
    IPAddress addr;
   b9cdc:	f7fe fe32 	bl	b8944 <_ZN9IPAddressC1Ev>
#if HAL_USE_INET_HAL_POSIX
    struct addrinfo *ai = nullptr;
   b9ce0:	2100      	movs	r1, #0
    struct addrinfo hints = {};
   b9ce2:	221c      	movs	r2, #28
   b9ce4:	a80d      	add	r0, sp, #52	; 0x34
    struct addrinfo *ai = nullptr;
   b9ce6:	9100      	str	r1, [sp, #0]
    struct addrinfo hints = {};
   b9ce8:	f002 fba8 	bl	bc43c <memset>
    hints.ai_flags = AI_ADDRCONFIG;
   b9cec:	2340      	movs	r3, #64	; 0x40
   b9cee:	930c      	str	r3, [sp, #48]	; 0x30
    hints.ai_family = AF_UNSPEC;
    const int r = getaddrinfo(name, nullptr, &hints, &ai);
   b9cf0:	4620      	mov	r0, r4
   b9cf2:	466b      	mov	r3, sp
   b9cf4:	aa0c      	add	r2, sp, #48	; 0x30
   b9cf6:	2100      	movs	r1, #0
   b9cf8:	f7fd ff3e 	bl	b7b78 <netdb_getaddrinfo>
    if (!r) {
   b9cfc:	4604      	mov	r4, r0
   b9cfe:	2800      	cmp	r0, #0
   b9d00:	d14b      	bne.n	b9d9a <_ZN5spark12NetworkClass7resolveEPKc+0xca>
        bool ok = false;
        // This is not really needed if AI_ADDRCONFIG is properly supported
        bool ipv4 = network_ready(*this, NETWORK_READY_TYPE_IPV4, nullptr);
   b9d02:	4602      	mov	r2, r0
   b9d04:	2101      	movs	r1, #1
   b9d06:	6868      	ldr	r0, [r5, #4]
   b9d08:	f7fe f8c8 	bl	b7e9c <network_ready>
        bool ipv6 = network_ready(*this, NETWORK_READY_TYPE_IPV6, nullptr);
   b9d0c:	2102      	movs	r1, #2
        bool ipv4 = network_ready(*this, NETWORK_READY_TYPE_IPV4, nullptr);
   b9d0e:	4680      	mov	r8, r0
        bool ipv6 = network_ready(*this, NETWORK_READY_TYPE_IPV6, nullptr);
   b9d10:	4622      	mov	r2, r4
   b9d12:	6868      	ldr	r0, [r5, #4]
   b9d14:	f7fe f8c2 	bl	b7e9c <network_ready>
        for (auto cur = ai; cur != nullptr && !ok; cur = cur->ai_next) {
   b9d18:	9e00      	ldr	r6, [sp, #0]
        bool ipv6 = network_ready(*this, NETWORK_READY_TYPE_IPV6, nullptr);
   b9d1a:	4681      	mov	r9, r0
        bool ok = false;
   b9d1c:	4621      	mov	r1, r4
        for (auto cur = ai; cur != nullptr && !ok; cur = cur->ai_next) {
   b9d1e:	2e00      	cmp	r6, #0
   b9d20:	d03b      	beq.n	b9d9a <_ZN5spark12NetworkClass7resolveEPKc+0xca>
   b9d22:	2900      	cmp	r1, #0
   b9d24:	d139      	bne.n	b9d9a <_ZN5spark12NetworkClass7resolveEPKc+0xca>
            // NOTE: using only the first entry that matches the current state of IPv4/IPv6 connectivity
            switch (cur->ai_family) {
   b9d26:	6873      	ldr	r3, [r6, #4]
   b9d28:	2b02      	cmp	r3, #2
   b9d2a:	d003      	beq.n	b9d34 <_ZN5spark12NetworkClass7resolveEPKc+0x64>
   b9d2c:	2b0a      	cmp	r3, #10
   b9d2e:	d011      	beq.n	b9d54 <_ZN5spark12NetworkClass7resolveEPKc+0x84>
        for (auto cur = ai; cur != nullptr && !ok; cur = cur->ai_next) {
   b9d30:	69f6      	ldr	r6, [r6, #28]
   b9d32:	e7f4      	b.n	b9d1e <_ZN5spark12NetworkClass7resolveEPKc+0x4e>
                case AF_INET: {
                    if (!ipv4) {
   b9d34:	f1b8 0f00 	cmp.w	r8, #0
   b9d38:	d0fa      	beq.n	b9d30 <_ZN5spark12NetworkClass7resolveEPKc+0x60>
                        continue;
                    }
                    // NOTE: HAL_IPAddress is little-endian
                    auto in = (struct sockaddr_in*)cur->ai_addr;
                    addr = (const uint8_t*)(&in->sin_addr.s_addr);
   b9d3a:	6971      	ldr	r1, [r6, #20]
        return *this = IPAddress(address);
   b9d3c:	a806      	add	r0, sp, #24
   b9d3e:	3104      	adds	r1, #4
class IPAddress : public Printable {
   b9d40:	ad07      	add	r5, sp, #28
        return *this = IPAddress(address);
   b9d42:	f7fe fe2d 	bl	b89a0 <_ZN9IPAddressC1EPKh>
class IPAddress : public Printable {
   b9d46:	cd0f      	ldmia	r5!, {r0, r1, r2, r3}
   b9d48:	1d3c      	adds	r4, r7, #4
   b9d4a:	c40f      	stmia	r4!, {r0, r1, r2, r3}
   b9d4c:	682b      	ldr	r3, [r5, #0]
   b9d4e:	7023      	strb	r3, [r4, #0]
                    ok = true;
   b9d50:	4641      	mov	r1, r8
        return *this = IPAddress(address);
   b9d52:	e7ed      	b.n	b9d30 <_ZN5spark12NetworkClass7resolveEPKc+0x60>
                    break;
                }
                case AF_INET6: {
                    if (!ipv6) {
   b9d54:	f1b9 0f00 	cmp.w	r9, #0
   b9d58:	d0ea      	beq.n	b9d30 <_ZN5spark12NetworkClass7resolveEPKc+0x60>
                        continue;
                    }
                    auto in6 = (struct sockaddr_in6*)cur->ai_addr;
   b9d5a:	6974      	ldr	r4, [r6, #20]
                    HAL_IPAddress a = {};
   b9d5c:	2210      	movs	r2, #16
   b9d5e:	a801      	add	r0, sp, #4
   b9d60:	f002 fb6c 	bl	bc43c <memset>
                    a.v = 6;
   b9d64:	2306      	movs	r3, #6
   b9d66:	f88d 3014 	strb.w	r3, [sp, #20]
                    memcpy(a.ipv6, in6->sin6_addr.s6_addr, sizeof(a.ipv6));
   b9d6a:	ad01      	add	r5, sp, #4
   b9d6c:	f104 0308 	add.w	r3, r4, #8
   b9d70:	3418      	adds	r4, #24
   b9d72:	6818      	ldr	r0, [r3, #0]
   b9d74:	6859      	ldr	r1, [r3, #4]
   b9d76:	462a      	mov	r2, r5
   b9d78:	c203      	stmia	r2!, {r0, r1}
   b9d7a:	3308      	adds	r3, #8
   b9d7c:	42a3      	cmp	r3, r4
   b9d7e:	4615      	mov	r5, r2
   b9d80:	d1f7      	bne.n	b9d72 <_ZN5spark12NetworkClass7resolveEPKc+0xa2>
                    addr = IPAddress(a);
   b9d82:	a901      	add	r1, sp, #4
   b9d84:	a806      	add	r0, sp, #24
class IPAddress : public Printable {
   b9d86:	ad07      	add	r5, sp, #28
   b9d88:	f7fe fdea 	bl	b8960 <_ZN9IPAddressC1ERK16_HAL_IPAddress_t>
   b9d8c:	cd0f      	ldmia	r5!, {r0, r1, r2, r3}
   b9d8e:	1d3c      	adds	r4, r7, #4
   b9d90:	c40f      	stmia	r4!, {r0, r1, r2, r3}
   b9d92:	682b      	ldr	r3, [r5, #0]
   b9d94:	7023      	strb	r3, [r4, #0]
                    ok = true;
   b9d96:	4649      	mov	r1, r9
   b9d98:	e7ca      	b.n	b9d30 <_ZN5spark12NetworkClass7resolveEPKc+0x60>
                    break;
                }
            }
        }
    }
    freeaddrinfo(ai);
   b9d9a:	9800      	ldr	r0, [sp, #0]
   b9d9c:	f7fd fee4 	bl	b7b68 <netdb_freeaddrinfo>
    return Cellular.resolve(name);
#endif // Wiring_Cellular

#endif // HAL_USE_INET_HAL_POSIX
    return addr;
}
   b9da0:	4638      	mov	r0, r7
   b9da2:	b015      	add	sp, #84	; 0x54
   b9da4:	e8bd 83f0 	ldmia.w	sp!, {r4, r5, r6, r7, r8, r9, pc}

000b9da8 <_GLOBAL__sub_I__ZN5spark7NetworkE>:
   b9da8:	4b02      	ldr	r3, [pc, #8]	; (b9db4 <_GLOBAL__sub_I__ZN5spark7NetworkE+0xc>)
   b9daa:	4a03      	ldr	r2, [pc, #12]	; (b9db8 <_GLOBAL__sub_I__ZN5spark7NetworkE+0x10>)
   b9dac:	601a      	str	r2, [r3, #0]
   b9dae:	2200      	movs	r2, #0
   b9db0:	605a      	str	r2, [r3, #4]

} // spark
   b9db2:	4770      	bx	lr
   b9db4:	2003e6d8 	.word	0x2003e6d8
   b9db8:	000bce5c 	.word	0x000bce5c

000b9dbc <_ZN5Print5writeEPKhj>:

// Public Methods //////////////////////////////////////////////////////////////

/* default implementation: may be overridden */
size_t Print::write(const uint8_t *buffer, size_t size)
{
   b9dbc:	b5f8      	push	{r3, r4, r5, r6, r7, lr}
   b9dbe:	4606      	mov	r6, r0
   b9dc0:	460d      	mov	r5, r1
  size_t n = 0;
   b9dc2:	188f      	adds	r7, r1, r2
   b9dc4:	2400      	movs	r4, #0
  while (size--) {
   b9dc6:	42bd      	cmp	r5, r7
   b9dc8:	d00c      	beq.n	b9de4 <_ZN5Print5writeEPKhj+0x28>
     int chunk = write(*buffer++);
   b9dca:	6833      	ldr	r3, [r6, #0]
   b9dcc:	f815 1b01 	ldrb.w	r1, [r5], #1
   b9dd0:	689b      	ldr	r3, [r3, #8]
   b9dd2:	4630      	mov	r0, r6
   b9dd4:	4798      	blx	r3
     if (chunk>=0)
   b9dd6:	1e03      	subs	r3, r0, #0
   b9dd8:	db01      	blt.n	b9dde <_ZN5Print5writeEPKhj+0x22>
         n += chunk;
   b9dda:	441c      	add	r4, r3
  while (size--) {
   b9ddc:	e7f3      	b.n	b9dc6 <_ZN5Print5writeEPKhj+0xa>
     int chunk = write(*buffer++);
   b9dde:	2c00      	cmp	r4, #0
   b9de0:	bf08      	it	eq
   b9de2:	461c      	moveq	r4, r3
             n = chunk;
         break;
     }
  }
  return n;
}
   b9de4:	4620      	mov	r0, r4
   b9de6:	bdf8      	pop	{r3, r4, r5, r6, r7, pc}

000b9de8 <_ZN5Print5printEPKc>:

size_t Print::print(const char str[])
{
   b9de8:	b508      	push	{r3, lr}
  return write(str);
   b9dea:	f7fd f937 	bl	b705c <_ZN5Print5writeEPKc>
}
   b9dee:	bd08      	pop	{r3, pc}

000b9df0 <_ZN5Print5printEc>:

size_t Print::print(char c)
{
  return write(c);
   b9df0:	6803      	ldr	r3, [r0, #0]
   b9df2:	689b      	ldr	r3, [r3, #8]
   b9df4:	4718      	bx	r3

000b9df6 <_ZN5Print7printlnEv>:
{
  return print(reinterpret_cast<const char*>(str));
}

size_t Print::println(void)
{
   b9df6:	b538      	push	{r3, r4, r5, lr}
  size_t n = print('\r');
   b9df8:	210d      	movs	r1, #13
{
   b9dfa:	4605      	mov	r5, r0
  size_t n = print('\r');
   b9dfc:	f7ff fff8 	bl	b9df0 <_ZN5Print5printEc>
  n += print('\n');
   b9e00:	210a      	movs	r1, #10
  size_t n = print('\r');
   b9e02:	4604      	mov	r4, r0
  n += print('\n');
   b9e04:	4628      	mov	r0, r5
   b9e06:	f7ff fff3 	bl	b9df0 <_ZN5Print5printEc>
  return n;
}
   b9e0a:	4420      	add	r0, r4
   b9e0c:	bd38      	pop	{r3, r4, r5, pc}

000b9e0e <_ZN5Print7printlnEPKc>:

size_t Print::println(const char c[])
{
   b9e0e:	b538      	push	{r3, r4, r5, lr}
   b9e10:	4605      	mov	r5, r0
  return write(str);
   b9e12:	f7fd f923 	bl	b705c <_ZN5Print5writeEPKc>
   b9e16:	4604      	mov	r4, r0
  size_t n = print(c);
  n += println();
   b9e18:	4628      	mov	r0, r5
   b9e1a:	f7ff ffec 	bl	b9df6 <_ZN5Print7printlnEv>
  return n;
}
   b9e1e:	4420      	add	r0, r4
   b9e20:	bd38      	pop	{r3, r4, r5, pc}

000b9e22 <_ZN5Print7printlnEPK19__FlashStringHelper>:
   return n;
 }

size_t Print::println(const __FlashStringHelper* str)
{
  return println(reinterpret_cast<const char*>(str));
   b9e22:	f7ff bff4 	b.w	b9e0e <_ZN5Print7printlnEPKc>

000b9e26 <_ZN5Print11printNumberEmh>:
}

// Private Methods /////////////////////////////////////////////////////////////

size_t Print::printNumber(unsigned long n, uint8_t base) {
   b9e26:	b530      	push	{r4, r5, lr}
   b9e28:	b08b      	sub	sp, #44	; 0x2c
  char buf[8 * sizeof(n) + 1]; // Assumes 8-bit chars plus zero byte.
  char *str = &buf[sizeof(buf) - 1];

  *str = '\0';
   b9e2a:	2300      	movs	r3, #0

  // prevent crash if called with base == 1
  if (base < 2) base = 10;
   b9e2c:	2a01      	cmp	r2, #1
  *str = '\0';
   b9e2e:	f88d 3024 	strb.w	r3, [sp, #36]	; 0x24
  if (base < 2) base = 10;
   b9e32:	bf98      	it	ls
   b9e34:	220a      	movls	r2, #10
   b9e36:	ac09      	add	r4, sp, #36	; 0x24

  do {
   decltype(n) m = n;
   n /= base;
   b9e38:	460d      	mov	r5, r1
   b9e3a:	fbb1 f1f2 	udiv	r1, r1, r2
   char c = m - base * n;
   b9e3e:	fb01 5312 	mls	r3, r1, r2, r5
   b9e42:	f003 03ff 	and.w	r3, r3, #255	; 0xff
   *--str = c < 10 ? c + '0' : c + 'A' - 10;
   b9e46:	2b09      	cmp	r3, #9
   b9e48:	bf94      	ite	ls
   b9e4a:	3330      	addls	r3, #48	; 0x30
   b9e4c:	3337      	addhi	r3, #55	; 0x37
   b9e4e:	b2db      	uxtb	r3, r3
  } while(n);
   b9e50:	42aa      	cmp	r2, r5
   *--str = c < 10 ? c + '0' : c + 'A' - 10;
   b9e52:	f804 3d01 	strb.w	r3, [r4, #-1]!
  } while(n);
   b9e56:	d9ef      	bls.n	b9e38 <_ZN5Print11printNumberEmh+0x12>

  return write(str);
   b9e58:	4621      	mov	r1, r4
   b9e5a:	f7fd f8ff 	bl	b705c <_ZN5Print5writeEPKc>
}
   b9e5e:	b00b      	add	sp, #44	; 0x2c
   b9e60:	bd30      	pop	{r4, r5, pc}
	...

000b9e64 <_ZN5Print10printFloatEdh>:

  return write(str);
}

size_t Print::printFloat(double number, uint8_t digits)
{
   b9e64:	e92d 4ff7 	stmdb	sp!, {r0, r1, r2, r4, r5, r6, r7, r8, r9, sl, fp, lr}
   b9e68:	ec55 4b10 	vmov	r4, r5, d0
   b9e6c:	4606      	mov	r6, r0
   b9e6e:	460f      	mov	r7, r1
  size_t n = 0;

  if (isnan(number)) return print("nan");
   b9e70:	ee10 2a10 	vmov	r2, s0
   b9e74:	ee10 0a10 	vmov	r0, s0
   b9e78:	462b      	mov	r3, r5
   b9e7a:	4629      	mov	r1, r5
   b9e7c:	f002 f84a 	bl	bbf14 <__aeabi_dcmpun>
   b9e80:	b140      	cbz	r0, b9e94 <_ZN5Print10printFloatEdh+0x30>
  return write(str);
   b9e82:	4953      	ldr	r1, [pc, #332]	; (b9fd0 <_ZN5Print10printFloatEdh+0x16c>)
   b9e84:	4630      	mov	r0, r6
   b9e86:	f7fd f8e9 	bl	b705c <_ZN5Print5writeEPKc>
   b9e8a:	4682      	mov	sl, r0
    n += print(toPrint);
    remainder -= toPrint;
  }

  return n;
}
   b9e8c:	4650      	mov	r0, sl
   b9e8e:	b003      	add	sp, #12
   b9e90:	e8bd 8ff0 	ldmia.w	sp!, {r4, r5, r6, r7, r8, r9, sl, fp, pc}
  && !_GLIBCXX_NO_OBSOLETE_ISINF_ISNAN_DYNAMIC
  using ::isinf;
#else
  constexpr bool
  isinf(double __x)
  { return __builtin_isinf(__x); }
   b9e94:	f025 4900 	bic.w	r9, r5, #2147483648	; 0x80000000
  if (isinf(number)) return print("inf");
   b9e98:	4b4e      	ldr	r3, [pc, #312]	; (b9fd4 <_ZN5Print10printFloatEdh+0x170>)
   b9e9a:	f04f 32ff 	mov.w	r2, #4294967295	; 0xffffffff
   b9e9e:	4620      	mov	r0, r4
   b9ea0:	4649      	mov	r1, r9
   b9ea2:	f002 f837 	bl	bbf14 <__aeabi_dcmpun>
   b9ea6:	b948      	cbnz	r0, b9ebc <_ZN5Print10printFloatEdh+0x58>
   b9ea8:	4b4a      	ldr	r3, [pc, #296]	; (b9fd4 <_ZN5Print10printFloatEdh+0x170>)
   b9eaa:	f04f 32ff 	mov.w	r2, #4294967295	; 0xffffffff
   b9eae:	4620      	mov	r0, r4
   b9eb0:	4649      	mov	r1, r9
   b9eb2:	f002 f811 	bl	bbed8 <__aeabi_dcmple>
   b9eb6:	b908      	cbnz	r0, b9ebc <_ZN5Print10printFloatEdh+0x58>
  return write(str);
   b9eb8:	4947      	ldr	r1, [pc, #284]	; (b9fd8 <_ZN5Print10printFloatEdh+0x174>)
   b9eba:	e7e3      	b.n	b9e84 <_ZN5Print10printFloatEdh+0x20>
  if (number > 4294967040.0) return print ("ovf");  // constant determined empirically
   b9ebc:	4b47      	ldr	r3, [pc, #284]	; (b9fdc <_ZN5Print10printFloatEdh+0x178>)
   b9ebe:	f04f 4260 	mov.w	r2, #3758096384	; 0xe0000000
   b9ec2:	4620      	mov	r0, r4
   b9ec4:	4629      	mov	r1, r5
   b9ec6:	f002 f81b 	bl	bbf00 <__aeabi_dcmpgt>
   b9eca:	b108      	cbz	r0, b9ed0 <_ZN5Print10printFloatEdh+0x6c>
  return write(str);
   b9ecc:	4944      	ldr	r1, [pc, #272]	; (b9fe0 <_ZN5Print10printFloatEdh+0x17c>)
   b9ece:	e7d9      	b.n	b9e84 <_ZN5Print10printFloatEdh+0x20>
  if (number <-4294967040.0) return print ("ovf");  // constant determined empirically
   b9ed0:	4b44      	ldr	r3, [pc, #272]	; (b9fe4 <_ZN5Print10printFloatEdh+0x180>)
   b9ed2:	f04f 4260 	mov.w	r2, #3758096384	; 0xe0000000
   b9ed6:	4620      	mov	r0, r4
   b9ed8:	4629      	mov	r1, r5
   b9eda:	f001 fff3 	bl	bbec4 <__aeabi_dcmplt>
   b9ede:	2800      	cmp	r0, #0
   b9ee0:	d1f4      	bne.n	b9ecc <_ZN5Print10printFloatEdh+0x68>
  if (number < 0.0)
   b9ee2:	2200      	movs	r2, #0
   b9ee4:	2300      	movs	r3, #0
   b9ee6:	4620      	mov	r0, r4
   b9ee8:	4629      	mov	r1, r5
   b9eea:	f001 ffeb 	bl	bbec4 <__aeabi_dcmplt>
   b9eee:	b1d0      	cbz	r0, b9f26 <_ZN5Print10printFloatEdh+0xc2>
     n += print('-');
   b9ef0:	212d      	movs	r1, #45	; 0x2d
   b9ef2:	4630      	mov	r0, r6
   b9ef4:	f7ff ff7c 	bl	b9df0 <_ZN5Print5printEc>
     number = -number;
   b9ef8:	f105 4300 	add.w	r3, r5, #2147483648	; 0x80000000
     n += print('-');
   b9efc:	4682      	mov	sl, r0
     number = -number;
   b9efe:	461d      	mov	r5, r3
  double rounding = 0.5;
   b9f00:	4939      	ldr	r1, [pc, #228]	; (b9fe8 <_ZN5Print10printFloatEdh+0x184>)
    rounding /= 10.0;
   b9f02:	f8df 90ec 	ldr.w	r9, [pc, #236]	; b9ff0 <_ZN5Print10printFloatEdh+0x18c>
  size_t n = 0;
   b9f06:	f04f 0b00 	mov.w	fp, #0
  double rounding = 0.5;
   b9f0a:	2000      	movs	r0, #0
    rounding /= 10.0;
   b9f0c:	f04f 0800 	mov.w	r8, #0
  for (uint8_t i=0; i<digits; ++i)
   b9f10:	fa5f f38b 	uxtb.w	r3, fp
   b9f14:	429f      	cmp	r7, r3
   b9f16:	d908      	bls.n	b9f2a <_ZN5Print10printFloatEdh+0xc6>
    rounding /= 10.0;
   b9f18:	4642      	mov	r2, r8
   b9f1a:	464b      	mov	r3, r9
   b9f1c:	f001 fe8a 	bl	bbc34 <__aeabi_ddiv>
  for (uint8_t i=0; i<digits; ++i)
   b9f20:	f10b 0b01 	add.w	fp, fp, #1
   b9f24:	e7f4      	b.n	b9f10 <_ZN5Print10printFloatEdh+0xac>
  size_t n = 0;
   b9f26:	4682      	mov	sl, r0
   b9f28:	e7ea      	b.n	b9f00 <_ZN5Print10printFloatEdh+0x9c>
  number += rounding;
   b9f2a:	4622      	mov	r2, r4
   b9f2c:	462b      	mov	r3, r5
   b9f2e:	f001 fba1 	bl	bb674 <__adddf3>
   b9f32:	460d      	mov	r5, r1
   b9f34:	4604      	mov	r4, r0
  unsigned long int_part = (unsigned long)number;
   b9f36:	f002 f82b 	bl	bbf90 <__aeabi_d2uiz>
   b9f3a:	4680      	mov	r8, r0
  double remainder = number - (double)int_part;
   b9f3c:	f001 fcd6 	bl	bb8ec <__aeabi_ui2d>
   b9f40:	4602      	mov	r2, r0
   b9f42:	460b      	mov	r3, r1
   b9f44:	4620      	mov	r0, r4
   b9f46:	4629      	mov	r1, r5
   b9f48:	f001 fb92 	bl	bb670 <__aeabi_dsub>
        return printNumber(val, base) + t;
   b9f4c:	220a      	movs	r2, #10
   b9f4e:	4604      	mov	r4, r0
   b9f50:	460d      	mov	r5, r1
   b9f52:	4630      	mov	r0, r6
   b9f54:	4641      	mov	r1, r8
   b9f56:	f7ff ff66 	bl	b9e26 <_ZN5Print11printNumberEmh>
  n += print(int_part);
   b9f5a:	4482      	add	sl, r0
  if (digits > 0) {
   b9f5c:	2f00      	cmp	r7, #0
   b9f5e:	d095      	beq.n	b9e8c <_ZN5Print10printFloatEdh+0x28>
  return write(str);
   b9f60:	4922      	ldr	r1, [pc, #136]	; (b9fec <_ZN5Print10printFloatEdh+0x188>)
    remainder *= 10.0;
   b9f62:	f8df 908c 	ldr.w	r9, [pc, #140]	; b9ff0 <_ZN5Print10printFloatEdh+0x18c>
  return write(str);
   b9f66:	4630      	mov	r0, r6
   b9f68:	f7fd f878 	bl	b705c <_ZN5Print5writeEPKc>
    remainder *= 10.0;
   b9f6c:	f04f 0800 	mov.w	r8, #0
    n += print(".");
   b9f70:	4482      	add	sl, r0
  while (digits-- > 0)
   b9f72:	2f00      	cmp	r7, #0
   b9f74:	d08a      	beq.n	b9e8c <_ZN5Print10printFloatEdh+0x28>
    remainder *= 10.0;
   b9f76:	4642      	mov	r2, r8
   b9f78:	464b      	mov	r3, r9
   b9f7a:	4620      	mov	r0, r4
   b9f7c:	4629      	mov	r1, r5
   b9f7e:	f001 fd2f 	bl	bb9e0 <__aeabi_dmul>
   b9f82:	4604      	mov	r4, r0
   b9f84:	460d      	mov	r5, r1
    int toPrint = int(remainder);
   b9f86:	f001 ffdb 	bl	bbf40 <__aeabi_d2iz>
        if (n < 0 && base == 10) {
   b9f8a:	f1b0 0b00 	subs.w	fp, r0, #0
   b9f8e:	da1c      	bge.n	b9fca <_ZN5Print10printFloatEdh+0x166>
            t = print('-');
   b9f90:	212d      	movs	r1, #45	; 0x2d
   b9f92:	4630      	mov	r0, r6
   b9f94:	f7ff ff2c 	bl	b9df0 <_ZN5Print5printEc>
            val = -n;
   b9f98:	f1cb 0100 	rsb	r1, fp, #0
            t = print('-');
   b9f9c:	4603      	mov	r3, r0
        return printNumber(val, base) + t;
   b9f9e:	220a      	movs	r2, #10
   b9fa0:	4630      	mov	r0, r6
   b9fa2:	9301      	str	r3, [sp, #4]
   b9fa4:	f7ff ff3f 	bl	b9e26 <_ZN5Print11printNumberEmh>
   b9fa8:	9b01      	ldr	r3, [sp, #4]
   b9faa:	4418      	add	r0, r3
    n += print(toPrint);
   b9fac:	4482      	add	sl, r0
    remainder -= toPrint;
   b9fae:	4658      	mov	r0, fp
   b9fb0:	f001 fcac 	bl	bb90c <__aeabi_i2d>
   b9fb4:	4602      	mov	r2, r0
   b9fb6:	460b      	mov	r3, r1
   b9fb8:	4620      	mov	r0, r4
   b9fba:	4629      	mov	r1, r5
   b9fbc:	f001 fb58 	bl	bb670 <__aeabi_dsub>
   b9fc0:	3f01      	subs	r7, #1
   b9fc2:	4604      	mov	r4, r0
   b9fc4:	460d      	mov	r5, r1
   b9fc6:	b2ff      	uxtb	r7, r7
  while (digits-- > 0)
   b9fc8:	e7d3      	b.n	b9f72 <_ZN5Print10printFloatEdh+0x10e>
            val = n;
   b9fca:	4659      	mov	r1, fp
        size_t t = 0;
   b9fcc:	2300      	movs	r3, #0
   b9fce:	e7e6      	b.n	b9f9e <_ZN5Print10printFloatEdh+0x13a>
   b9fd0:	000bce90 	.word	0x000bce90
   b9fd4:	7fefffff 	.word	0x7fefffff
   b9fd8:	000bce94 	.word	0x000bce94
   b9fdc:	41efffff 	.word	0x41efffff
   b9fe0:	000bce98 	.word	0x000bce98
   b9fe4:	c1efffff 	.word	0xc1efffff
   b9fe8:	3fe00000 	.word	0x3fe00000
   b9fec:	000bced0 	.word	0x000bced0
   b9ff0:	40240000 	.word	0x40240000

000b9ff4 <_ZN5Print5printEfi>:
{
   b9ff4:	b538      	push	{r3, r4, r5, lr}
   b9ff6:	4604      	mov	r4, r0
   b9ff8:	ee10 0a10 	vmov	r0, s0
  return printFloat((double)n, digits);
   b9ffc:	b2cd      	uxtb	r5, r1
   b9ffe:	f001 fc97 	bl	bb930 <__aeabi_f2d>
   ba002:	ec41 0b10 	vmov	d0, r0, r1
   ba006:	4629      	mov	r1, r5
   ba008:	4620      	mov	r0, r4
}
   ba00a:	e8bd 4038 	ldmia.w	sp!, {r3, r4, r5, lr}
  return printFloat((double)n, digits);
   ba00e:	f7ff bf29 	b.w	b9e64 <_ZN5Print10printFloatEdh>

000ba012 <_ZN5Print7printlnEdi>:
{
   ba012:	b538      	push	{r3, r4, r5, lr}
  return printFloat(n, digits);
   ba014:	b2c9      	uxtb	r1, r1
{
   ba016:	4605      	mov	r5, r0
  return printFloat(n, digits);
   ba018:	f7ff ff24 	bl	b9e64 <_ZN5Print10printFloatEdh>
   ba01c:	4604      	mov	r4, r0
  n += println();
   ba01e:	4628      	mov	r0, r5
   ba020:	f7ff fee9 	bl	b9df6 <_ZN5Print7printlnEv>
}
   ba024:	4420      	add	r0, r4
   ba026:	bd38      	pop	{r3, r4, r5, pc}

000ba028 <_ZN5Print7printlnEfi>:
{
   ba028:	b538      	push	{r3, r4, r5, lr}
   ba02a:	4604      	mov	r4, r0
   ba02c:	ee10 0a10 	vmov	r0, s0
   ba030:	460d      	mov	r5, r1
    return println((double)num, digits);
   ba032:	f001 fc7d 	bl	bb930 <__aeabi_f2d>
   ba036:	ec41 0b10 	vmov	d0, r0, r1
   ba03a:	4629      	mov	r1, r5
   ba03c:	4620      	mov	r0, r4
}
   ba03e:	e8bd 4038 	ldmia.w	sp!, {r3, r4, r5, lr}
    return println((double)num, digits);
   ba042:	f7ff bfe6 	b.w	ba012 <_ZN5Print7printlnEdi>

000ba046 <_ZN5Print7vprintfEbPKcSt9__va_list>:

size_t Print::vprintf(bool newline, const char* format, va_list args)
{
   ba046:	e92d 41f0 	stmdb	sp!, {r4, r5, r6, r7, r8, lr}
   ba04a:	b086      	sub	sp, #24
   ba04c:	af00      	add	r7, sp, #0
   ba04e:	4605      	mov	r5, r0
   ba050:	460e      	mov	r6, r1
    const int bufsize = 20;
    char test[bufsize];
    va_list args2;
    va_copy(args2, args);
    size_t n = vsnprintf(test, bufsize, format, args);
   ba052:	1d38      	adds	r0, r7, #4
   ba054:	2114      	movs	r1, #20
{
   ba056:	4614      	mov	r4, r2
    va_copy(args2, args);
   ba058:	603b      	str	r3, [r7, #0]
    size_t n = vsnprintf(test, bufsize, format, args);
   ba05a:	f7fd ff87 	bl	b7f6c <vsnprintf>

    if (n<bufsize)
   ba05e:	2813      	cmp	r0, #19
   ba060:	d80e      	bhi.n	ba080 <_ZN5Print7vprintfEbPKcSt9__va_list+0x3a>
  return write(str);
   ba062:	1d39      	adds	r1, r7, #4
   ba064:	4628      	mov	r0, r5
   ba066:	f7fc fff9 	bl	b705c <_ZN5Print5writeEPKc>
   ba06a:	4604      	mov	r4, r0
    {
        char bigger[n+1];
        n = vsnprintf(bigger, n+1, format, args2);
        n = print(bigger);
    }
    if (newline)
   ba06c:	b11e      	cbz	r6, ba076 <_ZN5Print7vprintfEbPKcSt9__va_list+0x30>
        n += println();
   ba06e:	4628      	mov	r0, r5
   ba070:	f7ff fec1 	bl	b9df6 <_ZN5Print7printlnEv>
   ba074:	4404      	add	r4, r0

    va_end(args2);
    return n;
}
   ba076:	4620      	mov	r0, r4
   ba078:	3718      	adds	r7, #24
   ba07a:	46bd      	mov	sp, r7
   ba07c:	e8bd 81f0 	ldmia.w	sp!, {r4, r5, r6, r7, r8, pc}
        char bigger[n+1];
   ba080:	f100 0308 	add.w	r3, r0, #8
   ba084:	f023 0307 	bic.w	r3, r3, #7
        n = print(bigger);
   ba088:	46e8      	mov	r8, sp
        char bigger[n+1];
   ba08a:	ebad 0d03 	sub.w	sp, sp, r3
        n = vsnprintf(bigger, n+1, format, args2);
   ba08e:	4622      	mov	r2, r4
   ba090:	1c41      	adds	r1, r0, #1
   ba092:	683b      	ldr	r3, [r7, #0]
   ba094:	4668      	mov	r0, sp
   ba096:	f7fd ff69 	bl	b7f6c <vsnprintf>
  return write(str);
   ba09a:	4669      	mov	r1, sp
   ba09c:	4628      	mov	r0, r5
   ba09e:	f7fc ffdd 	bl	b705c <_ZN5Print5writeEPKc>
   ba0a2:	4604      	mov	r4, r0
   ba0a4:	46c5      	mov	sp, r8
   ba0a6:	e7e1      	b.n	ba06c <_ZN5Print7vprintfEbPKcSt9__va_list+0x26>

000ba0a8 <_Z6randomi>:
#include "spark_wiring_random.h"
#include <stdlib.h>

int random(int max)
{
   ba0a8:	b510      	push	{r4, lr}
  if (0 == max) {
   ba0aa:	4604      	mov	r4, r0
   ba0ac:	b128      	cbz	r0, ba0ba <_Z6randomi+0x12>
    return 0;
  }
  return rand() % max;
   ba0ae:	f002 f9fb 	bl	bc4a8 <rand>
   ba0b2:	fb90 f3f4 	sdiv	r3, r0, r4
   ba0b6:	fb03 0414 	mls	r4, r3, r4, r0
}
   ba0ba:	4620      	mov	r0, r4
   ba0bc:	bd10      	pop	{r4, pc}

000ba0be <_Z10randomSeedj>:
  return random(max - min) + min;
}

void randomSeed(unsigned int seed)
{
  srand(seed);
   ba0be:	f002 b9c5 	b.w	bc44c <srand>
	...

000ba0c4 <_GLOBAL__sub_I_RGB>:
    _Function_base() : _M_manager(nullptr) { }
   ba0c4:	4b01      	ldr	r3, [pc, #4]	; (ba0cc <_GLOBAL__sub_I_RGB+0x8>)
   ba0c6:	2200      	movs	r2, #0
   ba0c8:	609a      	str	r2, [r3, #8]
{
    RGBClass* const d = static_cast<RGBClass*>(data);
    if (d->changeHandler_) {
        d->changeHandler_(r, g, b);
    }
}
   ba0ca:	4770      	bx	lr
   ba0cc:	2003e6e0 	.word	0x2003e6e0

000ba0d0 <_ZN8SPIClass6unlockEv.isra.0>:
  }

  void unlock()
  {
#if HAL_PLATFORM_SPI_HAL_THREAD_SAFETY
    hal_spi_release(_spi, nullptr);
   ba0d0:	2100      	movs	r1, #0
   ba0d2:	f7fd bda1 	b.w	b7c18 <hal_spi_release>

000ba0d6 <_ZN8SPIClass4lockEv.isra.0>:
    return hal_spi_acquire(_spi, nullptr);
   ba0d6:	2100      	movs	r1, #0
   ba0d8:	f7fd bd96 	b.w	b7c08 <hal_spi_acquire>

000ba0dc <_ZN8SPIClassC1E19hal_spi_interface_t>:
    }
    return particle::SPISettings(info->clock, info->bit_order, info->data_mode);
}
} // namespace

SPIClass::SPIClass(hal_spi_interface_t spi)
   ba0dc:	b510      	push	{r4, lr}
   ba0de:	4604      	mov	r4, r0
   ba0e0:	4608      	mov	r0, r1
{
    _spi = spi;
   ba0e2:	7021      	strb	r1, [r4, #0]
    hal_spi_init(_spi);
   ba0e4:	f7fd fd60 	bl	b7ba8 <hal_spi_init>
    _dividerReference = SPI_CLK_SYSTEM; // 0 indicates the system clock
   ba0e8:	2300      	movs	r3, #0
   ba0ea:	6063      	str	r3, [r4, #4]
}
   ba0ec:	4620      	mov	r0, r4
   ba0ee:	bd10      	pop	{r4, pc}

000ba0f0 <_ZN8SPIClass5beginEv>:

void SPIClass::begin()
{
   ba0f0:	b513      	push	{r0, r1, r4, lr}
   ba0f2:	4604      	mov	r4, r0
    // TODO: Fetch default pin from HAL
    if (!lock())
   ba0f4:	7800      	ldrb	r0, [r0, #0]
   ba0f6:	f7ff ffee 	bl	ba0d6 <_ZN8SPIClass4lockEv.isra.0>
   ba0fa:	b958      	cbnz	r0, ba114 <_ZN8SPIClass5beginEv+0x24>
   ba0fc:	7820      	ldrb	r0, [r4, #0]
    {
        hal_spi_begin(_spi, SPI_DEFAULT_SS);
   ba0fe:	9001      	str	r0, [sp, #4]
   ba100:	f64f 71ff 	movw	r1, #65535	; 0xffff
   ba104:	f7fd fd40 	bl	b7b88 <hal_spi_begin>
        unlock();
   ba108:	9801      	ldr	r0, [sp, #4]
    }
}
   ba10a:	b002      	add	sp, #8
   ba10c:	e8bd 4010 	ldmia.w	sp!, {r4, lr}
   ba110:	f7ff bfde 	b.w	ba0d0 <_ZN8SPIClass6unlockEv.isra.0>
   ba114:	b002      	add	sp, #8
   ba116:	bd10      	pop	{r4, pc}

000ba118 <_ZN8SPIClass14endTransactionEv>:
}

void SPIClass::endTransaction()
{
    // Release peripheral
    unlock();
   ba118:	7800      	ldrb	r0, [r0, #0]
   ba11a:	f7ff bfd9 	b.w	ba0d0 <_ZN8SPIClass6unlockEv.isra.0>
	...

000ba120 <_ZN8SPIClass19computeClockDividerEjjRhRj>:
void SPIClass::computeClockDivider(unsigned reference, unsigned targetSpeed, uint8_t& divider,
                                   unsigned& clock)
{
    clock = reference;
    uint8_t scale = 0;
    clock >>= 1; // div2 is the first
   ba120:	0840      	lsrs	r0, r0, #1
{
   ba122:	b530      	push	{r4, r5, lr}
    clock >>= 1; // div2 is the first
   ba124:	6018      	str	r0, [r3, #0]
   ba126:	2400      	movs	r4, #0
    while (clock > targetSpeed && scale < 7)
   ba128:	6818      	ldr	r0, [r3, #0]
   ba12a:	4288      	cmp	r0, r1
   ba12c:	b2e5      	uxtb	r5, r4
   ba12e:	d906      	bls.n	ba13e <_ZN8SPIClass19computeClockDividerEjjRhRj+0x1e>
   ba130:	3401      	adds	r4, #1
   ba132:	2c08      	cmp	r4, #8
   ba134:	d002      	beq.n	ba13c <_ZN8SPIClass19computeClockDividerEjjRhRj+0x1c>
    {
        clock >>= 1;
   ba136:	0840      	lsrs	r0, r0, #1
   ba138:	6018      	str	r0, [r3, #0]
    while (clock > targetSpeed && scale < 7)
   ba13a:	e7f5      	b.n	ba128 <_ZN8SPIClass19computeClockDividerEjjRhRj+0x8>
   ba13c:	2507      	movs	r5, #7
        scale++;
    }
    divider = clock_divisors[scale];
   ba13e:	4b02      	ldr	r3, [pc, #8]	; (ba148 <_ZN8SPIClass19computeClockDividerEjjRhRj+0x28>)
   ba140:	5d5b      	ldrb	r3, [r3, r5]
   ba142:	7013      	strb	r3, [r2, #0]
}
   ba144:	bd30      	pop	{r4, r5, pc}
   ba146:	bf00      	nop
   ba148:	000bce9c 	.word	0x000bce9c

000ba14c <_ZN8SPIClass16beginTransactionERKN8particle11SPISettingsE>:
{
   ba14c:	e92d 43f0 	stmdb	sp!, {r4, r5, r6, r7, r8, r9, lr}
   ba150:	4606      	mov	r6, r0
   ba152:	b08f      	sub	sp, #60	; 0x3c
    CHECK(lock());
   ba154:	7800      	ldrb	r0, [r0, #0]
{
   ba156:	460c      	mov	r4, r1
    CHECK(lock());
   ba158:	f7ff ffbd 	bl	ba0d6 <_ZN8SPIClass4lockEv.isra.0>
   ba15c:	2800      	cmp	r0, #0
   ba15e:	db1b      	blt.n	ba198 <_ZN8SPIClass16beginTransactionERKN8particle11SPISettingsE+0x4c>
    querySpiInfo(_spi, &spi_info);
   ba160:	7835      	ldrb	r5, [r6, #0]
    memset(info, 0, sizeof(hal_spi_info_t));
   ba162:	2214      	movs	r2, #20
   ba164:	2100      	movs	r1, #0
   ba166:	a809      	add	r0, sp, #36	; 0x24
   ba168:	f002 f968 	bl	bc43c <memset>
    info->version = HAL_SPI_INFO_VERSION_1;
   ba16c:	230b      	movs	r3, #11
    hal_spi_info(spi, info, nullptr);
   ba16e:	2200      	movs	r2, #0
   ba170:	a909      	add	r1, sp, #36	; 0x24
   ba172:	4628      	mov	r0, r5
    info->version = HAL_SPI_INFO_VERSION_1;
   ba174:	f8ad 3024 	strh.w	r3, [sp, #36]	; 0x24
    hal_spi_info(spi, info, nullptr);
   ba178:	f7fd fd26 	bl	b7bc8 <hal_spi_info>
    if (!info || !info->enabled || info->default_settings)
   ba17c:	f89d 302d 	ldrb.w	r3, [sp, #45]	; 0x2d
   ba180:	b113      	cbz	r3, ba188 <_ZN8SPIClass16beginTransactionERKN8particle11SPISettingsE+0x3c>
   ba182:	f89d 502c 	ldrb.w	r5, [sp, #44]	; 0x2c
   ba186:	b155      	cbz	r5, ba19e <_ZN8SPIClass16beginTransactionERKN8particle11SPISettingsE+0x52>
  {
   ba188:	2700      	movs	r7, #0
   ba18a:	46b9      	mov	r9, r7
   ba18c:	46b8      	mov	r8, r7
   ba18e:	2501      	movs	r5, #1
    if (default_ && other.default_)
   ba190:	7923      	ldrb	r3, [r4, #4]
   ba192:	b15d      	cbz	r5, ba1ac <_ZN8SPIClass16beginTransactionERKN8particle11SPISettingsE+0x60>
   ba194:	b1c3      	cbz	r3, ba1c8 <_ZN8SPIClass16beginTransactionERKN8particle11SPISettingsE+0x7c>
    return 0;
   ba196:	2000      	movs	r0, #0
}
   ba198:	b00f      	add	sp, #60	; 0x3c
   ba19a:	e8bd 83f0 	ldmia.w	sp!, {r4, r5, r6, r7, r8, r9, pc}
    return particle::SPISettings(info->clock, info->bit_order, info->data_mode);
   ba19e:	f8dd 8030 	ldr.w	r8, [sp, #48]	; 0x30
   ba1a2:	f89d 9034 	ldrb.w	r9, [sp, #52]	; 0x34
   ba1a6:	f89d 7035 	ldrb.w	r7, [sp, #53]	; 0x35
  }
   ba1aa:	e7f1      	b.n	ba190 <_ZN8SPIClass16beginTransactionERKN8particle11SPISettingsE+0x44>
    if (default_ == other.default_ &&
   ba1ac:	2b00      	cmp	r3, #0
   ba1ae:	d135      	bne.n	ba21c <_ZN8SPIClass16beginTransactionERKN8particle11SPISettingsE+0xd0>
   ba1b0:	68a3      	ldr	r3, [r4, #8]
   ba1b2:	4543      	cmp	r3, r8
   ba1b4:	d108      	bne.n	ba1c8 <_ZN8SPIClass16beginTransactionERKN8particle11SPISettingsE+0x7c>
        bitOrder_ == other.bitOrder_ &&
   ba1b6:	f88d 9020 	strb.w	r9, [sp, #32]
   ba1ba:	f88d 7021 	strb.w	r7, [sp, #33]	; 0x21
   ba1be:	f8bd 2020 	ldrh.w	r2, [sp, #32]
   ba1c2:	89a3      	ldrh	r3, [r4, #12]
   ba1c4:	429a      	cmp	r2, r3
   ba1c6:	d0e6      	beq.n	ba196 <_ZN8SPIClass16beginTransactionERKN8particle11SPISettingsE+0x4a>
            uint8_t divisor = 0;
   ba1c8:	2300      	movs	r3, #0
            computeClockDivider((unsigned int)spi_info.system_clock, settings.clock_, divisor,
   ba1ca:	68a1      	ldr	r1, [r4, #8]
            uint8_t divisor = 0;
   ba1cc:	f88d 300f 	strb.w	r3, [sp, #15]
            computeClockDivider((unsigned int)spi_info.system_clock, settings.clock_, divisor,
   ba1d0:	980a      	ldr	r0, [sp, #40]	; 0x28
   ba1d2:	ab04      	add	r3, sp, #16
   ba1d4:	f10d 020f 	add.w	r2, sp, #15
   ba1d8:	f7ff ffa2 	bl	ba120 <_ZN8SPIClass19computeClockDividerEjjRhRj>
    if (default_ && other.default_)
   ba1dc:	7921      	ldrb	r1, [r4, #4]
   ba1de:	b985      	cbnz	r5, ba202 <_ZN8SPIClass16beginTransactionERKN8particle11SPISettingsE+0xb6>
    if (default_ == other.default_ &&
   ba1e0:	b989      	cbnz	r1, ba206 <_ZN8SPIClass16beginTransactionERKN8particle11SPISettingsE+0xba>
   ba1e2:	68a3      	ldr	r3, [r4, #8]
   ba1e4:	4543      	cmp	r3, r8
   ba1e6:	d30e      	bcc.n	ba206 <_ZN8SPIClass16beginTransactionERKN8particle11SPISettingsE+0xba>
        bitOrder_ == other.bitOrder_ &&
   ba1e8:	f88d 9020 	strb.w	r9, [sp, #32]
   ba1ec:	f88d 7021 	strb.w	r7, [sp, #33]	; 0x21
   ba1f0:	f8bd 2020 	ldrh.w	r2, [sp, #32]
   ba1f4:	89a3      	ldrh	r3, [r4, #12]
   ba1f6:	429a      	cmp	r2, r3
   ba1f8:	d105      	bne.n	ba206 <_ZN8SPIClass16beginTransactionERKN8particle11SPISettingsE+0xba>
            if (!(spi_settings <= settings && clock == spi_settings.clock_))
   ba1fa:	9b04      	ldr	r3, [sp, #16]
   ba1fc:	4543      	cmp	r3, r8
   ba1fe:	d102      	bne.n	ba206 <_ZN8SPIClass16beginTransactionERKN8particle11SPISettingsE+0xba>
   ba200:	e7c9      	b.n	ba196 <_ZN8SPIClass16beginTransactionERKN8particle11SPISettingsE+0x4a>
    if (default_ && other.default_)
   ba202:	2900      	cmp	r1, #0
   ba204:	d1f9      	bne.n	ba1fa <_ZN8SPIClass16beginTransactionERKN8particle11SPISettingsE+0xae>
                hal_spi_set_settings(_spi, settings.default_, divisor, settings.bitOrder_,
   ba206:	2300      	movs	r3, #0
   ba208:	9301      	str	r3, [sp, #4]
   ba20a:	7b63      	ldrb	r3, [r4, #13]
   ba20c:	9300      	str	r3, [sp, #0]
   ba20e:	f89d 200f 	ldrb.w	r2, [sp, #15]
   ba212:	7b23      	ldrb	r3, [r4, #12]
            hal_spi_set_settings(_spi, settings.default_, 0, 0, 0, nullptr);
   ba214:	7830      	ldrb	r0, [r6, #0]
   ba216:	f7fd fcef 	bl	b7bf8 <hal_spi_set_settings>
   ba21a:	e7bc      	b.n	ba196 <_ZN8SPIClass16beginTransactionERKN8particle11SPISettingsE+0x4a>
   ba21c:	e9cd 5500 	strd	r5, r5, [sp]
   ba220:	462b      	mov	r3, r5
   ba222:	462a      	mov	r2, r5
   ba224:	2101      	movs	r1, #1
   ba226:	e7f5      	b.n	ba214 <_ZN8SPIClass16beginTransactionERKN8particle11SPISettingsE+0xc8>

000ba228 <_ZN8SPIClass8transferEh>:

    return clock;
}

byte SPIClass::transfer(byte _data)
{
   ba228:	b508      	push	{r3, lr}
    return static_cast<byte>(hal_spi_transfer(_spi, _data));
   ba22a:	7800      	ldrb	r0, [r0, #0]
   ba22c:	f7fd fcb4 	bl	b7b98 <hal_spi_transfer>
}
   ba230:	b2c0      	uxtb	r0, r0
   ba232:	bd08      	pop	{r3, pc}

000ba234 <_ZN8SPIClass8transferEPKvPvjPFvvE>:

void SPIClass::transfer(const void* tx_buffer, void* rx_buffer, size_t length,
                        wiring_spi_dma_transfercomplete_callback_t user_callback)
{
   ba234:	b530      	push	{r4, r5, lr}
   ba236:	b087      	sub	sp, #28
   ba238:	4604      	mov	r4, r0
   ba23a:	9d0a      	ldr	r5, [sp, #40]	; 0x28
    hal_spi_transfer_dma(_spi, tx_buffer, rx_buffer, length, user_callback);
   ba23c:	9500      	str	r5, [sp, #0]
   ba23e:	7800      	ldrb	r0, [r0, #0]
   ba240:	f7fd fcca 	bl	b7bd8 <hal_spi_transfer_dma>
    if (user_callback == NULL)
   ba244:	b93d      	cbnz	r5, ba256 <_ZN8SPIClass8transferEPKvPvjPFvvE+0x22>
    {
        hal_spi_transfer_status_t st;
        do
        {
            hal_spi_transfer_dma_status(_spi, &st);
   ba246:	7820      	ldrb	r0, [r4, #0]
   ba248:	a902      	add	r1, sp, #8
   ba24a:	f7fd fccd 	bl	b7be8 <hal_spi_transfer_dma_status>
        } while (st.transfer_ongoing);
   ba24e:	f89d 3014 	ldrb.w	r3, [sp, #20]
   ba252:	07db      	lsls	r3, r3, #31
   ba254:	d4f7      	bmi.n	ba246 <_ZN8SPIClass8transferEPKvPvjPFvvE+0x12>
    }
}
   ba256:	b007      	add	sp, #28
   ba258:	bd30      	pop	{r4, r5, pc}
	...

000ba25c <_Z4dtoadhPc>:
#include "string_convert.h"

//These are very crude implementations - will refine later
//------------------------------------------------------------------------------------------

void dtoa (double val, unsigned char prec, char *sout) {
   ba25c:	e92d 4ff1 	stmdb	sp!, {r0, r4, r5, r6, r7, r8, r9, sl, fp, lr}
   ba260:	ec57 6b10 	vmov	r6, r7, d0
   ba264:	4680      	mov	r8, r0
   ba266:	460c      	mov	r4, r1
    bool negative = val<0;
    if (negative) {
   ba268:	ee10 0a10 	vmov	r0, s0
   ba26c:	2200      	movs	r2, #0
   ba26e:	2300      	movs	r3, #0
   ba270:	4639      	mov	r1, r7
   ba272:	f001 fe27 	bl	bbec4 <__aeabi_dcmplt>
   ba276:	b128      	cbz	r0, ba284 <_Z4dtoadhPc+0x28>
        val = -val;
   ba278:	f107 4300 	add.w	r3, r7, #2147483648	; 0x80000000
   ba27c:	461f      	mov	r7, r3
        *sout++ = '-';
   ba27e:	232d      	movs	r3, #45	; 0x2d
   ba280:	f804 3b01 	strb.w	r3, [r4], #1
   ba284:	2300      	movs	r3, #0
    }
    long scale = 1;
   ba286:	f04f 0901 	mov.w	r9, #1
    for (uint8_t i=0; i<prec; i++)
        scale *= 10;
   ba28a:	220a      	movs	r2, #10
    for (uint8_t i=0; i<prec; i++)
   ba28c:	b2d9      	uxtb	r1, r3
   ba28e:	4588      	cmp	r8, r1
   ba290:	d903      	bls.n	ba29a <_Z4dtoadhPc+0x3e>
        scale *= 10;
   ba292:	fb02 f909 	mul.w	r9, r2, r9
    for (uint8_t i=0; i<prec; i++)
   ba296:	3301      	adds	r3, #1
   ba298:	e7f8      	b.n	ba28c <_Z4dtoadhPc+0x30>
    val *= scale;   // capture all the significant digits
   ba29a:	4648      	mov	r0, r9
   ba29c:	f001 fb36 	bl	bb90c <__aeabi_i2d>
   ba2a0:	4632      	mov	r2, r6
   ba2a2:	463b      	mov	r3, r7
   ba2a4:	f001 fb9c 	bl	bb9e0 <__aeabi_dmul>
   ba2a8:	4606      	mov	r6, r0
   ba2aa:	460f      	mov	r7, r1
    uint64_t fixed = uint64_t(val);
   ba2ac:	f001 fef8 	bl	bc0a0 <__aeabi_d2ulz>
   ba2b0:	468a      	mov	sl, r1
   ba2b2:	4605      	mov	r5, r0
   ba2b4:	468b      	mov	fp, r1
    if ((val-fixed)>=0.5)    // round last digit
   ba2b6:	f001 fb5d 	bl	bb974 <__aeabi_ul2d>
   ba2ba:	4602      	mov	r2, r0
   ba2bc:	460b      	mov	r3, r1
   ba2be:	4630      	mov	r0, r6
   ba2c0:	4639      	mov	r1, r7
   ba2c2:	f001 f9d5 	bl	bb670 <__aeabi_dsub>
   ba2c6:	4b14      	ldr	r3, [pc, #80]	; (ba318 <_Z4dtoadhPc+0xbc>)
   ba2c8:	2200      	movs	r2, #0
   ba2ca:	f001 fe0f 	bl	bbeec <__aeabi_dcmpge>
   ba2ce:	b110      	cbz	r0, ba2d6 <_Z4dtoadhPc+0x7a>
        fixed++;
   ba2d0:	3501      	adds	r5, #1
   ba2d2:	f14a 0b00 	adc.w	fp, sl, #0

    unsigned long first = (unsigned long)(fixed / scale);
   ba2d6:	464a      	mov	r2, r9
   ba2d8:	4628      	mov	r0, r5
   ba2da:	17d3      	asrs	r3, r2, #31
   ba2dc:	4659      	mov	r1, fp
   ba2de:	f001 fec7 	bl	bc070 <__aeabi_uldivmod>
    unsigned long second = (unsigned long)(fixed % scale);

    ultoa(first, sout, 10, 1);
   ba2e2:	2301      	movs	r3, #1
   ba2e4:	4615      	mov	r5, r2
   ba2e6:	4621      	mov	r1, r4
   ba2e8:	220a      	movs	r2, #10
   ba2ea:	f000 fb62 	bl	ba9b2 <ultoa>
    if (prec) {
   ba2ee:	f1b8 0f00 	cmp.w	r8, #0
   ba2f2:	d00e      	beq.n	ba312 <_Z4dtoadhPc+0xb6>
        sout += strlen(sout);
   ba2f4:	4620      	mov	r0, r4
   ba2f6:	f002 f93e 	bl	bc576 <strlen>
        *sout++ = '.';
   ba2fa:	232e      	movs	r3, #46	; 0x2e
        sout += strlen(sout);
   ba2fc:	1821      	adds	r1, r4, r0
        *sout++ = '.';
   ba2fe:	5423      	strb	r3, [r4, r0]
        ultoa(second, sout, 10, prec);
   ba300:	220a      	movs	r2, #10
   ba302:	4643      	mov	r3, r8
   ba304:	3101      	adds	r1, #1
   ba306:	4628      	mov	r0, r5
    }
}
   ba308:	b001      	add	sp, #4
   ba30a:	e8bd 4ff0 	ldmia.w	sp!, {r4, r5, r6, r7, r8, r9, sl, fp, lr}
        ultoa(second, sout, 10, prec);
   ba30e:	f000 bb50 	b.w	ba9b2 <ultoa>
}
   ba312:	b001      	add	sp, #4
   ba314:	e8bd 8ff0 	ldmia.w	sp!, {r4, r5, r6, r7, r8, r9, sl, fp, pc}
   ba318:	3fe00000 	.word	0x3fe00000

000ba31c <_ZN6StringD1Ev>:
	init();
	char buf[33];
	dtoa(value, decimalPlaces, buf);
        *this = buf;
}
String::~String()
   ba31c:	b510      	push	{r4, lr}
   ba31e:	4604      	mov	r4, r0
{
	free(buffer);
   ba320:	6800      	ldr	r0, [r0, #0]
   ba322:	f7fd fe0b 	bl	b7f3c <free>
}
   ba326:	4620      	mov	r0, r4
   ba328:	bd10      	pop	{r4, pc}

000ba32a <_ZN6String10invalidateEv>:
	len = 0;
	flags = 0;
}

void String::invalidate(void)
{
   ba32a:	b510      	push	{r4, lr}
   ba32c:	4604      	mov	r4, r0
	if (buffer) free(buffer);
   ba32e:	6800      	ldr	r0, [r0, #0]
   ba330:	b108      	cbz	r0, ba336 <_ZN6String10invalidateEv+0xc>
   ba332:	f7fd fe03 	bl	b7f3c <free>
	buffer = NULL;
   ba336:	2300      	movs	r3, #0
	capacity = len = 0;
   ba338:	e9c4 3301 	strd	r3, r3, [r4, #4]
	buffer = NULL;
   ba33c:	6023      	str	r3, [r4, #0]
}
   ba33e:	bd10      	pop	{r4, pc}

000ba340 <_ZN6String12changeBufferEj>:
	}
	return 0;
}

unsigned char String::changeBuffer(unsigned int maxStrLen)
{
   ba340:	b538      	push	{r3, r4, r5, lr}
   ba342:	4604      	mov	r4, r0
   ba344:	460d      	mov	r5, r1
	char *newbuffer = (char *)realloc(buffer, maxStrLen + 1);
   ba346:	6800      	ldr	r0, [r0, #0]
   ba348:	3101      	adds	r1, #1
   ba34a:	f7fd fdff 	bl	b7f4c <realloc>
	if (newbuffer) {
   ba34e:	b110      	cbz	r0, ba356 <_ZN6String12changeBufferEj+0x16>
		buffer = newbuffer;
		capacity = maxStrLen;
   ba350:	e9c4 0500 	strd	r0, r5, [r4]
		return 1;
   ba354:	2001      	movs	r0, #1
	}
	return 0;
}
   ba356:	bd38      	pop	{r3, r4, r5, pc}

000ba358 <_ZN6String7reserveEj>:
{
   ba358:	b510      	push	{r4, lr}
	if (buffer && capacity >= size) return 1;
   ba35a:	6803      	ldr	r3, [r0, #0]
{
   ba35c:	4604      	mov	r4, r0
	if (buffer && capacity >= size) return 1;
   ba35e:	b123      	cbz	r3, ba36a <_ZN6String7reserveEj+0x12>
   ba360:	6843      	ldr	r3, [r0, #4]
   ba362:	428b      	cmp	r3, r1
   ba364:	d301      	bcc.n	ba36a <_ZN6String7reserveEj+0x12>
   ba366:	2001      	movs	r0, #1
}
   ba368:	bd10      	pop	{r4, pc}
	if (changeBuffer(size)) {
   ba36a:	4620      	mov	r0, r4
   ba36c:	f7ff ffe8 	bl	ba340 <_ZN6String12changeBufferEj>
   ba370:	2800      	cmp	r0, #0
   ba372:	d0f9      	beq.n	ba368 <_ZN6String7reserveEj+0x10>
		if (len == 0) buffer[0] = 0;
   ba374:	68a3      	ldr	r3, [r4, #8]
   ba376:	2b00      	cmp	r3, #0
   ba378:	d1f5      	bne.n	ba366 <_ZN6String7reserveEj+0xe>
   ba37a:	6822      	ldr	r2, [r4, #0]
   ba37c:	7013      	strb	r3, [r2, #0]
   ba37e:	e7f2      	b.n	ba366 <_ZN6String7reserveEj+0xe>

000ba380 <_ZN6String4copyEPKcj>:
/*********************************************/
/*  Copy and Move                            */
/*********************************************/

String & String::copy(const char *cstr, unsigned int length)
{
   ba380:	b537      	push	{r0, r1, r2, r4, r5, lr}
   ba382:	460d      	mov	r5, r1
	if (!reserve(length)) {
   ba384:	4611      	mov	r1, r2
   ba386:	9201      	str	r2, [sp, #4]
{
   ba388:	4604      	mov	r4, r0
	if (!reserve(length)) {
   ba38a:	f7ff ffe5 	bl	ba358 <_ZN6String7reserveEj>
   ba38e:	9a01      	ldr	r2, [sp, #4]
   ba390:	b928      	cbnz	r0, ba39e <_ZN6String4copyEPKcj+0x1e>
		invalidate();
   ba392:	4620      	mov	r0, r4
   ba394:	f7ff ffc9 	bl	ba32a <_ZN6String10invalidateEv>
	}
	len = length;
	memcpy(buffer, cstr, length);
	buffer[len] = 0;
	return *this;
}
   ba398:	4620      	mov	r0, r4
   ba39a:	b003      	add	sp, #12
   ba39c:	bd30      	pop	{r4, r5, pc}
	len = length;
   ba39e:	60a2      	str	r2, [r4, #8]
	memcpy(buffer, cstr, length);
   ba3a0:	4629      	mov	r1, r5
   ba3a2:	6820      	ldr	r0, [r4, #0]
   ba3a4:	f002 f822 	bl	bc3ec <memcpy>
	buffer[len] = 0;
   ba3a8:	6822      	ldr	r2, [r4, #0]
   ba3aa:	68a3      	ldr	r3, [r4, #8]
   ba3ac:	2100      	movs	r1, #0
   ba3ae:	54d1      	strb	r1, [r2, r3]
	return *this;
   ba3b0:	e7f2      	b.n	ba398 <_ZN6String4copyEPKcj+0x18>

000ba3b2 <_ZN6StringC1EPK19__FlashStringHelper>:
	buffer = NULL;
   ba3b2:	2300      	movs	r3, #0
String::String(const __FlashStringHelper *pstr)
   ba3b4:	b513      	push	{r0, r1, r4, lr}
	capacity = 0;
   ba3b6:	e9c0 3300 	strd	r3, r3, [r0]
String::String(const __FlashStringHelper *pstr)
   ba3ba:	4604      	mov	r4, r0
	len = 0;
   ba3bc:	6083      	str	r3, [r0, #8]
	flags = 0;
   ba3be:	7303      	strb	r3, [r0, #12]
	if (cstr) copy(cstr, strlen(cstr));
   ba3c0:	b141      	cbz	r1, ba3d4 <_ZN6StringC1EPK19__FlashStringHelper+0x22>
	if (cstr) copy(cstr, strlen(cstr));
   ba3c2:	4608      	mov	r0, r1
   ba3c4:	9101      	str	r1, [sp, #4]
   ba3c6:	f002 f8d6 	bl	bc576 <strlen>
   ba3ca:	9901      	ldr	r1, [sp, #4]
   ba3cc:	4602      	mov	r2, r0
   ba3ce:	4620      	mov	r0, r4
   ba3d0:	f7ff ffd6 	bl	ba380 <_ZN6String4copyEPKcj>
}
   ba3d4:	4620      	mov	r0, r4
   ba3d6:	b002      	add	sp, #8
   ba3d8:	bd10      	pop	{r4, pc}

000ba3da <_ZN6String4moveERS_>:
    return copy(reinterpret_cast<const char*>(pstr), length);
}

#ifdef __GXX_EXPERIMENTAL_CXX0X__
void String::move(String &rhs)
{
   ba3da:	b538      	push	{r3, r4, r5, lr}
   ba3dc:	4605      	mov	r5, r0
	if (buffer) {
   ba3de:	6800      	ldr	r0, [r0, #0]
{
   ba3e0:	460c      	mov	r4, r1
	if (buffer) {
   ba3e2:	b168      	cbz	r0, ba400 <_ZN6String4moveERS_+0x26>
		if (capacity >= rhs.len) {
   ba3e4:	686a      	ldr	r2, [r5, #4]
   ba3e6:	688b      	ldr	r3, [r1, #8]
   ba3e8:	429a      	cmp	r2, r3
   ba3ea:	d307      	bcc.n	ba3fc <_ZN6String4moveERS_+0x22>
			strcpy(buffer, rhs.buffer);
   ba3ec:	6809      	ldr	r1, [r1, #0]
   ba3ee:	f002 f8ba 	bl	bc566 <strcpy>
			len = rhs.len;
   ba3f2:	68a3      	ldr	r3, [r4, #8]
   ba3f4:	60ab      	str	r3, [r5, #8]
			rhs.len = 0;
   ba3f6:	2300      	movs	r3, #0
	buffer = rhs.buffer;
	capacity = rhs.capacity;
	len = rhs.len;
	rhs.buffer = NULL;
	rhs.capacity = 0;
	rhs.len = 0;
   ba3f8:	60a3      	str	r3, [r4, #8]
}
   ba3fa:	bd38      	pop	{r3, r4, r5, pc}
			free(buffer);
   ba3fc:	f7fd fd9e 	bl	b7f3c <free>
	buffer = rhs.buffer;
   ba400:	6823      	ldr	r3, [r4, #0]
   ba402:	602b      	str	r3, [r5, #0]
	capacity = rhs.capacity;
   ba404:	6863      	ldr	r3, [r4, #4]
   ba406:	606b      	str	r3, [r5, #4]
	len = rhs.len;
   ba408:	68a3      	ldr	r3, [r4, #8]
   ba40a:	60ab      	str	r3, [r5, #8]
	rhs.buffer = NULL;
   ba40c:	2300      	movs	r3, #0
	rhs.capacity = 0;
   ba40e:	e9c4 3300 	strd	r3, r3, [r4]
   ba412:	e7f1      	b.n	ba3f8 <_ZN6String4moveERS_+0x1e>

000ba414 <_ZN6StringC1EOS_>:
String::String(String &&rval)
   ba414:	b510      	push	{r4, lr}
	buffer = NULL;
   ba416:	2300      	movs	r3, #0
	capacity = 0;
   ba418:	e9c0 3300 	strd	r3, r3, [r0]
String::String(String &&rval)
   ba41c:	4604      	mov	r4, r0
	len = 0;
   ba41e:	6083      	str	r3, [r0, #8]
	flags = 0;
   ba420:	7303      	strb	r3, [r0, #12]
	move(rval);
   ba422:	f7ff ffda 	bl	ba3da <_ZN6String4moveERS_>
}
   ba426:	4620      	mov	r0, r4
   ba428:	bd10      	pop	{r4, pc}

000ba42a <_ZN6StringaSERKS_>:
#endif

String & String::operator = (const String &rhs)
{
	if (this == &rhs) return *this;
   ba42a:	4288      	cmp	r0, r1
{
   ba42c:	b510      	push	{r4, lr}
   ba42e:	4604      	mov	r4, r0
	if (this == &rhs) return *this;
   ba430:	d005      	beq.n	ba43e <_ZN6StringaSERKS_+0x14>

	if (rhs.buffer) copy(rhs.buffer, rhs.len);
   ba432:	680b      	ldr	r3, [r1, #0]
   ba434:	b12b      	cbz	r3, ba442 <_ZN6StringaSERKS_+0x18>
   ba436:	688a      	ldr	r2, [r1, #8]
   ba438:	4619      	mov	r1, r3
   ba43a:	f7ff ffa1 	bl	ba380 <_ZN6String4copyEPKcj>
	else invalidate();

	return *this;
}
   ba43e:	4620      	mov	r0, r4
   ba440:	bd10      	pop	{r4, pc}
	else invalidate();
   ba442:	f7ff ff72 	bl	ba32a <_ZN6String10invalidateEv>
   ba446:	e7fa      	b.n	ba43e <_ZN6StringaSERKS_+0x14>

000ba448 <_ZN6StringC1ERKS_>:
String::String(const String &value)
   ba448:	b510      	push	{r4, lr}
	buffer = NULL;
   ba44a:	2300      	movs	r3, #0
String::String(const String &value)
   ba44c:	4604      	mov	r4, r0
	capacity = 0;
   ba44e:	e9c0 3300 	strd	r3, r3, [r0]
	len = 0;
   ba452:	6083      	str	r3, [r0, #8]
	flags = 0;
   ba454:	7303      	strb	r3, [r0, #12]
	*this = value;
   ba456:	f7ff ffe8 	bl	ba42a <_ZN6StringaSERKS_>
}
   ba45a:	4620      	mov	r0, r4
   ba45c:	bd10      	pop	{r4, pc}

000ba45e <_ZN6StringaSEOS_>:
}

#ifdef __GXX_EXPERIMENTAL_CXX0X__
String & String::operator = (String &&rval)
{
	if (this != &rval) move(rval);
   ba45e:	4288      	cmp	r0, r1
{
   ba460:	b510      	push	{r4, lr}
   ba462:	4604      	mov	r4, r0
	if (this != &rval) move(rval);
   ba464:	d001      	beq.n	ba46a <_ZN6StringaSEOS_+0xc>
   ba466:	f7ff ffb8 	bl	ba3da <_ZN6String4moveERS_>
	return *this;
}
   ba46a:	4620      	mov	r0, r4
   ba46c:	bd10      	pop	{r4, pc}

000ba46e <_ZN6StringaSEPKc>:
	return *this;
}
#endif

String & String::operator = (const char *cstr)
{
   ba46e:	b513      	push	{r0, r1, r4, lr}
   ba470:	4604      	mov	r4, r0
	if (cstr) copy(cstr, strlen(cstr));
   ba472:	b159      	cbz	r1, ba48c <_ZN6StringaSEPKc+0x1e>
   ba474:	4608      	mov	r0, r1
   ba476:	9101      	str	r1, [sp, #4]
   ba478:	f002 f87d 	bl	bc576 <strlen>
   ba47c:	9901      	ldr	r1, [sp, #4]
   ba47e:	4602      	mov	r2, r0
   ba480:	4620      	mov	r0, r4
   ba482:	f7ff ff7d 	bl	ba380 <_ZN6String4copyEPKcj>
	else invalidate();

	return *this;
}
   ba486:	4620      	mov	r0, r4
   ba488:	b002      	add	sp, #8
   ba48a:	bd10      	pop	{r4, pc}
	else invalidate();
   ba48c:	f7ff ff4d 	bl	ba32a <_ZN6String10invalidateEv>
   ba490:	e7f9      	b.n	ba486 <_ZN6StringaSEPKc+0x18>

000ba492 <_ZN6StringC1Efi>:
String::String(float value, int decimalPlaces)
   ba492:	b530      	push	{r4, r5, lr}
   ba494:	4604      	mov	r4, r0
	buffer = NULL;
   ba496:	2300      	movs	r3, #0
String::String(float value, int decimalPlaces)
   ba498:	b08b      	sub	sp, #44	; 0x2c
	capacity = 0;
   ba49a:	e9c4 3300 	strd	r3, r3, [r4]
	len = 0;
   ba49e:	60a3      	str	r3, [r4, #8]
	flags = 0;
   ba4a0:	7323      	strb	r3, [r4, #12]
String::String(float value, int decimalPlaces)
   ba4a2:	ee10 0a10 	vmov	r0, s0
	dtoa(value, decimalPlaces, buf);
   ba4a6:	b2cd      	uxtb	r5, r1
   ba4a8:	f001 fa42 	bl	bb930 <__aeabi_f2d>
   ba4ac:	ec41 0b10 	vmov	d0, r0, r1
   ba4b0:	a901      	add	r1, sp, #4
   ba4b2:	4628      	mov	r0, r5
   ba4b4:	f7ff fed2 	bl	ba25c <_Z4dtoadhPc>
        *this = buf;
   ba4b8:	a901      	add	r1, sp, #4
   ba4ba:	4620      	mov	r0, r4
   ba4bc:	f7ff ffd7 	bl	ba46e <_ZN6StringaSEPKc>
}
   ba4c0:	4620      	mov	r0, r4
   ba4c2:	b00b      	add	sp, #44	; 0x2c
   ba4c4:	bd30      	pop	{r4, r5, pc}

000ba4c6 <_ZN6StringC1Edi>:
String::String(double value, int decimalPlaces)
   ba4c6:	b510      	push	{r4, lr}
   ba4c8:	4604      	mov	r4, r0
   ba4ca:	b08a      	sub	sp, #40	; 0x28
	buffer = NULL;
   ba4cc:	2300      	movs	r3, #0
String::String(double value, int decimalPlaces)
   ba4ce:	4608      	mov	r0, r1
	capacity = 0;
   ba4d0:	e9c4 3300 	strd	r3, r3, [r4]
	len = 0;
   ba4d4:	60a3      	str	r3, [r4, #8]
	flags = 0;
   ba4d6:	7323      	strb	r3, [r4, #12]
	dtoa(value, decimalPlaces, buf);
   ba4d8:	a901      	add	r1, sp, #4
   ba4da:	b2c0      	uxtb	r0, r0
   ba4dc:	f7ff febe 	bl	ba25c <_Z4dtoadhPc>
        *this = buf;
   ba4e0:	a901      	add	r1, sp, #4
   ba4e2:	4620      	mov	r0, r4
   ba4e4:	f7ff ffc3 	bl	ba46e <_ZN6StringaSEPKc>
}
   ba4e8:	4620      	mov	r0, r4
   ba4ea:	b00a      	add	sp, #40	; 0x28
   ba4ec:	bd10      	pop	{r4, pc}

000ba4ee <_ZN6String6concatEPKcj>:
{
	return concat(s.buffer, s.len);
}

unsigned char String::concat(const char *cstr, unsigned int length)
{
   ba4ee:	b570      	push	{r4, r5, r6, lr}
   ba4f0:	4605      	mov	r5, r0
	unsigned int newlen = len + length;
	if (!cstr) return 0;
   ba4f2:	460e      	mov	r6, r1
   ba4f4:	b909      	cbnz	r1, ba4fa <_ZN6String6concatEPKcj+0xc>
   ba4f6:	2000      	movs	r0, #0
	if (length == 0) return 1;
	if (!reserve(newlen)) return 0;
	strcpy(buffer + len, cstr);
	len = newlen;
	return 1;
}
   ba4f8:	bd70      	pop	{r4, r5, r6, pc}
	if (length == 0) return 1;
   ba4fa:	b16a      	cbz	r2, ba518 <_ZN6String6concatEPKcj+0x2a>
	unsigned int newlen = len + length;
   ba4fc:	6884      	ldr	r4, [r0, #8]
   ba4fe:	4414      	add	r4, r2
	if (!reserve(newlen)) return 0;
   ba500:	4621      	mov	r1, r4
   ba502:	f7ff ff29 	bl	ba358 <_ZN6String7reserveEj>
   ba506:	2800      	cmp	r0, #0
   ba508:	d0f5      	beq.n	ba4f6 <_ZN6String6concatEPKcj+0x8>
	strcpy(buffer + len, cstr);
   ba50a:	6828      	ldr	r0, [r5, #0]
   ba50c:	68ab      	ldr	r3, [r5, #8]
   ba50e:	4631      	mov	r1, r6
   ba510:	4418      	add	r0, r3
   ba512:	f002 f828 	bl	bc566 <strcpy>
	len = newlen;
   ba516:	60ac      	str	r4, [r5, #8]
	if (length == 0) return 1;
   ba518:	2001      	movs	r0, #1
   ba51a:	e7ed      	b.n	ba4f8 <_ZN6String6concatEPKcj+0xa>

000ba51c <_ZplRK15StringSumHelperRK6String>:
/*********************************************/
/*  Concatenate                              */
/*********************************************/

StringSumHelper & operator + (const StringSumHelper &lhs, const String &rhs)
{
   ba51c:	b510      	push	{r4, lr}
	StringSumHelper &a = const_cast<StringSumHelper&>(lhs);
	if (!a.concat(rhs.buffer, rhs.len)) a.invalidate();
   ba51e:	688a      	ldr	r2, [r1, #8]
   ba520:	6809      	ldr	r1, [r1, #0]
{
   ba522:	4604      	mov	r4, r0
	if (!a.concat(rhs.buffer, rhs.len)) a.invalidate();
   ba524:	f7ff ffe3 	bl	ba4ee <_ZN6String6concatEPKcj>
   ba528:	b910      	cbnz	r0, ba530 <_ZplRK15StringSumHelperRK6String+0x14>
   ba52a:	4620      	mov	r0, r4
   ba52c:	f7ff fefd 	bl	ba32a <_ZN6String10invalidateEv>
	return a;
}
   ba530:	4620      	mov	r0, r4
   ba532:	bd10      	pop	{r4, pc}

000ba534 <_ZplRK15StringSumHelperPKc>:

StringSumHelper & operator + (const StringSumHelper &lhs, const char *cstr)
{
   ba534:	b513      	push	{r0, r1, r4, lr}
   ba536:	4604      	mov	r4, r0
	StringSumHelper &a = const_cast<StringSumHelper&>(lhs);
	if (!cstr || !a.concat(cstr, strlen(cstr))) a.invalidate();
   ba538:	b929      	cbnz	r1, ba546 <_ZplRK15StringSumHelperPKc+0x12>
   ba53a:	4620      	mov	r0, r4
   ba53c:	f7ff fef5 	bl	ba32a <_ZN6String10invalidateEv>
	return a;
}
   ba540:	4620      	mov	r0, r4
   ba542:	b002      	add	sp, #8
   ba544:	bd10      	pop	{r4, pc}
	if (!cstr || !a.concat(cstr, strlen(cstr))) a.invalidate();
   ba546:	4608      	mov	r0, r1
   ba548:	9101      	str	r1, [sp, #4]
   ba54a:	f002 f814 	bl	bc576 <strlen>
   ba54e:	9901      	ldr	r1, [sp, #4]
   ba550:	4602      	mov	r2, r0
   ba552:	4620      	mov	r0, r4
   ba554:	f7ff ffcb 	bl	ba4ee <_ZN6String6concatEPKcj>
   ba558:	2800      	cmp	r0, #0
   ba55a:	d0ee      	beq.n	ba53a <_ZplRK15StringSumHelperPKc+0x6>
   ba55c:	e7f0      	b.n	ba540 <_ZplRK15StringSumHelperPKc+0xc>

000ba55e <_ZNK6String6equalsEPKc>:
{
	return (len == s2.len && compareTo(s2) == 0);
}

unsigned char String::equals(const char *cstr) const
{
   ba55e:	b508      	push	{r3, lr}
	if (len == 0) return (cstr == NULL || *cstr == 0);
   ba560:	6882      	ldr	r2, [r0, #8]
   ba562:	b93a      	cbnz	r2, ba574 <_ZNK6String6equalsEPKc+0x16>
   ba564:	b121      	cbz	r1, ba570 <_ZNK6String6equalsEPKc+0x12>
   ba566:	7808      	ldrb	r0, [r1, #0]
	if (cstr == NULL) return buffer[0] == 0;
	return strcmp(buffer, cstr) == 0;
   ba568:	fab0 f080 	clz	r0, r0
   ba56c:	0940      	lsrs	r0, r0, #5
   ba56e:	e000      	b.n	ba572 <_ZNK6String6equalsEPKc+0x14>
	if (len == 0) return (cstr == NULL || *cstr == 0);
   ba570:	2001      	movs	r0, #1
}
   ba572:	bd08      	pop	{r3, pc}
	if (cstr == NULL) return buffer[0] == 0;
   ba574:	6800      	ldr	r0, [r0, #0]
   ba576:	b909      	cbnz	r1, ba57c <_ZNK6String6equalsEPKc+0x1e>
   ba578:	7800      	ldrb	r0, [r0, #0]
   ba57a:	e7f5      	b.n	ba568 <_ZNK6String6equalsEPKc+0xa>
	return strcmp(buffer, cstr) == 0;
   ba57c:	f001 ffe9 	bl	bc552 <strcmp>
   ba580:	e7f2      	b.n	ba568 <_ZNK6String6equalsEPKc+0xa>

000ba582 <_ZNK6String8getBytesEPhjj>:
	if (index >= len || !buffer) return 0;
	return buffer[index];
}

void String::getBytes(unsigned char *buf, unsigned int bufsize, unsigned int index) const
{
   ba582:	b558      	push	{r3, r4, r6, lr}
   ba584:	460e      	mov	r6, r1
	if (!bufsize || !buf) return;
   ba586:	b12a      	cbz	r2, ba594 <_ZNK6String8getBytesEPhjj+0x12>
   ba588:	b121      	cbz	r1, ba594 <_ZNK6String8getBytesEPhjj+0x12>
	if (index >= len) {
   ba58a:	6884      	ldr	r4, [r0, #8]
   ba58c:	42a3      	cmp	r3, r4
   ba58e:	d302      	bcc.n	ba596 <_ZNK6String8getBytesEPhjj+0x14>
		buf[0] = 0;
   ba590:	2300      	movs	r3, #0
   ba592:	700b      	strb	r3, [r1, #0]
	}
	unsigned int n = bufsize - 1;
	if (n > len - index) n = len - index;
	strncpy((char *)buf, buffer + index, n);
	buf[n] = 0;
}
   ba594:	bd58      	pop	{r3, r4, r6, pc}
	if (n > len - index) n = len - index;
   ba596:	1ae4      	subs	r4, r4, r3
	unsigned int n = bufsize - 1;
   ba598:	3a01      	subs	r2, #1
	strncpy((char *)buf, buffer + index, n);
   ba59a:	6801      	ldr	r1, [r0, #0]
   ba59c:	4294      	cmp	r4, r2
   ba59e:	bf28      	it	cs
   ba5a0:	4614      	movcs	r4, r2
   ba5a2:	4419      	add	r1, r3
   ba5a4:	4622      	mov	r2, r4
   ba5a6:	4630      	mov	r0, r6
   ba5a8:	f002 f801 	bl	bc5ae <strncpy>
	buf[n] = 0;
   ba5ac:	2300      	movs	r3, #0
   ba5ae:	5533      	strb	r3, [r6, r4]
   ba5b0:	e7f0      	b.n	ba594 <_ZNK6String8getBytesEPhjj+0x12>
	...

000ba5b4 <_ZNK6String9substringEjj>:
{
	return substring(left, len);
}

String String::substring(unsigned int left, unsigned int right) const
{
   ba5b4:	b5f8      	push	{r3, r4, r5, r6, r7, lr}
	if (left > right) {
   ba5b6:	429a      	cmp	r2, r3
{
   ba5b8:	460f      	mov	r7, r1
   ba5ba:	461d      	mov	r5, r3
		unsigned int temp = right;
		right = left;
		left = temp;
	}
	String out;
   ba5bc:	490c      	ldr	r1, [pc, #48]	; (ba5f0 <_ZNK6String9substringEjj+0x3c>)
	if (left > right) {
   ba5be:	bf88      	it	hi
   ba5c0:	4613      	movhi	r3, r2
{
   ba5c2:	4614      	mov	r4, r2
   ba5c4:	4606      	mov	r6, r0
	if (left > right) {
   ba5c6:	bf84      	itt	hi
   ba5c8:	462c      	movhi	r4, r5
   ba5ca:	461d      	movhi	r5, r3
	String out;
   ba5cc:	f7ff fef1 	bl	ba3b2 <_ZN6StringC1EPK19__FlashStringHelper>
	if (left > len) return out;
   ba5d0:	68bb      	ldr	r3, [r7, #8]
   ba5d2:	42a3      	cmp	r3, r4
   ba5d4:	d30a      	bcc.n	ba5ec <_ZNK6String9substringEjj+0x38>
	if (right > len) right = len;
	out.copy(&buffer[left], right - left);
   ba5d6:	6839      	ldr	r1, [r7, #0]
   ba5d8:	42ab      	cmp	r3, r5
   ba5da:	bf94      	ite	ls
   ba5dc:	ebc4 0203 	rsbls	r2, r4, r3
   ba5e0:	ebc4 0205 	rsbhi	r2, r4, r5
   ba5e4:	4421      	add	r1, r4
   ba5e6:	4630      	mov	r0, r6
   ba5e8:	f7ff feca 	bl	ba380 <_ZN6String4copyEPKcj>
	return out;
}
   ba5ec:	4630      	mov	r0, r6
   ba5ee:	bdf8      	pop	{r3, r4, r5, r6, r7, pc}
   ba5f0:	000bca2a 	.word	0x000bca2a

000ba5f4 <_ZN17SystemSleepResult22freeWakeupSourceMemoryEv>:
    operator SleepResult() {
        return toSleepResult();
    }

private:
    void freeWakeupSourceMemory() {
   ba5f4:	b510      	push	{r4, lr}
   ba5f6:	4604      	mov	r4, r0
        if (wakeupSource_) {
   ba5f8:	6800      	ldr	r0, [r0, #0]
   ba5fa:	b118      	cbz	r0, ba604 <_ZN17SystemSleepResult22freeWakeupSourceMemoryEv+0x10>
            free(wakeupSource_);
   ba5fc:	f7fd fc9e 	bl	b7f3c <free>
            wakeupSource_ = nullptr;
   ba600:	2300      	movs	r3, #0
   ba602:	6023      	str	r3, [r4, #0]
        }
    }
   ba604:	bd10      	pop	{r4, pc}

000ba606 <_ZN17SystemSleepResult16copyWakeupSourceEP24hal_wakeup_source_base_t.isra.0>:

    int copyWakeupSource(hal_wakeup_source_base_t* source) {
   ba606:	b538      	push	{r3, r4, r5, lr}
   ba608:	460c      	mov	r4, r1
   ba60a:	4605      	mov	r5, r0
        freeWakeupSourceMemory();
   ba60c:	f7ff fff2 	bl	ba5f4 <_ZN17SystemSleepResult22freeWakeupSourceMemoryEv>
        if (source) {
   ba610:	b154      	cbz	r4, ba628 <_ZN17SystemSleepResult16copyWakeupSourceEP24hal_wakeup_source_base_t.isra.0+0x22>
            wakeupSource_ = (hal_wakeup_source_base_t*)malloc(source->size);
   ba612:	8820      	ldrh	r0, [r4, #0]
   ba614:	f7fd fc8a 	bl	b7f2c <malloc>
   ba618:	6028      	str	r0, [r5, #0]
            if (wakeupSource_) {
   ba61a:	b128      	cbz	r0, ba628 <_ZN17SystemSleepResult16copyWakeupSourceEP24hal_wakeup_source_base_t.isra.0+0x22>
                memcpy(wakeupSource_, source, source->size);
   ba61c:	8822      	ldrh	r2, [r4, #0]
   ba61e:	4621      	mov	r1, r4
            } else {
                return SYSTEM_ERROR_NO_MEMORY;
            }
        }
        return SYSTEM_ERROR_NONE;
    }
   ba620:	e8bd 4038 	ldmia.w	sp!, {r3, r4, r5, lr}
                memcpy(wakeupSource_, source, source->size);
   ba624:	f001 bee2 	b.w	bc3ec <memcpy>
    }
   ba628:	bd38      	pop	{r3, r4, r5, pc}

000ba62a <_ZN17SystemSleepResultaSEOS_.isra.0>:
    SystemSleepResult& operator=(SystemSleepResult&& result) {
   ba62a:	b538      	push	{r3, r4, r5, lr}
        error_ = result.error_;
   ba62c:	f9b1 3004 	ldrsh.w	r3, [r1, #4]
   ba630:	8083      	strh	r3, [r0, #4]
        compatResult_ = result.compatResult_;
   ba632:	f8d1 3006 	ldr.w	r3, [r1, #6]
   ba636:	f8c0 3006 	str.w	r3, [r0, #6]
   ba63a:	894b      	ldrh	r3, [r1, #10]
   ba63c:	8143      	strh	r3, [r0, #10]
    SystemSleepResult& operator=(SystemSleepResult&& result) {
   ba63e:	460c      	mov	r4, r1
   ba640:	4605      	mov	r5, r0
        freeWakeupSourceMemory();
   ba642:	f7ff ffd7 	bl	ba5f4 <_ZN17SystemSleepResult22freeWakeupSourceMemoryEv>
        if (result.wakeupSource_) {
   ba646:	6823      	ldr	r3, [r4, #0]
   ba648:	b113      	cbz	r3, ba650 <_ZN17SystemSleepResultaSEOS_.isra.0+0x26>
            wakeupSource_ = result.wakeupSource_;
   ba64a:	602b      	str	r3, [r5, #0]
            result.wakeupSource_ = nullptr;
   ba64c:	2300      	movs	r3, #0
   ba64e:	6023      	str	r3, [r4, #0]
    }
   ba650:	bd38      	pop	{r3, r4, r5, pc}
	...

000ba654 <_ZN11SystemClass5sleepERKN8particle24SystemSleepConfigurationE>:
void SystemClass::enterSafeMode(SystemResetFlags flags)
{
    system_reset(SYSTEM_RESET_MODE_SAFE, 0, 0, flags.value(), nullptr);
}

SystemSleepResult SystemClass::sleep(const particle::SystemSleepConfiguration& config) {
   ba654:	b5f0      	push	{r4, r5, r6, r7, lr}
   ba656:	4d2b      	ldr	r5, [pc, #172]	; (ba704 <_ZN11SystemClass5sleepERKN8particle24SystemSleepConfigurationE+0xb0>)
    }

    // It doesn't guarantee the combination of sleep mode and
    // wakeup sources that the platform supports.
    bool valid() const {
        if (!valid_) {
   ba658:	7d0b      	ldrb	r3, [r1, #20]
   ba65a:	4604      	mov	r4, r0
   ba65c:	b08b      	sub	sp, #44	; 0x2c
   ba65e:	4608      	mov	r0, r1
   ba660:	1daf      	adds	r7, r5, #6
   ba662:	2b00      	cmp	r3, #0
   ba664:	d036      	beq.n	ba6d4 <_ZN11SystemClass5sleepERKN8particle24SystemSleepConfigurationE+0x80>
        return static_cast<SystemSleepMode>(config_->mode);
   ba666:	680b      	ldr	r3, [r1, #0]
            return valid_;
        }
        if (sleepMode() == SystemSleepMode::NONE) {
   ba668:	791b      	ldrb	r3, [r3, #4]
   ba66a:	2b00      	cmp	r3, #0
   ba66c:	d032      	beq.n	ba6d4 <_ZN11SystemClass5sleepERKN8particle24SystemSleepConfigurationE+0x80>
    SleepResult() {}
   ba66e:	4b26      	ldr	r3, [pc, #152]	; (ba708 <_ZN11SystemClass5sleepERKN8particle24SystemSleepConfigurationE+0xb4>)
   ba670:	9304      	str	r3, [sp, #16]
              error_(SYSTEM_ERROR_NONE) {
   ba672:	2200      	movs	r2, #0
    if (!config.valid()) {
        LOG(ERROR, "System sleep configuration is invalid.");
        System.systemSleepResult_ = SystemSleepResult(SYSTEM_ERROR_INVALID_ARGUMENT);
    } else {
        SystemSleepResult result;
        int ret = system_sleep_ext(config.halConfig(), result.halWakeupSource(), nullptr);
   ba674:	a902      	add	r1, sp, #8
   ba676:	3004      	adds	r0, #4
   ba678:	e9cd 2202 	strd	r2, r2, [sp, #8]
   ba67c:	f7fd fbb8 	bl	b7df0 <system_sleep_ext>
        compatResult_ = result.compatResult_;
   ba680:	f8dd 300e 	ldr.w	r3, [sp, #14]
   ba684:	f8c5 3006 	str.w	r3, [r5, #6]
        result.setError(static_cast<system_error_t>(ret));
   ba688:	b200      	sxth	r0, r0
   ba68a:	f8bd 3012 	ldrh.w	r3, [sp, #18]
        error_ = error;
   ba68e:	f8ad 000c 	strh.w	r0, [sp, #12]
        error_ = result.error_;
   ba692:	80a8      	strh	r0, [r5, #4]
        copyWakeupSource(result.wakeupSource_);
   ba694:	9902      	ldr	r1, [sp, #8]
        compatResult_ = result.compatResult_;
   ba696:	80bb      	strh	r3, [r7, #4]
        copyWakeupSource(result.wakeupSource_);
   ba698:	4628      	mov	r0, r5
   ba69a:	f7ff ffb4 	bl	ba606 <_ZN17SystemSleepResult16copyWakeupSourceEP24hal_wakeup_source_base_t.isra.0>
        freeWakeupSourceMemory();
   ba69e:	a802      	add	r0, sp, #8
   ba6a0:	f7ff ffa8 	bl	ba5f4 <_ZN17SystemSleepResult22freeWakeupSourceMemoryEv>
              error_(SYSTEM_ERROR_NONE) {
   ba6a4:	2300      	movs	r3, #0
   ba6a6:	6023      	str	r3, [r4, #0]
   ba6a8:	80a3      	strh	r3, [r4, #4]
    SleepResult() {}
   ba6aa:	71a3      	strb	r3, [r4, #6]
   ba6ac:	8123      	strh	r3, [r4, #8]
   ba6ae:	f64f 73ff 	movw	r3, #65535	; 0xffff
   ba6b2:	8163      	strh	r3, [r4, #10]
        error_ = result.error_;
   ba6b4:	f9b5 3004 	ldrsh.w	r3, [r5, #4]
   ba6b8:	80a3      	strh	r3, [r4, #4]
        compatResult_ = result.compatResult_;
   ba6ba:	f8d5 3006 	ldr.w	r3, [r5, #6]
   ba6be:	f8c4 3006 	str.w	r3, [r4, #6]
   ba6c2:	88bb      	ldrh	r3, [r7, #4]
        copyWakeupSource(result.wakeupSource_);
   ba6c4:	6829      	ldr	r1, [r5, #0]
        compatResult_ = result.compatResult_;
   ba6c6:	8163      	strh	r3, [r4, #10]
        copyWakeupSource(result.wakeupSource_);
   ba6c8:	4620      	mov	r0, r4
   ba6ca:	f7ff ff9c 	bl	ba606 <_ZN17SystemSleepResult16copyWakeupSourceEP24hal_wakeup_source_base_t.isra.0>
        System.systemSleepResult_ = result;
    }
    return System.systemSleepResult_;
}
   ba6ce:	4620      	mov	r0, r4
   ba6d0:	b00b      	add	sp, #44	; 0x2c
   ba6d2:	bdf0      	pop	{r4, r5, r6, r7, pc}
        LOG(ERROR, "System sleep configuration is invalid.");
   ba6d4:	2600      	movs	r6, #0
   ba6d6:	2320      	movs	r3, #32
   ba6d8:	e9cd 3602 	strd	r3, r6, [sp, #8]
   ba6dc:	4b0b      	ldr	r3, [pc, #44]	; (ba70c <_ZN11SystemClass5sleepERKN8particle24SystemSleepConfigurationE+0xb8>)
   ba6de:	9300      	str	r3, [sp, #0]
   ba6e0:	aa02      	add	r2, sp, #8
   ba6e2:	4633      	mov	r3, r6
   ba6e4:	490a      	ldr	r1, [pc, #40]	; (ba710 <_ZN11SystemClass5sleepERKN8particle24SystemSleepConfigurationE+0xbc>)
   ba6e6:	2032      	movs	r0, #50	; 0x32
   ba6e8:	f7fd fb36 	bl	b7d58 <log_message>
            : wakeupSource_(nullptr),
   ba6ec:	4b06      	ldr	r3, [pc, #24]	; (ba708 <_ZN11SystemClass5sleepERKN8particle24SystemSleepConfigurationE+0xb4>)
        System.systemSleepResult_ = SystemSleepResult(SYSTEM_ERROR_INVALID_ARGUMENT);
   ba6ee:	4805      	ldr	r0, [pc, #20]	; (ba704 <_ZN11SystemClass5sleepERKN8particle24SystemSleepConfigurationE+0xb0>)
              error_(SYSTEM_ERROR_NONE) {
   ba6f0:	9602      	str	r6, [sp, #8]
            : wakeupSource_(nullptr),
   ba6f2:	f64f 62f2 	movw	r2, #65266	; 0xfef2
   ba6f6:	a902      	add	r1, sp, #8
   ba6f8:	e9cd 2303 	strd	r2, r3, [sp, #12]
   ba6fc:	f7ff ff95 	bl	ba62a <_ZN17SystemSleepResultaSEOS_.isra.0>
   ba700:	e7cd      	b.n	ba69e <_ZN11SystemClass5sleepERKN8particle24SystemSleepConfigurationE+0x4a>
   ba702:	bf00      	nop
   ba704:	2003e6f0 	.word	0x2003e6f0
   ba708:	ffff0000 	.word	0xffff0000
   ba70c:	000bceab 	.word	0x000bceab
   ba710:	000bcea4 	.word	0x000bcea4

000ba714 <_GLOBAL__sub_I_System>:
} // namespace particle

// particle::Flag<TagT, ValueT>
template<typename TagT, typename ValueT>
inline particle::Flag<TagT, ValueT>::Flag(ValueT val) :
        val_(val) {
   ba714:	4b05      	ldr	r3, [pc, #20]	; (ba72c <_GLOBAL__sub_I_System+0x18>)
   ba716:	2202      	movs	r2, #2
   ba718:	601a      	str	r2, [r3, #0]
              error_(SYSTEM_ERROR_NONE) {
   ba71a:	4b05      	ldr	r3, [pc, #20]	; (ba730 <_GLOBAL__sub_I_System+0x1c>)
    SleepResult() {}
   ba71c:	4a05      	ldr	r2, [pc, #20]	; (ba734 <_GLOBAL__sub_I_System+0x20>)
   ba71e:	609a      	str	r2, [r3, #8]
              error_(SYSTEM_ERROR_NONE) {
   ba720:	2000      	movs	r0, #0
   ba722:	e9c3 0000 	strd	r0, r0, [r3]

class SystemClass {
public:

    SystemClass(System_Mode_TypeDef mode = DEFAULT) {
        set_system_mode(mode);
   ba726:	f7fd bb37 	b.w	b7d98 <set_system_mode>
   ba72a:	bf00      	nop
   ba72c:	2003e6fc 	.word	0x2003e6fc
   ba730:	2003e6f0 	.word	0x2003e6f0
   ba734:	ffff0000 	.word	0xffff0000

000ba738 <_GLOBAL__sub_I_TIME_FORMAT_DEFAULT>:
            calendar_time_cache = Convert_UnixTime_To_CalendarTime(unix_time);
            unix_time_cache = unix_time;
    }
}

const char* TimeClass::format_spec = TIME_FORMAT_DEFAULT;
   ba738:	4b02      	ldr	r3, [pc, #8]	; (ba744 <_GLOBAL__sub_I_TIME_FORMAT_DEFAULT+0xc>)
   ba73a:	681a      	ldr	r2, [r3, #0]
   ba73c:	4b02      	ldr	r3, [pc, #8]	; (ba748 <_GLOBAL__sub_I_TIME_FORMAT_DEFAULT+0x10>)
   ba73e:	601a      	str	r2, [r3, #0]
{
  return isValid();
}


TimeClass Time;
   ba740:	4770      	bx	lr
   ba742:	bf00      	nop
   ba744:	2003dbcc 	.word	0x2003dbcc
   ba748:	2003e700 	.word	0x2003e700

000ba74c <_ZN11USARTSerialD1Ev>:
private:
  hal_usart_interface_t _serial;
  bool _blocking;
public:
  USARTSerial(hal_usart_interface_t serial, const hal_usart_buffer_config_t& config);
  virtual ~USARTSerial() {};
   ba74c:	4770      	bx	lr

000ba74e <_ZN11USARTSerial14blockOnOverrunEb>:
    hal_usart_half_duplex(_serial, Enable);
}

void USARTSerial::blockOnOverrun(bool block)
{
  _blocking = block;
   ba74e:	7441      	strb	r1, [r0, #17]
}
   ba750:	4770      	bx	lr

000ba752 <_ZN11USARTSerial17availableForWriteEv>:


int USARTSerial::availableForWrite(void)
{
   ba752:	b508      	push	{r3, lr}
  return std::max(0, (int)hal_usart_available_data_for_write(_serial));
   ba754:	7c00      	ldrb	r0, [r0, #16]
   ba756:	f7fd fa9f 	bl	b7c98 <hal_usart_available_data_for_write>
}
   ba75a:	ea20 70e0 	bic.w	r0, r0, r0, asr #31
   ba75e:	bd08      	pop	{r3, pc}

000ba760 <_ZN11USARTSerial9availableEv>:

int USARTSerial::available(void)
{
   ba760:	b508      	push	{r3, lr}
  return std::max(0, (int)hal_usart_available(_serial));
   ba762:	7c00      	ldrb	r0, [r0, #16]
   ba764:	f7fd fa70 	bl	b7c48 <hal_usart_available>
}
   ba768:	ea20 70e0 	bic.w	r0, r0, r0, asr #31
   ba76c:	bd08      	pop	{r3, pc}

000ba76e <_ZN11USARTSerial4peekEv>:

int USARTSerial::peek(void)
{
   ba76e:	b508      	push	{r3, lr}
  return std::max(-1, (int)hal_usart_peek(_serial));
   ba770:	7c00      	ldrb	r0, [r0, #16]
   ba772:	f7fd fa79 	bl	b7c68 <hal_usart_peek>
}
   ba776:	ea40 70e0 	orr.w	r0, r0, r0, asr #31
   ba77a:	bd08      	pop	{r3, pc}

000ba77c <_ZN11USARTSerial4readEv>:

int USARTSerial::read(void)
{
   ba77c:	b508      	push	{r3, lr}
  return std::max(-1, (int)hal_usart_read(_serial));
   ba77e:	7c00      	ldrb	r0, [r0, #16]
   ba780:	f7fd fa6a 	bl	b7c58 <hal_usart_read>
}
   ba784:	ea40 70e0 	orr.w	r0, r0, r0, asr #31
   ba788:	bd08      	pop	{r3, pc}

000ba78a <_ZN11USARTSerial5flushEv>:

void USARTSerial::flush()
{
  hal_usart_flush(_serial);
   ba78a:	7c00      	ldrb	r0, [r0, #16]
   ba78c:	f7fd ba74 	b.w	b7c78 <hal_usart_flush>

000ba790 <_ZN11USARTSerial5writeEh>:
}

size_t USARTSerial::write(uint8_t c)
{
   ba790:	b537      	push	{r0, r1, r2, r4, r5, lr}
  // attempt a write if blocking, or for non-blocking if there is room.
  if (_blocking || hal_usart_available_data_for_write(_serial) > 0) {
   ba792:	7c45      	ldrb	r5, [r0, #17]
{
   ba794:	4604      	mov	r4, r0
  if (_blocking || hal_usart_available_data_for_write(_serial) > 0) {
   ba796:	b12d      	cbz	r5, ba7a4 <_ZN11USARTSerial5writeEh+0x14>
    // the HAL always blocks.
	  return hal_usart_write(_serial, c);
   ba798:	7c20      	ldrb	r0, [r4, #16]
  }
  return 0;
}
   ba79a:	b003      	add	sp, #12
   ba79c:	e8bd 4030 	ldmia.w	sp!, {r4, r5, lr}
	  return hal_usart_write(_serial, c);
   ba7a0:	f7fd ba4a 	b.w	b7c38 <hal_usart_write>
  if (_blocking || hal_usart_available_data_for_write(_serial) > 0) {
   ba7a4:	7c00      	ldrb	r0, [r0, #16]
   ba7a6:	9101      	str	r1, [sp, #4]
   ba7a8:	f7fd fa76 	bl	b7c98 <hal_usart_available_data_for_write>
   ba7ac:	2800      	cmp	r0, #0
   ba7ae:	9901      	ldr	r1, [sp, #4]
   ba7b0:	dcf2      	bgt.n	ba798 <_ZN11USARTSerial5writeEh+0x8>
}
   ba7b2:	4628      	mov	r0, r5
   ba7b4:	b003      	add	sp, #12
   ba7b6:	bd30      	pop	{r4, r5, pc}

000ba7b8 <_ZN11USARTSerialD0Ev>:
   ba7b8:	b510      	push	{r4, lr}
   ba7ba:	2114      	movs	r1, #20
   ba7bc:	4604      	mov	r4, r0
   ba7be:	f7f9 fc6e 	bl	b409e <_ZdlPvj>
   ba7c2:	4620      	mov	r0, r4
   ba7c4:	bd10      	pop	{r4, pc}
	...

000ba7c8 <_ZN11USARTSerialC1E21hal_usart_interface_tRK25hal_usart_buffer_config_t>:
USARTSerial::USARTSerial(hal_usart_interface_t serial, const hal_usart_buffer_config_t& config)
   ba7c8:	b510      	push	{r4, lr}
   ba7ca:	f44f 737a 	mov.w	r3, #1000	; 0x3e8
   ba7ce:	4604      	mov	r4, r0
   ba7d0:	4608      	mov	r0, r1
   ba7d2:	4611      	mov	r1, r2
   ba7d4:	2200      	movs	r2, #0
   ba7d6:	e9c4 2301 	strd	r2, r3, [r4, #4]
   ba7da:	4b04      	ldr	r3, [pc, #16]	; (ba7ec <_ZN11USARTSerialC1E21hal_usart_interface_tRK25hal_usart_buffer_config_t+0x24>)
   ba7dc:	6023      	str	r3, [r4, #0]
  _blocking = true;
   ba7de:	2301      	movs	r3, #1
  _serial = serial;
   ba7e0:	7420      	strb	r0, [r4, #16]
  _blocking = true;
   ba7e2:	7463      	strb	r3, [r4, #17]
  hal_usart_init_ex(serial, &config, nullptr);
   ba7e4:	f7fd fa68 	bl	b7cb8 <hal_usart_init_ex>
}
   ba7e8:	4620      	mov	r0, r4
   ba7ea:	bd10      	pop	{r4, pc}
   ba7ec:	000bcef8 	.word	0x000bcef8

000ba7f0 <_ZN11USARTSerial5beginEmm>:
  hal_usart_begin_config(_serial, baud, config, nullptr);
   ba7f0:	7c00      	ldrb	r0, [r0, #16]
   ba7f2:	2300      	movs	r3, #0
   ba7f4:	f7fd ba58 	b.w	b7ca8 <hal_usart_begin_config>

000ba7f8 <_ZN11USARTSerial5beginEm>:
  begin(baud, SERIAL_8N1);
   ba7f8:	2200      	movs	r2, #0
   ba7fa:	f7ff bff9 	b.w	ba7f0 <_ZN11USARTSerial5beginEmm>

000ba7fe <_ZN11USARTSerial3endEv>:
  hal_usart_end(_serial);
   ba7fe:	7c00      	ldrb	r0, [r0, #16]
   ba800:	f7fd ba12 	b.w	b7c28 <hal_usart_end>

000ba804 <_ZN9USBSerial14blockOnOverrunEb>:
  HAL_USB_USART_Flush_Data(_serial);
}

void USBSerial::blockOnOverrun(bool block)
{
  _blocking = block;
   ba804:	7441      	strb	r1, [r0, #17]
}
   ba806:	4770      	bx	lr

000ba808 <__tcf_0>:
}

USBSerial& _fetch_usbserial()
{
  HAL_USB_USART_Config conf = acquireSerialBuffer();
	static USBSerial _usbserial(HAL_USB_USART_SERIAL, conf);
   ba808:	4770      	bx	lr

000ba80a <_ZN9USBSerialD1Ev>:
#include "usb_hal.h"
#include "system_task.h"
#include "spark_wiring_startup.h"
#include "concurrent_hal.h"

class USBSerial : public Stream
   ba80a:	4770      	bx	lr

000ba80c <_ZN9USBSerial4readEv>:
{
   ba80c:	b508      	push	{r3, lr}
	return std::max(-1, (int)HAL_USB_USART_Receive_Data(_serial, false));
   ba80e:	2100      	movs	r1, #0
   ba810:	7c00      	ldrb	r0, [r0, #16]
   ba812:	f7fd fa81 	bl	b7d18 <HAL_USB_USART_Receive_Data>
}
   ba816:	ea40 70e0 	orr.w	r0, r0, r0, asr #31
   ba81a:	bd08      	pop	{r3, pc}

000ba81c <_ZN9USBSerial4peekEv>:
{
   ba81c:	b508      	push	{r3, lr}
	return std::max(-1, (int)HAL_USB_USART_Receive_Data(_serial, true));
   ba81e:	2101      	movs	r1, #1
   ba820:	7c00      	ldrb	r0, [r0, #16]
   ba822:	f7fd fa79 	bl	b7d18 <HAL_USB_USART_Receive_Data>
}
   ba826:	ea40 70e0 	orr.w	r0, r0, r0, asr #31
   ba82a:	bd08      	pop	{r3, pc}

000ba82c <_ZN9USBSerial17availableForWriteEv>:
{
   ba82c:	b508      	push	{r3, lr}
  return std::max(0, (int)HAL_USB_USART_Available_Data_For_Write(_serial));
   ba82e:	7c00      	ldrb	r0, [r0, #16]
   ba830:	f7fd fa6a 	bl	b7d08 <HAL_USB_USART_Available_Data_For_Write>
}
   ba834:	ea20 70e0 	bic.w	r0, r0, r0, asr #31
   ba838:	bd08      	pop	{r3, pc}

000ba83a <_ZN9USBSerial9availableEv>:
{
   ba83a:	b508      	push	{r3, lr}
	return std::max(0, (int)HAL_USB_USART_Available_Data(_serial));
   ba83c:	7c00      	ldrb	r0, [r0, #16]
   ba83e:	f7fd fa5b 	bl	b7cf8 <HAL_USB_USART_Available_Data>
}
   ba842:	ea20 70e0 	bic.w	r0, r0, r0, asr #31
   ba846:	bd08      	pop	{r3, pc}

000ba848 <_ZN9USBSerial5writeEh>:
{
   ba848:	b513      	push	{r0, r1, r4, lr}
   ba84a:	4604      	mov	r4, r0
  if (HAL_USB_USART_Available_Data_For_Write(_serial) > 0 || _blocking) {
   ba84c:	7c00      	ldrb	r0, [r0, #16]
{
   ba84e:	9101      	str	r1, [sp, #4]
  if (HAL_USB_USART_Available_Data_For_Write(_serial) > 0 || _blocking) {
   ba850:	f7fd fa5a 	bl	b7d08 <HAL_USB_USART_Available_Data_For_Write>
   ba854:	2800      	cmp	r0, #0
   ba856:	9901      	ldr	r1, [sp, #4]
   ba858:	dc01      	bgt.n	ba85e <_ZN9USBSerial5writeEh+0x16>
   ba85a:	7c60      	ldrb	r0, [r4, #17]
   ba85c:	b120      	cbz	r0, ba868 <_ZN9USBSerial5writeEh+0x20>
    return std::max(0, (int)HAL_USB_USART_Send_Data(_serial, byte));
   ba85e:	7c20      	ldrb	r0, [r4, #16]
   ba860:	f7fd fa62 	bl	b7d28 <HAL_USB_USART_Send_Data>
   ba864:	ea20 70e0 	bic.w	r0, r0, r0, asr #31
}
   ba868:	b002      	add	sp, #8
   ba86a:	bd10      	pop	{r4, pc}

000ba86c <_ZN9USBSerial5flushEv>:
  HAL_USB_USART_Flush_Data(_serial);
   ba86c:	7c00      	ldrb	r0, [r0, #16]
   ba86e:	f7fd ba63 	b.w	b7d38 <HAL_USB_USART_Flush_Data>

000ba872 <_ZN9USBSerialD0Ev>:
   ba872:	b510      	push	{r4, lr}
   ba874:	2114      	movs	r1, #20
   ba876:	4604      	mov	r4, r0
   ba878:	f7f9 fc11 	bl	b409e <_ZdlPvj>
   ba87c:	4620      	mov	r0, r4
   ba87e:	bd10      	pop	{r4, pc}

000ba880 <_ZN9USBSerialC1E20HAL_USB_USART_SerialRK20HAL_USB_USART_Config>:
USBSerial::USBSerial(HAL_USB_USART_Serial serial, const HAL_USB_USART_Config& conf)
   ba880:	b510      	push	{r4, lr}
   ba882:	f44f 737a 	mov.w	r3, #1000	; 0x3e8
   ba886:	4604      	mov	r4, r0
   ba888:	4608      	mov	r0, r1
   ba88a:	2100      	movs	r1, #0
   ba88c:	e9c4 1301 	strd	r1, r3, [r4, #4]
   ba890:	4b04      	ldr	r3, [pc, #16]	; (ba8a4 <_ZN9USBSerialC1E20HAL_USB_USART_SerialRK20HAL_USB_USART_Config+0x24>)
   ba892:	6023      	str	r3, [r4, #0]
  _blocking = true;
   ba894:	2301      	movs	r3, #1
  _serial = serial;
   ba896:	7420      	strb	r0, [r4, #16]
  _blocking = true;
   ba898:	7463      	strb	r3, [r4, #17]
  HAL_USB_USART_Init(_serial, &conf);
   ba89a:	4611      	mov	r1, r2
   ba89c:	f7fd fa14 	bl	b7cc8 <HAL_USB_USART_Init>
}
   ba8a0:	4620      	mov	r0, r4
   ba8a2:	bd10      	pop	{r4, pc}
   ba8a4:	000bcf28 	.word	0x000bcf28

000ba8a8 <_ZN9USBSerial5beginEl>:
    HAL_USB_USART_Begin(_serial, speed, NULL);
   ba8a8:	7c00      	ldrb	r0, [r0, #16]
   ba8aa:	2200      	movs	r2, #0
   ba8ac:	f7fd ba14 	b.w	b7cd8 <HAL_USB_USART_Begin>

000ba8b0 <_ZN9USBSerial3endEv>:
    HAL_USB_USART_End(_serial);
   ba8b0:	7c00      	ldrb	r0, [r0, #16]
   ba8b2:	f7fd ba19 	b.w	b7ce8 <HAL_USB_USART_End>

000ba8b6 <_Z19acquireSerialBufferv>:
{
   ba8b6:	b510      	push	{r4, lr}
  HAL_USB_USART_Config conf = {};
   ba8b8:	2214      	movs	r2, #20
{
   ba8ba:	4604      	mov	r4, r0
  HAL_USB_USART_Config conf = {};
   ba8bc:	2100      	movs	r1, #0
   ba8be:	f001 fdbd 	bl	bc43c <memset>
}
   ba8c2:	4620      	mov	r0, r4
   ba8c4:	bd10      	pop	{r4, pc}
	...

000ba8c8 <_Z16_fetch_usbserialv>:
{
   ba8c8:	b510      	push	{r4, lr}
	static USBSerial _usbserial(HAL_USB_USART_SERIAL, conf);
   ba8ca:	4c0f      	ldr	r4, [pc, #60]	; (ba908 <_Z16_fetch_usbserialv+0x40>)
{
   ba8cc:	b088      	sub	sp, #32
  HAL_USB_USART_Config conf = acquireSerialBuffer();
   ba8ce:	a803      	add	r0, sp, #12
   ba8d0:	f7ff fff1 	bl	ba8b6 <_Z19acquireSerialBufferv>
	static USBSerial _usbserial(HAL_USB_USART_SERIAL, conf);
   ba8d4:	7821      	ldrb	r1, [r4, #0]
   ba8d6:	f3bf 8f5b 	dmb	ish
   ba8da:	f011 0101 	ands.w	r1, r1, #1
   ba8de:	d10f      	bne.n	ba900 <_Z16_fetch_usbserialv+0x38>
   ba8e0:	4620      	mov	r0, r4
   ba8e2:	9101      	str	r1, [sp, #4]
   ba8e4:	f7f9 fbea 	bl	b40bc <__cxa_guard_acquire>
   ba8e8:	9901      	ldr	r1, [sp, #4]
   ba8ea:	b148      	cbz	r0, ba900 <_Z16_fetch_usbserialv+0x38>
   ba8ec:	aa03      	add	r2, sp, #12
   ba8ee:	4807      	ldr	r0, [pc, #28]	; (ba90c <_Z16_fetch_usbserialv+0x44>)
   ba8f0:	f7ff ffc6 	bl	ba880 <_ZN9USBSerialC1E20HAL_USB_USART_SerialRK20HAL_USB_USART_Config>
   ba8f4:	4620      	mov	r0, r4
   ba8f6:	f7f9 fbe6 	bl	b40c6 <__cxa_guard_release>
   ba8fa:	4805      	ldr	r0, [pc, #20]	; (ba910 <_Z16_fetch_usbserialv+0x48>)
   ba8fc:	f001 fd58 	bl	bc3b0 <atexit>
	return _usbserial;
}
   ba900:	4802      	ldr	r0, [pc, #8]	; (ba90c <_Z16_fetch_usbserialv+0x44>)
   ba902:	b008      	add	sp, #32
   ba904:	bd10      	pop	{r4, pc}
   ba906:	bf00      	nop
   ba908:	2003e704 	.word	0x2003e704
   ba90c:	2003e708 	.word	0x2003e708
   ba910:	000ba809 	.word	0x000ba809

000ba914 <_ZN5spark9WiFiClass5readyEv>:
    bool connecting(void) {
        return network_connecting(*this, 0, NULL);
    }

    bool ready(void) {
        return network_ready(*this, 0, NULL);
   ba914:	2200      	movs	r2, #0
   ba916:	6840      	ldr	r0, [r0, #4]
   ba918:	4611      	mov	r1, r2
   ba91a:	f7fd babf 	b.w	b7e9c <network_ready>

000ba91e <_ZN5spark9WiFiClass9listeningEv>:
    uint16_t getListenTimeout(void) {
        return network_get_listen_timeout(*this, 0, NULL);
    }

    bool listening(void) {
        return network_listening(*this, 0, NULL);
   ba91e:	2200      	movs	r2, #0
   ba920:	6840      	ldr	r0, [r0, #4]
   ba922:	4611      	mov	r1, r2
   ba924:	f7fd bada 	b.w	b7edc <network_listening>

000ba928 <_ZN5spark9WiFiClass16getListenTimeoutEv>:
        return network_get_listen_timeout(*this, 0, NULL);
   ba928:	2200      	movs	r2, #0
   ba92a:	6840      	ldr	r0, [r0, #4]
   ba92c:	4611      	mov	r1, r2
   ba92e:	f7fd bae5 	b.w	b7efc <network_get_listen_timeout>

000ba932 <_ZN5spark9WiFiClass16setListenTimeoutEt>:
        network_set_listen_timeout(*this, timeout, NULL);
   ba932:	6840      	ldr	r0, [r0, #4]
   ba934:	2200      	movs	r2, #0
   ba936:	f7fd bad9 	b.w	b7eec <network_set_listen_timeout>

000ba93a <_ZN5spark9WiFiClass6listenEb>:
        network_listen(*this, begin ? 0 : 1, NULL);
   ba93a:	6840      	ldr	r0, [r0, #4]
   ba93c:	2200      	movs	r2, #0
   ba93e:	f081 0101 	eor.w	r1, r1, #1
   ba942:	f7fd bac3 	b.w	b7ecc <network_listen>

000ba946 <_ZN5spark9WiFiClass3offEv>:
        network_off(*this, 0, 0, NULL);
   ba946:	2300      	movs	r3, #0
   ba948:	6840      	ldr	r0, [r0, #4]
   ba94a:	461a      	mov	r2, r3
   ba94c:	4619      	mov	r1, r3
   ba94e:	f7fd bab5 	b.w	b7ebc <network_off>

000ba952 <_ZN5spark9WiFiClass2onEv>:
        network_on(*this, 0, 0, NULL);
   ba952:	2300      	movs	r3, #0
   ba954:	6840      	ldr	r0, [r0, #4]
   ba956:	461a      	mov	r2, r3
   ba958:	4619      	mov	r1, r3
   ba95a:	f7fd baa7 	b.w	b7eac <network_on>

000ba95e <_ZN5spark9WiFiClass10connectingEv>:
        return network_connecting(*this, 0, NULL);
   ba95e:	2200      	movs	r2, #0
   ba960:	6840      	ldr	r0, [r0, #4]
   ba962:	4611      	mov	r1, r2
   ba964:	f7fd ba8a 	b.w	b7e7c <network_connecting>

000ba968 <_ZN5spark9WiFiClass10disconnectEv>:
        network_disconnect(*this, NETWORK_DISCONNECT_REASON_USER, NULL);
   ba968:	6840      	ldr	r0, [r0, #4]
   ba96a:	2200      	movs	r2, #0
   ba96c:	2102      	movs	r1, #2
   ba96e:	f7fd ba8d 	b.w	b7e8c <network_disconnect>

000ba972 <_ZN5spark9WiFiClass7connectEj>:
        network_connect(*this, flags, 0, NULL);
   ba972:	2300      	movs	r3, #0
   ba974:	6840      	ldr	r0, [r0, #4]
   ba976:	461a      	mov	r2, r3
   ba978:	f7fd ba78 	b.w	b7e6c <network_connect>

000ba97c <_GLOBAL__sub_I__ZN10WiFiSignalC2ERK21wlan_connected_info_t>:
   ba97c:	4b02      	ldr	r3, [pc, #8]	; (ba988 <_GLOBAL__sub_I__ZN10WiFiSignalC2ERK21wlan_connected_info_t+0xc>)
   ba97e:	2204      	movs	r2, #4
   ba980:	605a      	str	r2, [r3, #4]
            NetworkClass(NETWORK_INTERFACE_WIFI_STA) {
   ba982:	4a02      	ldr	r2, [pc, #8]	; (ba98c <_GLOBAL__sub_I__ZN10WiFiSignalC2ERK21wlan_connected_info_t+0x10>)
   ba984:	601a      	str	r2, [r3, #0]
the same way.
*****************************************************************************/

    WiFiClass WiFi;
    // NetworkClass& Network = WiFi;
}
   ba986:	4770      	bx	lr
   ba988:	2003e71c 	.word	0x2003e71c
   ba98c:	000bcf58 	.word	0x000bcf58

000ba990 <_Z11str_reversePc>:

//------------------------------------------------------------------------------------------
#define BUFSIZE (sizeof(long) * 8 + 1)

//utility function used by ultoa()
__attribute__((weak)) void str_reverse(char* buffer){
   ba990:	b510      	push	{r4, lr}
   ba992:	4604      	mov	r4, r0
	char *i, *j;
	char c;
	i=buffer;
	j=buffer + strlen(buffer)-1;
   ba994:	f001 fdef 	bl	bc576 <strlen>
   ba998:	3801      	subs	r0, #1
   ba99a:	1823      	adds	r3, r4, r0
   ba99c:	4620      	mov	r0, r4
	while(i<j){
   ba99e:	4283      	cmp	r3, r0
   ba9a0:	d906      	bls.n	ba9b0 <_Z11str_reversePc+0x20>
		c = *i;
   ba9a2:	7802      	ldrb	r2, [r0, #0]
		*i = *j;
   ba9a4:	7819      	ldrb	r1, [r3, #0]
   ba9a6:	f800 1b01 	strb.w	r1, [r0], #1
		*j = c;
   ba9aa:	f803 2901 	strb.w	r2, [r3], #-1
	while(i<j){
   ba9ae:	e7f6      	b.n	ba99e <_Z11str_reversePc+0xe>
		++i;
		--j;
	}
}
   ba9b0:	bd10      	pop	{r4, pc}

000ba9b2 <ultoa>:
      memcpy(head, ++tail, i);
      return str;
}

//convert unsigned long to string
__attribute__((weak)) char* ultoa(unsigned long a, char* buffer, int radix, char pad){
   ba9b2:	b570      	push	{r4, r5, r6, lr}
   ba9b4:	460c      	mov	r4, r1
	if(radix<2 || radix>36){
   ba9b6:	1e91      	subs	r1, r2, #2
   ba9b8:	2922      	cmp	r1, #34	; 0x22
   ba9ba:	d81d      	bhi.n	ba9f8 <ultoa+0x46>
		return NULL;
	}
	char* ptr=buffer;
   ba9bc:	4625      	mov	r5, r4

	div_t result;
	while(a){
   ba9be:	b930      	cbnz	r0, ba9ce <ultoa+0x1c>
                *ptr += 'a'-10;
            }
            ++ptr;
            a = result.quot;
	}
        while (ptr < buffer+pad)
   ba9c0:	4423      	add	r3, r4
            *ptr++ = '0';
   ba9c2:	2230      	movs	r2, #48	; 0x30
        while (ptr < buffer+pad)
   ba9c4:	429d      	cmp	r5, r3
   ba9c6:	d210      	bcs.n	ba9ea <ultoa+0x38>
            *ptr++ = '0';
   ba9c8:	f805 2b01 	strb.w	r2, [r5], #1
        while (ptr < buffer+pad)
   ba9cc:	e7fa      	b.n	ba9c4 <ultoa+0x12>
            result.quot = a/radix;
   ba9ce:	fbb0 f6f2 	udiv	r6, r0, r2
            result.rem = a%radix;
   ba9d2:	fb02 0016 	mls	r0, r2, r6, r0
            *ptr = result.rem;
   ba9d6:	b2c1      	uxtb	r1, r0
            if(result.rem<10){
   ba9d8:	2809      	cmp	r0, #9
                *ptr += '0';
   ba9da:	bf94      	ite	ls
   ba9dc:	3130      	addls	r1, #48	; 0x30
                *ptr += 'a'-10;
   ba9de:	3157      	addhi	r1, #87	; 0x57
   ba9e0:	b2c9      	uxtb	r1, r1
   ba9e2:	f805 1b01 	strb.w	r1, [r5], #1
            a = result.quot;
   ba9e6:	4630      	mov	r0, r6
	while(a){
   ba9e8:	e7e9      	b.n	ba9be <ultoa+0xc>

	*ptr = '\0';
   ba9ea:	2300      	movs	r3, #0
	str_reverse(buffer);
   ba9ec:	4620      	mov	r0, r4
	*ptr = '\0';
   ba9ee:	702b      	strb	r3, [r5, #0]
	str_reverse(buffer);
   ba9f0:	f7ff ffce 	bl	ba990 <_Z11str_reversePc>
	return buffer;
   ba9f4:	4620      	mov	r0, r4
}
   ba9f6:	bd70      	pop	{r4, r5, r6, pc}
		return NULL;
   ba9f8:	2000      	movs	r0, #0
   ba9fa:	e7fc      	b.n	ba9f6 <ultoa+0x44>

000ba9fc <_ZZ21module_user_init_hookENUlP6_reentjmPvE_4_FUNES0_jmS1_>:

void module_user_init_hook()
{
#if HAL_PLATFORM_NEWLIB
    newlib_impure_ptr_callback([](struct _reent* r, size_t size, uint32_t version, void* ctx) -> void {
        _impure_ptr = r;
   ba9fc:	4b01      	ldr	r3, [pc, #4]	; (baa04 <_ZZ21module_user_init_hookENUlP6_reentjmPvE_4_FUNES0_jmS1_+0x8>)
   ba9fe:	6018      	str	r0, [r3, #0]
    }, nullptr);
   baa00:	4770      	bx	lr
   baa02:	bf00      	nop
   baa04:	2003dbd4 	.word	0x2003dbd4

000baa08 <serialEventRun>:
{
   baa08:	b508      	push	{r3, lr}
    if (serialEvent && Serial.available()>0)
   baa0a:	4b0b      	ldr	r3, [pc, #44]	; (baa38 <serialEventRun+0x30>)
   baa0c:	b143      	cbz	r3, baa20 <serialEventRun+0x18>
   baa0e:	f7ff ff5b 	bl	ba8c8 <_Z16_fetch_usbserialv>
   baa12:	6803      	ldr	r3, [r0, #0]
   baa14:	691b      	ldr	r3, [r3, #16]
   baa16:	4798      	blx	r3
   baa18:	2800      	cmp	r0, #0
   baa1a:	dd01      	ble.n	baa20 <serialEventRun+0x18>
        serialEvent();
   baa1c:	f3af 8000 	nop.w
    if (serialEvent1 && Serial1.available()>0)
   baa20:	4b06      	ldr	r3, [pc, #24]	; (baa3c <serialEventRun+0x34>)
   baa22:	b143      	cbz	r3, baa36 <serialEventRun+0x2e>
   baa24:	f000 f95c 	bl	bace0 <_Z22__fetch_global_Serial1v>
   baa28:	6803      	ldr	r3, [r0, #0]
   baa2a:	691b      	ldr	r3, [r3, #16]
   baa2c:	4798      	blx	r3
   baa2e:	2800      	cmp	r0, #0
   baa30:	dd01      	ble.n	baa36 <serialEventRun+0x2e>
        serialEvent1();
   baa32:	f3af 8000 	nop.w
}
   baa36:	bd08      	pop	{r3, pc}
	...

000baa40 <_post_loop>:
{
   baa40:	b508      	push	{r3, lr}
	serialEventRun();
   baa42:	f7ff ffe1 	bl	baa08 <serialEventRun>
		return !timeout_fn;
	}

	static inline system_tick_t current_time()
	{
		return HAL_Timer_Get_Milli_Seconds();
   baa46:	f7fc ffef 	bl	b7a28 <HAL_Timer_Get_Milli_Seconds>
	/**
	 * Lifesign that the application is still working normally.
	 */
	static void checkin()
	{
		last_checkin = current_time();
   baa4a:	4b01      	ldr	r3, [pc, #4]	; (baa50 <_post_loop+0x10>)
   baa4c:	6018      	str	r0, [r3, #0]
}
   baa4e:	bd08      	pop	{r3, pc}
   baa50:	2003e72c 	.word	0x2003e72c

000baa54 <_Z33system_initialize_user_backup_ramv>:
    memcpy(&link_global_retained_start, &link_global_retained_initial_values, len);
   baa54:	4805      	ldr	r0, [pc, #20]	; (baa6c <_Z33system_initialize_user_backup_ramv+0x18>)
   baa56:	4a06      	ldr	r2, [pc, #24]	; (baa70 <_Z33system_initialize_user_backup_ramv+0x1c>)
   baa58:	4906      	ldr	r1, [pc, #24]	; (baa74 <_Z33system_initialize_user_backup_ramv+0x20>)
{
   baa5a:	b508      	push	{r3, lr}
    memcpy(&link_global_retained_start, &link_global_retained_initial_values, len);
   baa5c:	1a12      	subs	r2, r2, r0
   baa5e:	f001 fcc5 	bl	bc3ec <memcpy>
    __backup_sram_signature = signature;
   baa62:	4b05      	ldr	r3, [pc, #20]	; (baa78 <_Z33system_initialize_user_backup_ramv+0x24>)
   baa64:	4a05      	ldr	r2, [pc, #20]	; (baa7c <_Z33system_initialize_user_backup_ramv+0x28>)
   baa66:	601a      	str	r2, [r3, #0]
}
   baa68:	bd08      	pop	{r3, pc}
   baa6a:	bf00      	nop
   baa6c:	2003f400 	.word	0x2003f400
   baa70:	2003f404 	.word	0x2003f404
   baa74:	000bd24c 	.word	0x000bd24c
   baa78:	2003f400 	.word	0x2003f400
   baa7c:	9a271c1e 	.word	0x9a271c1e

000baa80 <_Z27ctrl_request_custom_handlerP12ctrl_request>:
void __attribute((weak)) ctrl_request_custom_handler(ctrl_request* req) {
   baa80:	b507      	push	{r0, r1, r2, lr}
    system_ctrl_set_result(req, SYSTEM_ERROR_NOT_SUPPORTED, nullptr, nullptr, nullptr);
   baa82:	2300      	movs	r3, #0
   baa84:	9300      	str	r3, [sp, #0]
   baa86:	461a      	mov	r2, r3
   baa88:	f06f 0177 	mvn.w	r1, #119	; 0x77
   baa8c:	f7fd f9a6 	bl	b7ddc <system_ctrl_set_result>
}
   baa90:	b003      	add	sp, #12
   baa92:	f85d fb04 	ldr.w	pc, [sp], #4
	...

000baa98 <_ZL20ctrl_request_handlerP12ctrl_request>:
static void ctrl_request_handler(ctrl_request* req) {
   baa98:	b507      	push	{r0, r1, r2, lr}
    switch (req->type) {
   baa9a:	8843      	ldrh	r3, [r0, #2]
   baa9c:	2b0a      	cmp	r3, #10
   baa9e:	d008      	beq.n	baab2 <_ZL20ctrl_request_handlerP12ctrl_request+0x1a>
   baaa0:	2b50      	cmp	r3, #80	; 0x50
   baaa2:	d10b      	bne.n	baabc <_ZL20ctrl_request_handlerP12ctrl_request+0x24>
        if (log_process_ctrl_request_callback) {
   baaa4:	4b09      	ldr	r3, [pc, #36]	; (baacc <_ZL20ctrl_request_handlerP12ctrl_request+0x34>)
   baaa6:	681b      	ldr	r3, [r3, #0]
   baaa8:	b14b      	cbz	r3, baabe <_ZL20ctrl_request_handlerP12ctrl_request+0x26>
}
   baaaa:	b003      	add	sp, #12
   baaac:	f85d eb04 	ldr.w	lr, [sp], #4
            log_process_ctrl_request_callback(req);
   baab0:	4718      	bx	r3
        ctrl_request_custom_handler(req);
   baab2:	f7ff ffe5 	bl	baa80 <_Z27ctrl_request_custom_handlerP12ctrl_request>
}
   baab6:	b003      	add	sp, #12
   baab8:	f85d fb04 	ldr.w	pc, [sp], #4
        system_ctrl_set_result(req, SYSTEM_ERROR_NOT_SUPPORTED, nullptr, nullptr, nullptr);
   baabc:	2300      	movs	r3, #0
   baabe:	9300      	str	r3, [sp, #0]
   baac0:	461a      	mov	r2, r3
   baac2:	f06f 0177 	mvn.w	r1, #119	; 0x77
   baac6:	f7fd f989 	bl	b7ddc <system_ctrl_set_result>
}
   baaca:	e7f4      	b.n	baab6 <_ZL20ctrl_request_handlerP12ctrl_request+0x1e>
   baacc:	2003e728 	.word	0x2003e728

000baad0 <module_user_init_hook>:
{
   baad0:	b510      	push	{r4, lr}
    newlib_impure_ptr_callback([](struct _reent* r, size_t size, uint32_t version, void* ctx) -> void {
   baad2:	4812      	ldr	r0, [pc, #72]	; (bab1c <module_user_init_hook+0x4c>)
   baad4:	2100      	movs	r1, #0
   baad6:	f7fd fa69 	bl	b7fac <newlib_impure_ptr_callback>
#endif // HAL_PLATFORM_NEWLIB

#if HAL_PLATFORM_BACKUP_RAM
    backup_ram_was_valid_ = __backup_sram_signature == signature;
   baada:	4b11      	ldr	r3, [pc, #68]	; (bab20 <module_user_init_hook+0x50>)
   baadc:	681a      	ldr	r2, [r3, #0]
   baade:	4b11      	ldr	r3, [pc, #68]	; (bab24 <module_user_init_hook+0x54>)
   baae0:	429a      	cmp	r2, r3
   baae2:	4b11      	ldr	r3, [pc, #68]	; (bab28 <module_user_init_hook+0x58>)
   baae4:	bf0c      	ite	eq
   baae6:	2201      	moveq	r2, #1
   baae8:	2200      	movne	r2, #0
   baaea:	701a      	strb	r2, [r3, #0]
    if (!backup_ram_was_valid_) {
   baaec:	d001      	beq.n	baaf2 <module_user_init_hook+0x22>
        system_initialize_user_backup_ram();
   baaee:	f7ff ffb1 	bl	baa54 <_Z33system_initialize_user_backup_ramv>
    }
#endif

#if HAL_PLATFORM_RNG
    // Initialize the default stdlib PRNG using hardware RNG as a seed
    const uint32_t seed = HAL_RNG_GetRandomNumber();
   baaf2:	f7fc ff81 	bl	b79f8 <HAL_RNG_GetRandomNumber>
   baaf6:	4604      	mov	r4, r0
    srand(seed);
   baaf8:	f001 fca8 	bl	bc44c <srand>

    // If the user defines random_seed_from_cloud, call it with a seed value
    // generated by a hardware RNG as well.
    if (random_seed_from_cloud) {
   baafc:	4b0b      	ldr	r3, [pc, #44]	; (bab2c <module_user_init_hook+0x5c>)
   baafe:	b113      	cbz	r3, bab06 <module_user_init_hook+0x36>
        random_seed_from_cloud(seed);
   bab00:	4620      	mov	r0, r4
   bab02:	f3af 8000 	nop.w
    }
#endif
    // Register the random_seed_from_cloud handler
    spark_set_random_seed_from_cloud_handler(&random_seed_from_cloud, nullptr);
   bab06:	2100      	movs	r1, #0
   bab08:	4808      	ldr	r0, [pc, #32]	; (bab2c <module_user_init_hook+0x5c>)
   bab0a:	f7fd f99f 	bl	b7e4c <spark_set_random_seed_from_cloud_handler>

    // Register application handler for the control requests
    system_ctrl_set_app_request_handler(ctrl_request_handler, nullptr);
}
   bab0e:	e8bd 4010 	ldmia.w	sp!, {r4, lr}
    system_ctrl_set_app_request_handler(ctrl_request_handler, nullptr);
   bab12:	4807      	ldr	r0, [pc, #28]	; (bab30 <module_user_init_hook+0x60>)
   bab14:	2100      	movs	r1, #0
   bab16:	f7fd b957 	b.w	b7dc8 <system_ctrl_set_app_request_handler>
   bab1a:	bf00      	nop
   bab1c:	000ba9fd 	.word	0x000ba9fd
   bab20:	2003f400 	.word	0x2003f400
   bab24:	9a271c1e 	.word	0x9a271c1e
   bab28:	2003e724 	.word	0x2003e724
   bab2c:	00000000 	.word	0x00000000
   bab30:	000baa99 	.word	0x000baa99

000bab34 <pinAvailable>:
/*
 * @brief Perform safety check on desired pin to see if it's already
 * being used.  Return 0 if used, otherwise return 1 if available.
 */
bool pinAvailable(uint16_t pin) {
  if (pin >= TOTAL_PINS) {
   bab34:	2823      	cmp	r0, #35	; 0x23
bool pinAvailable(uint16_t pin) {
   bab36:	b513      	push	{r0, r1, r4, lr}
  if (pin >= TOTAL_PINS) {
   bab38:	d902      	bls.n	bab40 <pinAvailable+0xc>
    return false;
   bab3a:	2000      	movs	r0, #0
    return false; // 'pin' is used
  }
#endif

  return true; // 'pin' is available
}
   bab3c:	b002      	add	sp, #8
   bab3e:	bd10      	pop	{r4, pc}
  if((pin == SCK || pin == MOSI || pin == MISO) && hal_spi_is_enabled(SPI.interface()) == true)
   bab40:	f1a0 030b 	sub.w	r3, r0, #11
   bab44:	2b02      	cmp	r3, #2
   bab46:	d81a      	bhi.n	bab7e <pinAvailable+0x4a>

template <hal_spi_interface_t Interface>
class SpiProxy {
public:
    static SPIClass& instance() {
        static SPIClass instance(Interface);
   bab48:	4c17      	ldr	r4, [pc, #92]	; (baba8 <pinAvailable+0x74>)
   bab4a:	7821      	ldrb	r1, [r4, #0]
   bab4c:	f3bf 8f5b 	dmb	ish
   bab50:	f011 0101 	ands.w	r1, r1, #1
   bab54:	d10b      	bne.n	bab6e <pinAvailable+0x3a>
   bab56:	4620      	mov	r0, r4
   bab58:	9101      	str	r1, [sp, #4]
   bab5a:	f7f9 faaf 	bl	b40bc <__cxa_guard_acquire>
   bab5e:	9901      	ldr	r1, [sp, #4]
   bab60:	b128      	cbz	r0, bab6e <pinAvailable+0x3a>
   bab62:	4812      	ldr	r0, [pc, #72]	; (babac <pinAvailable+0x78>)
   bab64:	f7ff faba 	bl	ba0dc <_ZN8SPIClassC1E19hal_spi_interface_t>
   bab68:	4620      	mov	r0, r4
   bab6a:	f7f9 faac 	bl	b40c6 <__cxa_guard_release>
   bab6e:	4b0f      	ldr	r3, [pc, #60]	; (babac <pinAvailable+0x78>)
   bab70:	7818      	ldrb	r0, [r3, #0]
   bab72:	f7fd f821 	bl	b7bb8 <hal_spi_is_enabled>
   bab76:	2800      	cmp	r0, #0
   bab78:	d1df      	bne.n	bab3a <pinAvailable+0x6>
  return true; // 'pin' is available
   bab7a:	2001      	movs	r0, #1
   bab7c:	e7de      	b.n	bab3c <pinAvailable+0x8>
  if((pin == SCL || pin == SDA) && hal_i2c_is_enabled(Wire.interface(), nullptr) == true)
   bab7e:	2801      	cmp	r0, #1
   bab80:	d809      	bhi.n	bab96 <pinAvailable+0x62>
   bab82:	f000 f86d 	bl	bac60 <_Z19__fetch_global_Wirev>
   bab86:	2100      	movs	r1, #0
   bab88:	7c00      	ldrb	r0, [r0, #16]
   bab8a:	f7fc ffcd 	bl	b7b28 <hal_i2c_is_enabled>
  if((pin == RX || pin == TX) && hal_usart_is_enabled(Serial1.interface()) == true)
   bab8e:	f080 0001 	eor.w	r0, r0, #1
   bab92:	b2c0      	uxtb	r0, r0
   bab94:	e7d2      	b.n	bab3c <pinAvailable+0x8>
   bab96:	3809      	subs	r0, #9
   bab98:	2801      	cmp	r0, #1
   bab9a:	d8ee      	bhi.n	bab7a <pinAvailable+0x46>
   bab9c:	f000 f8a0 	bl	bace0 <_Z22__fetch_global_Serial1v>
   baba0:	7c00      	ldrb	r0, [r0, #16]
   baba2:	f7fd f871 	bl	b7c88 <hal_usart_is_enabled>
   baba6:	e7f2      	b.n	bab8e <pinAvailable+0x5a>
   baba8:	2003dc40 	.word	0x2003dc40
   babac:	2003dc44 	.word	0x2003dc44

000babb0 <pinMode>:
  if(pin >= TOTAL_PINS || setMode == PIN_MODE_NONE )
   babb0:	2823      	cmp	r0, #35	; 0x23
{
   babb2:	b538      	push	{r3, r4, r5, lr}
   babb4:	4604      	mov	r4, r0
   babb6:	460d      	mov	r5, r1
  if(pin >= TOTAL_PINS || setMode == PIN_MODE_NONE )
   babb8:	d80a      	bhi.n	babd0 <pinMode+0x20>
   babba:	29ff      	cmp	r1, #255	; 0xff
   babbc:	d008      	beq.n	babd0 <pinMode+0x20>
  if( !pinAvailable(pin) ) {
   babbe:	f7ff ffb9 	bl	bab34 <pinAvailable>
   babc2:	b128      	cbz	r0, babd0 <pinMode+0x20>
  HAL_Pin_Mode(pin, setMode);
   babc4:	4629      	mov	r1, r5
   babc6:	4620      	mov	r0, r4
}
   babc8:	e8bd 4038 	ldmia.w	sp!, {r3, r4, r5, lr}
  HAL_Pin_Mode(pin, setMode);
   babcc:	f7fc bf3c 	b.w	b7a48 <HAL_Pin_Mode>
}
   babd0:	bd38      	pop	{r3, r4, r5, pc}

000babd2 <digitalWrite>:

/*
 * @brief Sets a GPIO pin to HIGH or LOW.
 */
void digitalWrite(pin_t pin, uint8_t value)
{
   babd2:	b538      	push	{r3, r4, r5, lr}
   babd4:	4604      	mov	r4, r0
   babd6:	460d      	mov	r5, r1
    PinMode mode = HAL_Get_Pin_Mode(pin);
   babd8:	f7fc ff3e 	bl	b7a58 <HAL_Get_Pin_Mode>
    if (mode==PIN_MODE_NONE || is_input_mode(mode))
   babdc:	28ff      	cmp	r0, #255	; 0xff
   babde:	d010      	beq.n	bac02 <digitalWrite+0x30>
            mode == INPUT_PULLDOWN ||
   babe0:	2806      	cmp	r0, #6
   babe2:	d804      	bhi.n	babee <digitalWrite+0x1c>
   babe4:	234d      	movs	r3, #77	; 0x4d
   babe6:	fa23 f000 	lsr.w	r0, r3, r0
   babea:	07c3      	lsls	r3, r0, #31
   babec:	d409      	bmi.n	bac02 <digitalWrite+0x30>
        return;
  // Safety check
  if( !pinAvailable(pin) ) {
   babee:	4620      	mov	r0, r4
   babf0:	f7ff ffa0 	bl	bab34 <pinAvailable>
   babf4:	b128      	cbz	r0, bac02 <digitalWrite+0x30>
    return;
  }

  HAL_GPIO_Write(pin, value);
   babf6:	4629      	mov	r1, r5
   babf8:	4620      	mov	r0, r4
}
   babfa:	e8bd 4038 	ldmia.w	sp!, {r3, r4, r5, lr}
  HAL_GPIO_Write(pin, value);
   babfe:	f7fc bf33 	b.w	b7a68 <HAL_GPIO_Write>
}
   bac02:	bd38      	pop	{r3, r4, r5, pc}

000bac04 <analogRead>:
 */
int32_t analogRead(pin_t pin)
{
  // Allow people to use 0-7 to define analog pins by checking to see if the values are too low.
#if defined(FIRST_ANALOG_PIN) && FIRST_ANALOG_PIN > 0
  if(pin < FIRST_ANALOG_PIN)
   bac04:	280d      	cmp	r0, #13
{
   bac06:	b510      	push	{r4, lr}
   bac08:	4604      	mov	r4, r0
  {
    pin = pin + FIRST_ANALOG_PIN;
   bac0a:	bf9c      	itt	ls
   bac0c:	340e      	addls	r4, #14
   bac0e:	b2a4      	uxthls	r4, r4
  }
#endif // defined(FIRST_ANALOG_PIN) && FIRST_ANALOG_PIN > 0

  // Safety check
  if( !pinAvailable(pin) ) {
   bac10:	4620      	mov	r0, r4
   bac12:	f7ff ff8f 	bl	bab34 <pinAvailable>
   bac16:	b150      	cbz	r0, bac2e <analogRead+0x2a>
    return LOW;
  }

  if(HAL_Validate_Pin_Function(pin, PF_ADC)!=PF_ADC)
   bac18:	2103      	movs	r1, #3
   bac1a:	4620      	mov	r0, r4
   bac1c:	f7fc ff0c 	bl	b7a38 <HAL_Validate_Pin_Function>
   bac20:	2803      	cmp	r0, #3
   bac22:	d104      	bne.n	bac2e <analogRead+0x2a>
  {
    return LOW;
  }

  return hal_adc_read(pin);
   bac24:	4620      	mov	r0, r4
}
   bac26:	e8bd 4010 	ldmia.w	sp!, {r4, lr}
  return hal_adc_read(pin);
   bac2a:	f7fc bf35 	b.w	b7a98 <hal_adc_read>
}
   bac2e:	2000      	movs	r0, #0
   bac30:	bd10      	pop	{r4, pc}

000bac32 <__tcf_0>:
}
#endif

TwoWire& __fetch_global_Wire()
{
	static TwoWire wire(HAL_I2C_INTERFACE1, acquireWireBuffer());
   bac32:	4770      	bx	lr

000bac34 <_Z17acquireWireBufferv>:
{
   bac34:	b538      	push	{r3, r4, r5, lr}
	hal_i2c_config_t config = {
   bac36:	2520      	movs	r5, #32
   bac38:	2314      	movs	r3, #20
{
   bac3a:	4604      	mov	r4, r0
	hal_i2c_config_t config = {
   bac3c:	6003      	str	r3, [r0, #0]
   bac3e:	6085      	str	r5, [r0, #8]
   bac40:	6105      	str	r5, [r0, #16]
		.rx_buffer = new (std::nothrow) uint8_t[I2C_BUFFER_LENGTH],
   bac42:	4906      	ldr	r1, [pc, #24]	; (bac5c <_Z17acquireWireBufferv+0x28>)
   bac44:	4628      	mov	r0, r5
   bac46:	f000 f871 	bl	bad2c <_ZnajRKSt9nothrow_t>
		.tx_buffer = new (std::nothrow) uint8_t[I2C_BUFFER_LENGTH],
   bac4a:	4904      	ldr	r1, [pc, #16]	; (bac5c <_Z17acquireWireBufferv+0x28>)
	};
   bac4c:	6060      	str	r0, [r4, #4]
		.tx_buffer = new (std::nothrow) uint8_t[I2C_BUFFER_LENGTH],
   bac4e:	4628      	mov	r0, r5
   bac50:	f000 f86c 	bl	bad2c <_ZnajRKSt9nothrow_t>
	};
   bac54:	60e0      	str	r0, [r4, #12]
}
   bac56:	4620      	mov	r0, r4
   bac58:	bd38      	pop	{r3, r4, r5, pc}
   bac5a:	bf00      	nop
   bac5c:	000bcf8c 	.word	0x000bcf8c

000bac60 <_Z19__fetch_global_Wirev>:
{
   bac60:	b530      	push	{r4, r5, lr}
	static TwoWire wire(HAL_I2C_INTERFACE1, acquireWireBuffer());
   bac62:	4d0e      	ldr	r5, [pc, #56]	; (bac9c <_Z19__fetch_global_Wirev+0x3c>)
   bac64:	7829      	ldrb	r1, [r5, #0]
   bac66:	f3bf 8f5b 	dmb	ish
   bac6a:	f011 0401 	ands.w	r4, r1, #1
{
   bac6e:	b087      	sub	sp, #28
	static TwoWire wire(HAL_I2C_INTERFACE1, acquireWireBuffer());
   bac70:	d111      	bne.n	bac96 <_Z19__fetch_global_Wirev+0x36>
   bac72:	4628      	mov	r0, r5
   bac74:	f7f9 fa22 	bl	b40bc <__cxa_guard_acquire>
   bac78:	b168      	cbz	r0, bac96 <_Z19__fetch_global_Wirev+0x36>
   bac7a:	a801      	add	r0, sp, #4
   bac7c:	f7ff ffda 	bl	bac34 <_Z17acquireWireBufferv>
   bac80:	aa01      	add	r2, sp, #4
   bac82:	4621      	mov	r1, r4
   bac84:	4806      	ldr	r0, [pc, #24]	; (baca0 <_Z19__fetch_global_Wirev+0x40>)
   bac86:	f7fd fda5 	bl	b87d4 <_ZN7TwoWireC1E19hal_i2c_interface_tRK16hal_i2c_config_t>
   bac8a:	4628      	mov	r0, r5
   bac8c:	f7f9 fa1b 	bl	b40c6 <__cxa_guard_release>
   bac90:	4804      	ldr	r0, [pc, #16]	; (baca4 <_Z19__fetch_global_Wirev+0x44>)
   bac92:	f001 fb8d 	bl	bc3b0 <atexit>
	return wire;
}
   bac96:	4802      	ldr	r0, [pc, #8]	; (baca0 <_Z19__fetch_global_Wirev+0x40>)
   bac98:	b007      	add	sp, #28
   bac9a:	bd30      	pop	{r4, r5, pc}
   bac9c:	2003e730 	.word	0x2003e730
   baca0:	2003e734 	.word	0x2003e734
   baca4:	000bac33 	.word	0x000bac33

000baca8 <__tcf_0>:
}
#endif

USARTSerial& __fetch_global_Serial1()
{
    static USARTSerial serial1(HAL_USART_SERIAL1, acquireSerial1Buffer());
   baca8:	4770      	bx	lr
	...

000bacac <_Z20acquireSerial1Bufferv>:
{
   bacac:	b538      	push	{r3, r4, r5, lr}
   bacae:	4604      	mov	r4, r0
    hal_usart_buffer_config_t config = {
   bacb0:	2514      	movs	r5, #20
   bacb2:	462a      	mov	r2, r5
   bacb4:	2100      	movs	r1, #0
   bacb6:	f001 fbc1 	bl	bc43c <memset>
   bacba:	8025      	strh	r5, [r4, #0]
   bacbc:	2540      	movs	r5, #64	; 0x40
        .rx_buffer = new (std::nothrow) uint8_t[bufferSize],
   bacbe:	4907      	ldr	r1, [pc, #28]	; (bacdc <_Z20acquireSerial1Bufferv+0x30>)
    hal_usart_buffer_config_t config = {
   bacc0:	8125      	strh	r5, [r4, #8]
        .rx_buffer = new (std::nothrow) uint8_t[bufferSize],
   bacc2:	4628      	mov	r0, r5
    hal_usart_buffer_config_t config = {
   bacc4:	8225      	strh	r5, [r4, #16]
        .rx_buffer = new (std::nothrow) uint8_t[bufferSize],
   bacc6:	f000 f831 	bl	bad2c <_ZnajRKSt9nothrow_t>
        .tx_buffer = new (std::nothrow) uint8_t[bufferSize],
   bacca:	4904      	ldr	r1, [pc, #16]	; (bacdc <_Z20acquireSerial1Bufferv+0x30>)
    };
   baccc:	6060      	str	r0, [r4, #4]
        .tx_buffer = new (std::nothrow) uint8_t[bufferSize],
   bacce:	4628      	mov	r0, r5
   bacd0:	f000 f82c 	bl	bad2c <_ZnajRKSt9nothrow_t>
    };
   bacd4:	60e0      	str	r0, [r4, #12]
}
   bacd6:	4620      	mov	r0, r4
   bacd8:	bd38      	pop	{r3, r4, r5, pc}
   bacda:	bf00      	nop
   bacdc:	000bcf8c 	.word	0x000bcf8c

000bace0 <_Z22__fetch_global_Serial1v>:
{
   bace0:	b530      	push	{r4, r5, lr}
    static USARTSerial serial1(HAL_USART_SERIAL1, acquireSerial1Buffer());
   bace2:	4d0e      	ldr	r5, [pc, #56]	; (bad1c <_Z22__fetch_global_Serial1v+0x3c>)
   bace4:	7829      	ldrb	r1, [r5, #0]
   bace6:	f3bf 8f5b 	dmb	ish
   bacea:	f011 0401 	ands.w	r4, r1, #1
{
   bacee:	b087      	sub	sp, #28
    static USARTSerial serial1(HAL_USART_SERIAL1, acquireSerial1Buffer());
   bacf0:	d111      	bne.n	bad16 <_Z22__fetch_global_Serial1v+0x36>
   bacf2:	4628      	mov	r0, r5
   bacf4:	f7f9 f9e2 	bl	b40bc <__cxa_guard_acquire>
   bacf8:	b168      	cbz	r0, bad16 <_Z22__fetch_global_Serial1v+0x36>
   bacfa:	a801      	add	r0, sp, #4
   bacfc:	f7ff ffd6 	bl	bacac <_Z20acquireSerial1Bufferv>
   bad00:	aa01      	add	r2, sp, #4
   bad02:	4621      	mov	r1, r4
   bad04:	4806      	ldr	r0, [pc, #24]	; (bad20 <_Z22__fetch_global_Serial1v+0x40>)
   bad06:	f7ff fd5f 	bl	ba7c8 <_ZN11USARTSerialC1E21hal_usart_interface_tRK25hal_usart_buffer_config_t>
   bad0a:	4628      	mov	r0, r5
   bad0c:	f7f9 f9db 	bl	b40c6 <__cxa_guard_release>
   bad10:	4804      	ldr	r0, [pc, #16]	; (bad24 <_Z22__fetch_global_Serial1v+0x44>)
   bad12:	f001 fb4d 	bl	bc3b0 <atexit>
    return serial1;
}
   bad16:	4802      	ldr	r0, [pc, #8]	; (bad20 <_Z22__fetch_global_Serial1v+0x40>)
   bad18:	b007      	add	sp, #28
   bad1a:	bd30      	pop	{r4, r5, pc}
   bad1c:	2003e748 	.word	0x2003e748
   bad20:	2003e74c 	.word	0x2003e74c
   bad24:	000baca9 	.word	0x000baca9

000bad28 <_ZnwjRKSt9nothrow_t>:
   bad28:	f7f9 b9b5 	b.w	b4096 <_Znwj>

000bad2c <_ZnajRKSt9nothrow_t>:
   bad2c:	f7f9 b9b5 	b.w	b409a <_Znaj>

000bad30 <_ZSt25__throw_bad_function_callv>:
   bad30:	b508      	push	{r3, lr}
   bad32:	f7fd f923 	bl	b7f7c <abort>
	...

000bad38 <_ZNSt19_Sp_make_shared_tag5_S_eqERKSt9type_info>:
   bad38:	4901      	ldr	r1, [pc, #4]	; (bad40 <_ZNSt19_Sp_make_shared_tag5_S_eqERKSt9type_info+0x8>)
   bad3a:	f000 b8f9 	b.w	baf30 <_ZNKSt9type_infoeqERKS_>
   bad3e:	bf00      	nop
   bad40:	000bcfa8 	.word	0x000bcfa8

000bad44 <_ZNK10__cxxabiv117__class_type_info11__do_upcastEPKS0_PPv>:
   bad44:	b57f      	push	{r0, r1, r2, r3, r4, r5, r6, lr}
   bad46:	2400      	movs	r4, #0
   bad48:	2310      	movs	r3, #16
   bad4a:	e9cd 3402 	strd	r3, r4, [sp, #8]
   bad4e:	6803      	ldr	r3, [r0, #0]
   bad50:	4615      	mov	r5, r2
   bad52:	699e      	ldr	r6, [r3, #24]
   bad54:	6812      	ldr	r2, [r2, #0]
   bad56:	466b      	mov	r3, sp
   bad58:	e9cd 4400 	strd	r4, r4, [sp]
   bad5c:	47b0      	blx	r6
   bad5e:	f89d 3004 	ldrb.w	r3, [sp, #4]
   bad62:	f003 0306 	and.w	r3, r3, #6
   bad66:	2b06      	cmp	r3, #6
   bad68:	bf03      	ittte	eq
   bad6a:	9b00      	ldreq	r3, [sp, #0]
   bad6c:	602b      	streq	r3, [r5, #0]
   bad6e:	2001      	moveq	r0, #1
   bad70:	4620      	movne	r0, r4
   bad72:	b004      	add	sp, #16
   bad74:	bd70      	pop	{r4, r5, r6, pc}

000bad76 <_ZNK10__cxxabiv117__class_type_info20__do_find_public_srcEiPKvPKS0_S2_>:
   bad76:	9800      	ldr	r0, [sp, #0]
   bad78:	4290      	cmp	r0, r2
   bad7a:	bf14      	ite	ne
   bad7c:	2001      	movne	r0, #1
   bad7e:	2006      	moveq	r0, #6
   bad80:	4770      	bx	lr
	...

000bad84 <_ZN10__cxxabiv117__class_type_infoD1Ev>:
   bad84:	b510      	push	{r4, lr}
   bad86:	4b03      	ldr	r3, [pc, #12]	; (bad94 <_ZN10__cxxabiv117__class_type_infoD1Ev+0x10>)
   bad88:	6003      	str	r3, [r0, #0]
   bad8a:	4604      	mov	r4, r0
   bad8c:	f000 f8cd 	bl	baf2a <_ZNSt9type_infoD1Ev>
   bad90:	4620      	mov	r0, r4
   bad92:	bd10      	pop	{r4, pc}
   bad94:	000bcfe8 	.word	0x000bcfe8

000bad98 <_ZN10__cxxabiv117__class_type_infoD0Ev>:
   bad98:	b510      	push	{r4, lr}
   bad9a:	4604      	mov	r4, r0
   bad9c:	f7ff fff2 	bl	bad84 <_ZN10__cxxabiv117__class_type_infoD1Ev>
   bada0:	4620      	mov	r0, r4
   bada2:	2108      	movs	r1, #8
   bada4:	f7f9 f97b 	bl	b409e <_ZdlPvj>
   bada8:	4620      	mov	r0, r4
   badaa:	bd10      	pop	{r4, pc}

000badac <_ZNK10__cxxabiv117__class_type_info12__do_dyncastEiNS0_10__sub_kindEPKS0_PKvS3_S5_RNS0_16__dyncast_resultE>:
   badac:	e92d 41f0 	stmdb	sp!, {r4, r5, r6, r7, r8, lr}
   badb0:	461f      	mov	r7, r3
   badb2:	e9dd 3408 	ldrd	r3, r4, [sp, #32]
   badb6:	f8dd 8018 	ldr.w	r8, [sp, #24]
   badba:	4598      	cmp	r8, r3
   badbc:	4606      	mov	r6, r0
   badbe:	4615      	mov	r5, r2
   badc0:	d107      	bne.n	badd2 <_ZNK10__cxxabiv117__class_type_info12__do_dyncastEiNS0_10__sub_kindEPKS0_PKvS3_S5_RNS0_16__dyncast_resultE+0x26>
   badc2:	9907      	ldr	r1, [sp, #28]
   badc4:	f000 f8b4 	bl	baf30 <_ZNKSt9type_infoeqERKS_>
   badc8:	b118      	cbz	r0, badd2 <_ZNK10__cxxabiv117__class_type_info12__do_dyncastEiNS0_10__sub_kindEPKS0_PKvS3_S5_RNS0_16__dyncast_resultE+0x26>
   badca:	7165      	strb	r5, [r4, #5]
   badcc:	2000      	movs	r0, #0
   badce:	e8bd 81f0 	ldmia.w	sp!, {r4, r5, r6, r7, r8, pc}
   badd2:	4639      	mov	r1, r7
   badd4:	4630      	mov	r0, r6
   badd6:	f000 f8ab 	bl	baf30 <_ZNKSt9type_infoeqERKS_>
   badda:	2800      	cmp	r0, #0
   baddc:	d0f6      	beq.n	badcc <_ZNK10__cxxabiv117__class_type_info12__do_dyncastEiNS0_10__sub_kindEPKS0_PKvS3_S5_RNS0_16__dyncast_resultE+0x20>
   badde:	2301      	movs	r3, #1
   bade0:	f8c4 8000 	str.w	r8, [r4]
   bade4:	7125      	strb	r5, [r4, #4]
   bade6:	71a3      	strb	r3, [r4, #6]
   bade8:	e7f0      	b.n	badcc <_ZNK10__cxxabiv117__class_type_info12__do_dyncastEiNS0_10__sub_kindEPKS0_PKvS3_S5_RNS0_16__dyncast_resultE+0x20>

000badea <_ZNK10__cxxabiv117__class_type_info11__do_upcastEPKS0_PKvRNS0_15__upcast_resultE>:
   badea:	b538      	push	{r3, r4, r5, lr}
   badec:	4615      	mov	r5, r2
   badee:	461c      	mov	r4, r3
   badf0:	f000 f89e 	bl	baf30 <_ZNKSt9type_infoeqERKS_>
   badf4:	b120      	cbz	r0, bae00 <_ZNK10__cxxabiv117__class_type_info11__do_upcastEPKS0_PKvRNS0_15__upcast_resultE+0x16>
   badf6:	2308      	movs	r3, #8
   badf8:	60e3      	str	r3, [r4, #12]
   badfa:	2306      	movs	r3, #6
   badfc:	6025      	str	r5, [r4, #0]
   badfe:	7123      	strb	r3, [r4, #4]
   bae00:	bd38      	pop	{r3, r4, r5, pc}

000bae02 <_ZNK10__cxxabiv117__class_type_info10__do_catchEPKSt9type_infoPPvj>:
   bae02:	b573      	push	{r0, r1, r4, r5, r6, lr}
   bae04:	4605      	mov	r5, r0
   bae06:	460c      	mov	r4, r1
   bae08:	9201      	str	r2, [sp, #4]
   bae0a:	461e      	mov	r6, r3
   bae0c:	f000 f890 	bl	baf30 <_ZNKSt9type_infoeqERKS_>
   bae10:	b950      	cbnz	r0, bae28 <_ZNK10__cxxabiv117__class_type_info10__do_catchEPKSt9type_infoPPvj+0x26>
   bae12:	2e03      	cmp	r6, #3
   bae14:	d808      	bhi.n	bae28 <_ZNK10__cxxabiv117__class_type_info10__do_catchEPKSt9type_infoPPvj+0x26>
   bae16:	6823      	ldr	r3, [r4, #0]
   bae18:	9a01      	ldr	r2, [sp, #4]
   bae1a:	695b      	ldr	r3, [r3, #20]
   bae1c:	4629      	mov	r1, r5
   bae1e:	4620      	mov	r0, r4
   bae20:	b002      	add	sp, #8
   bae22:	e8bd 4070 	ldmia.w	sp!, {r4, r5, r6, lr}
   bae26:	4718      	bx	r3
   bae28:	b002      	add	sp, #8
   bae2a:	bd70      	pop	{r4, r5, r6, pc}

000bae2c <_ZN10__cxxabiv120__si_class_type_infoD1Ev>:
   bae2c:	b510      	push	{r4, lr}
   bae2e:	4b03      	ldr	r3, [pc, #12]	; (bae3c <_ZN10__cxxabiv120__si_class_type_infoD1Ev+0x10>)
   bae30:	6003      	str	r3, [r0, #0]
   bae32:	4604      	mov	r4, r0
   bae34:	f7ff ffa6 	bl	bad84 <_ZN10__cxxabiv117__class_type_infoD1Ev>
   bae38:	4620      	mov	r0, r4
   bae3a:	bd10      	pop	{r4, pc}
   bae3c:	000bd048 	.word	0x000bd048

000bae40 <_ZN10__cxxabiv120__si_class_type_infoD0Ev>:
   bae40:	b510      	push	{r4, lr}
   bae42:	4604      	mov	r4, r0
   bae44:	f7ff fff2 	bl	bae2c <_ZN10__cxxabiv120__si_class_type_infoD1Ev>
   bae48:	4620      	mov	r0, r4
   bae4a:	210c      	movs	r1, #12
   bae4c:	f7f9 f927 	bl	b409e <_ZdlPvj>
   bae50:	4620      	mov	r0, r4
   bae52:	bd10      	pop	{r4, pc}

000bae54 <_ZNK10__cxxabiv120__si_class_type_info20__do_find_public_srcEiPKvPKNS_17__class_type_infoES2_>:
   bae54:	b5f7      	push	{r0, r1, r2, r4, r5, r6, r7, lr}
   bae56:	9f08      	ldr	r7, [sp, #32]
   bae58:	4297      	cmp	r7, r2
   bae5a:	4605      	mov	r5, r0
   bae5c:	460e      	mov	r6, r1
   bae5e:	4614      	mov	r4, r2
   bae60:	d00a      	beq.n	bae78 <_ZNK10__cxxabiv120__si_class_type_info20__do_find_public_srcEiPKvPKNS_17__class_type_infoES2_+0x24>
   bae62:	68a8      	ldr	r0, [r5, #8]
   bae64:	6802      	ldr	r2, [r0, #0]
   bae66:	9708      	str	r7, [sp, #32]
   bae68:	6a15      	ldr	r5, [r2, #32]
   bae6a:	4631      	mov	r1, r6
   bae6c:	4622      	mov	r2, r4
   bae6e:	46ac      	mov	ip, r5
   bae70:	b003      	add	sp, #12
   bae72:	e8bd 40f0 	ldmia.w	sp!, {r4, r5, r6, r7, lr}
   bae76:	4760      	bx	ip
   bae78:	4619      	mov	r1, r3
   bae7a:	9301      	str	r3, [sp, #4]
   bae7c:	f000 f858 	bl	baf30 <_ZNKSt9type_infoeqERKS_>
   bae80:	9b01      	ldr	r3, [sp, #4]
   bae82:	2800      	cmp	r0, #0
   bae84:	d0ed      	beq.n	bae62 <_ZNK10__cxxabiv120__si_class_type_info20__do_find_public_srcEiPKvPKNS_17__class_type_infoES2_+0xe>
   bae86:	2006      	movs	r0, #6
   bae88:	b003      	add	sp, #12
   bae8a:	bdf0      	pop	{r4, r5, r6, r7, pc}

000bae8c <_ZNK10__cxxabiv120__si_class_type_info12__do_dyncastEiNS_17__class_type_info10__sub_kindEPKS1_PKvS4_S6_RNS1_16__dyncast_resultE>:
   bae8c:	e92d 4ff1 	stmdb	sp!, {r0, r4, r5, r6, r7, r8, r9, sl, fp, lr}
   bae90:	460d      	mov	r5, r1
   bae92:	4619      	mov	r1, r3
   bae94:	e9dd 4b0a 	ldrd	r4, fp, [sp, #40]	; 0x28
   bae98:	e9dd a60c 	ldrd	sl, r6, [sp, #48]	; 0x30
   bae9c:	4681      	mov	r9, r0
   bae9e:	4617      	mov	r7, r2
   baea0:	4698      	mov	r8, r3
   baea2:	f000 f845 	bl	baf30 <_ZNKSt9type_infoeqERKS_>
   baea6:	b190      	cbz	r0, baece <_ZNK10__cxxabiv120__si_class_type_info12__do_dyncastEiNS_17__class_type_info10__sub_kindEPKS1_PKvS4_S6_RNS1_16__dyncast_resultE+0x42>
   baea8:	2d00      	cmp	r5, #0
   baeaa:	6034      	str	r4, [r6, #0]
   baeac:	7137      	strb	r7, [r6, #4]
   baeae:	db09      	blt.n	baec4 <_ZNK10__cxxabiv120__si_class_type_info12__do_dyncastEiNS_17__class_type_info10__sub_kindEPKS1_PKvS4_S6_RNS1_16__dyncast_resultE+0x38>
   baeb0:	1961      	adds	r1, r4, r5
   baeb2:	458a      	cmp	sl, r1
   baeb4:	bf0c      	ite	eq
   baeb6:	2106      	moveq	r1, #6
   baeb8:	2101      	movne	r1, #1
   baeba:	71b1      	strb	r1, [r6, #6]
   baebc:	2000      	movs	r0, #0
   baebe:	b001      	add	sp, #4
   baec0:	e8bd 8ff0 	ldmia.w	sp!, {r4, r5, r6, r7, r8, r9, sl, fp, pc}
   baec4:	3502      	adds	r5, #2
   baec6:	d1f9      	bne.n	baebc <_ZNK10__cxxabiv120__si_class_type_info12__do_dyncastEiNS_17__class_type_info10__sub_kindEPKS1_PKvS4_S6_RNS1_16__dyncast_resultE+0x30>
   baec8:	2301      	movs	r3, #1
   baeca:	71b3      	strb	r3, [r6, #6]
   baecc:	e7f6      	b.n	baebc <_ZNK10__cxxabiv120__si_class_type_info12__do_dyncastEiNS_17__class_type_info10__sub_kindEPKS1_PKvS4_S6_RNS1_16__dyncast_resultE+0x30>
   baece:	4554      	cmp	r4, sl
   baed0:	d106      	bne.n	baee0 <_ZNK10__cxxabiv120__si_class_type_info12__do_dyncastEiNS_17__class_type_info10__sub_kindEPKS1_PKvS4_S6_RNS1_16__dyncast_resultE+0x54>
   baed2:	4659      	mov	r1, fp
   baed4:	4648      	mov	r0, r9
   baed6:	f000 f82b 	bl	baf30 <_ZNKSt9type_infoeqERKS_>
   baeda:	b108      	cbz	r0, baee0 <_ZNK10__cxxabiv120__si_class_type_info12__do_dyncastEiNS_17__class_type_info10__sub_kindEPKS1_PKvS4_S6_RNS1_16__dyncast_resultE+0x54>
   baedc:	7177      	strb	r7, [r6, #5]
   baede:	e7ed      	b.n	baebc <_ZNK10__cxxabiv120__si_class_type_info12__do_dyncastEiNS_17__class_type_info10__sub_kindEPKS1_PKvS4_S6_RNS1_16__dyncast_resultE+0x30>
   baee0:	f8d9 0008 	ldr.w	r0, [r9, #8]
   baee4:	6803      	ldr	r3, [r0, #0]
   baee6:	e9cd a60c 	strd	sl, r6, [sp, #48]	; 0x30
   baeea:	e9cd 4b0a 	strd	r4, fp, [sp, #40]	; 0x28
   baeee:	69dc      	ldr	r4, [r3, #28]
   baef0:	463a      	mov	r2, r7
   baef2:	4643      	mov	r3, r8
   baef4:	4629      	mov	r1, r5
   baef6:	46a4      	mov	ip, r4
   baef8:	b001      	add	sp, #4
   baefa:	e8bd 4ff0 	ldmia.w	sp!, {r4, r5, r6, r7, r8, r9, sl, fp, lr}
   baefe:	4760      	bx	ip

000baf00 <_ZNK10__cxxabiv120__si_class_type_info11__do_upcastEPKNS_17__class_type_infoEPKvRNS1_15__upcast_resultE>:
   baf00:	e92d 41f0 	stmdb	sp!, {r4, r5, r6, r7, r8, lr}
   baf04:	4607      	mov	r7, r0
   baf06:	460c      	mov	r4, r1
   baf08:	4615      	mov	r5, r2
   baf0a:	461e      	mov	r6, r3
   baf0c:	f7ff ff6d 	bl	badea <_ZNK10__cxxabiv117__class_type_info11__do_upcastEPKS0_PKvRNS0_15__upcast_resultE>
   baf10:	b948      	cbnz	r0, baf26 <_ZNK10__cxxabiv120__si_class_type_info11__do_upcastEPKNS_17__class_type_infoEPKvRNS1_15__upcast_resultE+0x26>
   baf12:	68b8      	ldr	r0, [r7, #8]
   baf14:	6803      	ldr	r3, [r0, #0]
   baf16:	699f      	ldr	r7, [r3, #24]
   baf18:	462a      	mov	r2, r5
   baf1a:	4633      	mov	r3, r6
   baf1c:	4621      	mov	r1, r4
   baf1e:	46bc      	mov	ip, r7
   baf20:	e8bd 41f0 	ldmia.w	sp!, {r4, r5, r6, r7, r8, lr}
   baf24:	4760      	bx	ip
   baf26:	e8bd 81f0 	ldmia.w	sp!, {r4, r5, r6, r7, r8, pc}

000baf2a <_ZNSt9type_infoD1Ev>:
   baf2a:	4770      	bx	lr

000baf2c <_ZNKSt9type_info14__is_pointer_pEv>:
   baf2c:	2000      	movs	r0, #0
   baf2e:	4770      	bx	lr

000baf30 <_ZNKSt9type_infoeqERKS_>:
   baf30:	4281      	cmp	r1, r0
   baf32:	b508      	push	{r3, lr}
   baf34:	d00e      	beq.n	baf54 <_ZNKSt9type_infoeqERKS_+0x24>
   baf36:	6840      	ldr	r0, [r0, #4]
   baf38:	7803      	ldrb	r3, [r0, #0]
   baf3a:	2b2a      	cmp	r3, #42	; 0x2a
   baf3c:	d00c      	beq.n	baf58 <_ZNKSt9type_infoeqERKS_+0x28>
   baf3e:	6849      	ldr	r1, [r1, #4]
   baf40:	780b      	ldrb	r3, [r1, #0]
   baf42:	2b2a      	cmp	r3, #42	; 0x2a
   baf44:	bf08      	it	eq
   baf46:	3101      	addeq	r1, #1
   baf48:	f001 fb03 	bl	bc552 <strcmp>
   baf4c:	fab0 f080 	clz	r0, r0
   baf50:	0940      	lsrs	r0, r0, #5
   baf52:	bd08      	pop	{r3, pc}
   baf54:	2001      	movs	r0, #1
   baf56:	e7fc      	b.n	baf52 <_ZNKSt9type_infoeqERKS_+0x22>
   baf58:	2000      	movs	r0, #0
   baf5a:	e7fa      	b.n	baf52 <_ZNKSt9type_infoeqERKS_+0x22>
   baf5c:	0000      	movs	r0, r0
	...

000baf60 <ceil>:
   baf60:	ec51 0b10 	vmov	r0, r1, d0
   baf64:	b5f8      	push	{r3, r4, r5, r6, r7, lr}
   baf66:	f3c1 530a 	ubfx	r3, r1, #20, #11
   baf6a:	f2a3 35ff 	subw	r5, r3, #1023	; 0x3ff
   baf6e:	2d13      	cmp	r5, #19
   baf70:	ee10 6a10 	vmov	r6, s0
   baf74:	460c      	mov	r4, r1
   baf76:	dc32      	bgt.n	bafde <ceil+0x7e>
   baf78:	2d00      	cmp	r5, #0
   baf7a:	db1e      	blt.n	bafba <ceil+0x5a>
   baf7c:	4f36      	ldr	r7, [pc, #216]	; (bb058 <ceil+0xf8>)
   baf7e:	412f      	asrs	r7, r5
   baf80:	ea01 0307 	and.w	r3, r1, r7
   baf84:	4303      	orrs	r3, r0
   baf86:	d02f      	beq.n	bafe8 <ceil+0x88>
   baf88:	a331      	add	r3, pc, #196	; (adr r3, bb050 <ceil+0xf0>)
   baf8a:	e9d3 2300 	ldrd	r2, r3, [r3]
   baf8e:	f000 fb71 	bl	bb674 <__adddf3>
   baf92:	2200      	movs	r2, #0
   baf94:	2300      	movs	r3, #0
   baf96:	f000 ffb3 	bl	bbf00 <__aeabi_dcmpgt>
   baf9a:	b148      	cbz	r0, bafb0 <ceil+0x50>
   baf9c:	2c00      	cmp	r4, #0
   baf9e:	dd04      	ble.n	bafaa <ceil+0x4a>
   bafa0:	f44f 1380 	mov.w	r3, #1048576	; 0x100000
   bafa4:	fa43 f505 	asr.w	r5, r3, r5
   bafa8:	442c      	add	r4, r5
   bafaa:	ea24 0407 	bic.w	r4, r4, r7
   bafae:	2600      	movs	r6, #0
   bafb0:	4623      	mov	r3, r4
   bafb2:	4632      	mov	r2, r6
   bafb4:	ec43 2b10 	vmov	d0, r2, r3
   bafb8:	bdf8      	pop	{r3, r4, r5, r6, r7, pc}
   bafba:	a325      	add	r3, pc, #148	; (adr r3, bb050 <ceil+0xf0>)
   bafbc:	e9d3 2300 	ldrd	r2, r3, [r3]
   bafc0:	f000 fb58 	bl	bb674 <__adddf3>
   bafc4:	2200      	movs	r2, #0
   bafc6:	2300      	movs	r3, #0
   bafc8:	f000 ff9a 	bl	bbf00 <__aeabi_dcmpgt>
   bafcc:	2800      	cmp	r0, #0
   bafce:	d0ef      	beq.n	bafb0 <ceil+0x50>
   bafd0:	2c00      	cmp	r4, #0
   bafd2:	db39      	blt.n	bb048 <ceil+0xe8>
   bafd4:	4326      	orrs	r6, r4
   bafd6:	d033      	beq.n	bb040 <ceil+0xe0>
   bafd8:	4c20      	ldr	r4, [pc, #128]	; (bb05c <ceil+0xfc>)
   bafda:	2600      	movs	r6, #0
   bafdc:	e7e8      	b.n	bafb0 <ceil+0x50>
   bafde:	2d33      	cmp	r5, #51	; 0x33
   bafe0:	dd05      	ble.n	bafee <ceil+0x8e>
   bafe2:	f5b5 6f80 	cmp.w	r5, #1024	; 0x400
   bafe6:	d023      	beq.n	bb030 <ceil+0xd0>
   bafe8:	ec41 0b10 	vmov	d0, r0, r1
   bafec:	bdf8      	pop	{r3, r4, r5, r6, r7, pc}
   bafee:	f2a3 4313 	subw	r3, r3, #1043	; 0x413
   baff2:	f04f 37ff 	mov.w	r7, #4294967295	; 0xffffffff
   baff6:	40df      	lsrs	r7, r3
   baff8:	4207      	tst	r7, r0
   baffa:	d0f5      	beq.n	bafe8 <ceil+0x88>
   baffc:	a314      	add	r3, pc, #80	; (adr r3, bb050 <ceil+0xf0>)
   baffe:	e9d3 2300 	ldrd	r2, r3, [r3]
   bb002:	f000 fb37 	bl	bb674 <__adddf3>
   bb006:	2200      	movs	r2, #0
   bb008:	2300      	movs	r3, #0
   bb00a:	f000 ff79 	bl	bbf00 <__aeabi_dcmpgt>
   bb00e:	2800      	cmp	r0, #0
   bb010:	d0ce      	beq.n	bafb0 <ceil+0x50>
   bb012:	2c00      	cmp	r4, #0
   bb014:	dd09      	ble.n	bb02a <ceil+0xca>
   bb016:	2d14      	cmp	r5, #20
   bb018:	d014      	beq.n	bb044 <ceil+0xe4>
   bb01a:	2301      	movs	r3, #1
   bb01c:	f1c5 0534 	rsb	r5, r5, #52	; 0x34
   bb020:	fa03 f505 	lsl.w	r5, r3, r5
   bb024:	19ae      	adds	r6, r5, r6
   bb026:	bf28      	it	cs
   bb028:	18e4      	addcs	r4, r4, r3
   bb02a:	ea26 0607 	bic.w	r6, r6, r7
   bb02e:	e7bf      	b.n	bafb0 <ceil+0x50>
   bb030:	ee10 2a10 	vmov	r2, s0
   bb034:	460b      	mov	r3, r1
   bb036:	f000 fb1d 	bl	bb674 <__adddf3>
   bb03a:	ec41 0b10 	vmov	d0, r0, r1
   bb03e:	bdf8      	pop	{r3, r4, r5, r6, r7, pc}
   bb040:	4634      	mov	r4, r6
   bb042:	e7b5      	b.n	bafb0 <ceil+0x50>
   bb044:	3401      	adds	r4, #1
   bb046:	e7f0      	b.n	bb02a <ceil+0xca>
   bb048:	2600      	movs	r6, #0
   bb04a:	f04f 4400 	mov.w	r4, #2147483648	; 0x80000000
   bb04e:	e7af      	b.n	bafb0 <ceil+0x50>
   bb050:	8800759c 	.word	0x8800759c
   bb054:	7e37e43c 	.word	0x7e37e43c
   bb058:	000fffff 	.word	0x000fffff
   bb05c:	3ff00000 	.word	0x3ff00000

000bb060 <log10>:
   bb060:	b538      	push	{r3, r4, r5, lr}
   bb062:	ed2d 8b02 	vpush	{d8}
   bb066:	ec55 4b10 	vmov	r4, r5, d0
   bb06a:	f000 f841 	bl	bb0f0 <__ieee754_log10>
   bb06e:	4b1e      	ldr	r3, [pc, #120]	; (bb0e8 <log10+0x88>)
   bb070:	eeb0 8a40 	vmov.f32	s16, s0
   bb074:	eef0 8a60 	vmov.f32	s17, s1
   bb078:	f993 3000 	ldrsb.w	r3, [r3]
   bb07c:	3301      	adds	r3, #1
   bb07e:	d01a      	beq.n	bb0b6 <log10+0x56>
   bb080:	4622      	mov	r2, r4
   bb082:	462b      	mov	r3, r5
   bb084:	4620      	mov	r0, r4
   bb086:	4629      	mov	r1, r5
   bb088:	f000 ff44 	bl	bbf14 <__aeabi_dcmpun>
   bb08c:	b998      	cbnz	r0, bb0b6 <log10+0x56>
   bb08e:	2200      	movs	r2, #0
   bb090:	2300      	movs	r3, #0
   bb092:	4620      	mov	r0, r4
   bb094:	4629      	mov	r1, r5
   bb096:	f000 ff1f 	bl	bbed8 <__aeabi_dcmple>
   bb09a:	b160      	cbz	r0, bb0b6 <log10+0x56>
   bb09c:	2200      	movs	r2, #0
   bb09e:	2300      	movs	r3, #0
   bb0a0:	4620      	mov	r0, r4
   bb0a2:	4629      	mov	r1, r5
   bb0a4:	f000 ff04 	bl	bbeb0 <__aeabi_dcmpeq>
   bb0a8:	b160      	cbz	r0, bb0c4 <log10+0x64>
   bb0aa:	f7fc ff6f 	bl	b7f8c <__errno>
   bb0ae:	ed9f 8b0c 	vldr	d8, [pc, #48]	; bb0e0 <log10+0x80>
   bb0b2:	2322      	movs	r3, #34	; 0x22
   bb0b4:	6003      	str	r3, [r0, #0]
   bb0b6:	eeb0 0a48 	vmov.f32	s0, s16
   bb0ba:	eef0 0a68 	vmov.f32	s1, s17
   bb0be:	ecbd 8b02 	vpop	{d8}
   bb0c2:	bd38      	pop	{r3, r4, r5, pc}
   bb0c4:	f7fc ff62 	bl	b7f8c <__errno>
   bb0c8:	ecbd 8b02 	vpop	{d8}
   bb0cc:	4603      	mov	r3, r0
   bb0ce:	2221      	movs	r2, #33	; 0x21
   bb0d0:	601a      	str	r2, [r3, #0]
   bb0d2:	4806      	ldr	r0, [pc, #24]	; (bb0ec <log10+0x8c>)
   bb0d4:	e8bd 4038 	ldmia.w	sp!, {r3, r4, r5, lr}
   bb0d8:	f000 b8a2 	b.w	bb220 <nan>
   bb0dc:	f3af 8000 	nop.w
   bb0e0:	00000000 	.word	0x00000000
   bb0e4:	fff00000 	.word	0xfff00000
   bb0e8:	2003dbd0 	.word	0x2003dbd0
   bb0ec:	000bd084 	.word	0x000bd084

000bb0f0 <__ieee754_log10>:
   bb0f0:	e92d 43f8 	stmdb	sp!, {r3, r4, r5, r6, r7, r8, r9, lr}
   bb0f4:	ec55 4b10 	vmov	r4, r5, d0
   bb0f8:	f5b5 1f80 	cmp.w	r5, #1048576	; 0x100000
   bb0fc:	462b      	mov	r3, r5
   bb0fe:	da1e      	bge.n	bb13e <__ieee754_log10+0x4e>
   bb100:	f025 4200 	bic.w	r2, r5, #2147483648	; 0x80000000
   bb104:	4322      	orrs	r2, r4
   bb106:	d060      	beq.n	bb1ca <__ieee754_log10+0xda>
   bb108:	2d00      	cmp	r5, #0
   bb10a:	db68      	blt.n	bb1de <__ieee754_log10+0xee>
   bb10c:	4b40      	ldr	r3, [pc, #256]	; (bb210 <__ieee754_log10+0x120>)
   bb10e:	4629      	mov	r1, r5
   bb110:	2200      	movs	r2, #0
   bb112:	ee10 0a10 	vmov	r0, s0
   bb116:	f000 fc63 	bl	bb9e0 <__aeabi_dmul>
   bb11a:	4a3e      	ldr	r2, [pc, #248]	; (bb214 <__ieee754_log10+0x124>)
   bb11c:	460d      	mov	r5, r1
   bb11e:	462b      	mov	r3, r5
   bb120:	4293      	cmp	r3, r2
   bb122:	4604      	mov	r4, r0
   bb124:	f06f 0135 	mvn.w	r1, #53	; 0x35
   bb128:	dd0e      	ble.n	bb148 <__ieee754_log10+0x58>
   bb12a:	4622      	mov	r2, r4
   bb12c:	462b      	mov	r3, r5
   bb12e:	4620      	mov	r0, r4
   bb130:	4629      	mov	r1, r5
   bb132:	f000 fa9f 	bl	bb674 <__adddf3>
   bb136:	ec41 0b10 	vmov	d0, r0, r1
   bb13a:	e8bd 83f8 	ldmia.w	sp!, {r3, r4, r5, r6, r7, r8, r9, pc}
   bb13e:	4a35      	ldr	r2, [pc, #212]	; (bb214 <__ieee754_log10+0x124>)
   bb140:	4293      	cmp	r3, r2
   bb142:	f04f 0100 	mov.w	r1, #0
   bb146:	dcf0      	bgt.n	bb12a <__ieee754_log10+0x3a>
   bb148:	1518      	asrs	r0, r3, #20
   bb14a:	f2a0 30ff 	subw	r0, r0, #1023	; 0x3ff
   bb14e:	4408      	add	r0, r1
   bb150:	0fc7      	lsrs	r7, r0, #31
   bb152:	eb00 70d0 	add.w	r0, r0, r0, lsr #31
   bb156:	f3c3 0613 	ubfx	r6, r3, #0, #20
   bb15a:	f000 fbd7 	bl	bb90c <__aeabi_i2d>
   bb15e:	f5c7 737f 	rsb	r3, r7, #1020	; 0x3fc
   bb162:	3303      	adds	r3, #3
   bb164:	ea46 5503 	orr.w	r5, r6, r3, lsl #20
   bb168:	ec45 4b10 	vmov	d0, r4, r5
   bb16c:	4606      	mov	r6, r0
   bb16e:	460f      	mov	r7, r1
   bb170:	f000 f85e 	bl	bb230 <__ieee754_log>
   bb174:	a320      	add	r3, pc, #128	; (adr r3, bb1f8 <__ieee754_log10+0x108>)
   bb176:	e9d3 2300 	ldrd	r2, r3, [r3]
   bb17a:	4630      	mov	r0, r6
   bb17c:	4639      	mov	r1, r7
   bb17e:	ec59 8b10 	vmov	r8, r9, d0
   bb182:	f000 fc2d 	bl	bb9e0 <__aeabi_dmul>
   bb186:	a31e      	add	r3, pc, #120	; (adr r3, bb200 <__ieee754_log10+0x110>)
   bb188:	e9d3 2300 	ldrd	r2, r3, [r3]
   bb18c:	4604      	mov	r4, r0
   bb18e:	460d      	mov	r5, r1
   bb190:	4640      	mov	r0, r8
   bb192:	4649      	mov	r1, r9
   bb194:	f000 fc24 	bl	bb9e0 <__aeabi_dmul>
   bb198:	4602      	mov	r2, r0
   bb19a:	460b      	mov	r3, r1
   bb19c:	4620      	mov	r0, r4
   bb19e:	4629      	mov	r1, r5
   bb1a0:	f000 fa68 	bl	bb674 <__adddf3>
   bb1a4:	a318      	add	r3, pc, #96	; (adr r3, bb208 <__ieee754_log10+0x118>)
   bb1a6:	e9d3 2300 	ldrd	r2, r3, [r3]
   bb1aa:	4604      	mov	r4, r0
   bb1ac:	460d      	mov	r5, r1
   bb1ae:	4630      	mov	r0, r6
   bb1b0:	4639      	mov	r1, r7
   bb1b2:	f000 fc15 	bl	bb9e0 <__aeabi_dmul>
   bb1b6:	4602      	mov	r2, r0
   bb1b8:	460b      	mov	r3, r1
   bb1ba:	4620      	mov	r0, r4
   bb1bc:	4629      	mov	r1, r5
   bb1be:	f000 fa59 	bl	bb674 <__adddf3>
   bb1c2:	ec41 0b10 	vmov	d0, r0, r1
   bb1c6:	e8bd 83f8 	ldmia.w	sp!, {r3, r4, r5, r6, r7, r8, r9, pc}
   bb1ca:	2200      	movs	r2, #0
   bb1cc:	2300      	movs	r3, #0
   bb1ce:	4912      	ldr	r1, [pc, #72]	; (bb218 <__ieee754_log10+0x128>)
   bb1d0:	2000      	movs	r0, #0
   bb1d2:	f000 fd2f 	bl	bbc34 <__aeabi_ddiv>
   bb1d6:	ec41 0b10 	vmov	d0, r0, r1
   bb1da:	e8bd 83f8 	ldmia.w	sp!, {r3, r4, r5, r6, r7, r8, r9, pc}
   bb1de:	ee10 2a10 	vmov	r2, s0
   bb1e2:	4620      	mov	r0, r4
   bb1e4:	4629      	mov	r1, r5
   bb1e6:	f000 fa43 	bl	bb670 <__aeabi_dsub>
   bb1ea:	2200      	movs	r2, #0
   bb1ec:	2300      	movs	r3, #0
   bb1ee:	f000 fd21 	bl	bbc34 <__aeabi_ddiv>
   bb1f2:	ec41 0b10 	vmov	d0, r0, r1
   bb1f6:	e7a0      	b.n	bb13a <__ieee754_log10+0x4a>
   bb1f8:	11f12b36 	.word	0x11f12b36
   bb1fc:	3d59fef3 	.word	0x3d59fef3
   bb200:	1526e50e 	.word	0x1526e50e
   bb204:	3fdbcb7b 	.word	0x3fdbcb7b
   bb208:	509f6000 	.word	0x509f6000
   bb20c:	3fd34413 	.word	0x3fd34413
   bb210:	43500000 	.word	0x43500000
   bb214:	7fefffff 	.word	0x7fefffff
   bb218:	c3500000 	.word	0xc3500000
   bb21c:	00000000 	.word	0x00000000

000bb220 <nan>:
   bb220:	ed9f 0b01 	vldr	d0, [pc, #4]	; bb228 <nan+0x8>
   bb224:	4770      	bx	lr
   bb226:	bf00      	nop
   bb228:	00000000 	.word	0x00000000
   bb22c:	7ff80000 	.word	0x7ff80000

000bb230 <__ieee754_log>:
   bb230:	e92d 4ff0 	stmdb	sp!, {r4, r5, r6, r7, r8, r9, sl, fp, lr}
   bb234:	ec51 0b10 	vmov	r0, r1, d0
   bb238:	ed2d 8b02 	vpush	{d8}
   bb23c:	f5b1 1f80 	cmp.w	r1, #1048576	; 0x100000
   bb240:	b085      	sub	sp, #20
   bb242:	460f      	mov	r7, r1
   bb244:	da58      	bge.n	bb2f8 <__ieee754_log+0xc8>
   bb246:	f021 4300 	bic.w	r3, r1, #2147483648	; 0x80000000
   bb24a:	4303      	orrs	r3, r0
   bb24c:	ee10 2a10 	vmov	r2, s0
   bb250:	f000 80fc 	beq.w	bb44c <__ieee754_log+0x21c>
   bb254:	2900      	cmp	r1, #0
   bb256:	f2c0 813c 	blt.w	bb4d2 <__ieee754_log+0x2a2>
   bb25a:	4be1      	ldr	r3, [pc, #900]	; (bb5e0 <__ieee754_log+0x3b0>)
   bb25c:	2200      	movs	r2, #0
   bb25e:	f000 fbbf 	bl	bb9e0 <__aeabi_dmul>
   bb262:	4be0      	ldr	r3, [pc, #896]	; (bb5e4 <__ieee754_log+0x3b4>)
   bb264:	460f      	mov	r7, r1
   bb266:	429f      	cmp	r7, r3
   bb268:	f06f 0235 	mvn.w	r2, #53	; 0x35
   bb26c:	dc49      	bgt.n	bb302 <__ieee754_log+0xd2>
   bb26e:	153e      	asrs	r6, r7, #20
   bb270:	f3c7 0713 	ubfx	r7, r7, #0, #20
   bb274:	f507 2315 	add.w	r3, r7, #610304	; 0x95000
   bb278:	f2a6 36ff 	subw	r6, r6, #1023	; 0x3ff
   bb27c:	f603 7364 	addw	r3, r3, #3940	; 0xf64
   bb280:	4416      	add	r6, r2
   bb282:	f403 1380 	and.w	r3, r3, #1048576	; 0x100000
   bb286:	eb06 5613 	add.w	r6, r6, r3, lsr #20
   bb28a:	f083 537f 	eor.w	r3, r3, #1069547520	; 0x3fc00000
   bb28e:	f483 1340 	eor.w	r3, r3, #3145728	; 0x300000
   bb292:	ea43 0107 	orr.w	r1, r3, r7
   bb296:	2200      	movs	r2, #0
   bb298:	4bd3      	ldr	r3, [pc, #844]	; (bb5e8 <__ieee754_log+0x3b8>)
   bb29a:	f000 f9e9 	bl	bb670 <__aeabi_dsub>
   bb29e:	1cbb      	adds	r3, r7, #2
   bb2a0:	f3c3 0313 	ubfx	r3, r3, #0, #20
   bb2a4:	2b02      	cmp	r3, #2
   bb2a6:	4682      	mov	sl, r0
   bb2a8:	468b      	mov	fp, r1
   bb2aa:	dc35      	bgt.n	bb318 <__ieee754_log+0xe8>
   bb2ac:	2200      	movs	r2, #0
   bb2ae:	2300      	movs	r3, #0
   bb2b0:	f000 fdfe 	bl	bbeb0 <__aeabi_dcmpeq>
   bb2b4:	2800      	cmp	r0, #0
   bb2b6:	f000 80d6 	beq.w	bb466 <__ieee754_log+0x236>
   bb2ba:	2e00      	cmp	r6, #0
   bb2bc:	f000 8160 	beq.w	bb580 <__ieee754_log+0x350>
   bb2c0:	4630      	mov	r0, r6
   bb2c2:	f000 fb23 	bl	bb90c <__aeabi_i2d>
   bb2c6:	a3b0      	add	r3, pc, #704	; (adr r3, bb588 <__ieee754_log+0x358>)
   bb2c8:	e9d3 2300 	ldrd	r2, r3, [r3]
   bb2cc:	4606      	mov	r6, r0
   bb2ce:	460f      	mov	r7, r1
   bb2d0:	f000 fb86 	bl	bb9e0 <__aeabi_dmul>
   bb2d4:	a3ae      	add	r3, pc, #696	; (adr r3, bb590 <__ieee754_log+0x360>)
   bb2d6:	e9d3 2300 	ldrd	r2, r3, [r3]
   bb2da:	4604      	mov	r4, r0
   bb2dc:	460d      	mov	r5, r1
   bb2de:	4630      	mov	r0, r6
   bb2e0:	4639      	mov	r1, r7
   bb2e2:	f000 fb7d 	bl	bb9e0 <__aeabi_dmul>
   bb2e6:	4602      	mov	r2, r0
   bb2e8:	460b      	mov	r3, r1
   bb2ea:	4620      	mov	r0, r4
   bb2ec:	4629      	mov	r1, r5
   bb2ee:	f000 f9c1 	bl	bb674 <__adddf3>
   bb2f2:	ec41 0b10 	vmov	d0, r0, r1
   bb2f6:	e00a      	b.n	bb30e <__ieee754_log+0xde>
   bb2f8:	4bba      	ldr	r3, [pc, #744]	; (bb5e4 <__ieee754_log+0x3b4>)
   bb2fa:	429f      	cmp	r7, r3
   bb2fc:	f04f 0200 	mov.w	r2, #0
   bb300:	ddb5      	ble.n	bb26e <__ieee754_log+0x3e>
   bb302:	4602      	mov	r2, r0
   bb304:	460b      	mov	r3, r1
   bb306:	f000 f9b5 	bl	bb674 <__adddf3>
   bb30a:	ec41 0b10 	vmov	d0, r0, r1
   bb30e:	b005      	add	sp, #20
   bb310:	ecbd 8b02 	vpop	{d8}
   bb314:	e8bd 8ff0 	ldmia.w	sp!, {r4, r5, r6, r7, r8, r9, sl, fp, pc}
   bb318:	f5a7 23c2 	sub.w	r3, r7, #397312	; 0x61000
   bb31c:	f2a3 437a 	subw	r3, r3, #1146	; 0x47a
   bb320:	9301      	str	r3, [sp, #4]
   bb322:	2200      	movs	r2, #0
   bb324:	f04f 4380 	mov.w	r3, #1073741824	; 0x40000000
   bb328:	f000 f9a4 	bl	bb674 <__adddf3>
   bb32c:	4602      	mov	r2, r0
   bb32e:	460b      	mov	r3, r1
   bb330:	4650      	mov	r0, sl
   bb332:	4659      	mov	r1, fp
   bb334:	f000 fc7e 	bl	bbc34 <__aeabi_ddiv>
   bb338:	ec41 0b18 	vmov	d8, r0, r1
   bb33c:	4630      	mov	r0, r6
   bb33e:	f000 fae5 	bl	bb90c <__aeabi_i2d>
   bb342:	ec53 2b18 	vmov	r2, r3, d8
   bb346:	e9cd 0102 	strd	r0, r1, [sp, #8]
   bb34a:	ec51 0b18 	vmov	r0, r1, d8
   bb34e:	f000 fb47 	bl	bb9e0 <__aeabi_dmul>
   bb352:	4602      	mov	r2, r0
   bb354:	460b      	mov	r3, r1
   bb356:	4680      	mov	r8, r0
   bb358:	4689      	mov	r9, r1
   bb35a:	f000 fb41 	bl	bb9e0 <__aeabi_dmul>
   bb35e:	a38e      	add	r3, pc, #568	; (adr r3, bb598 <__ieee754_log+0x368>)
   bb360:	e9d3 2300 	ldrd	r2, r3, [r3]
   bb364:	4604      	mov	r4, r0
   bb366:	460d      	mov	r5, r1
   bb368:	f000 fb3a 	bl	bb9e0 <__aeabi_dmul>
   bb36c:	a38c      	add	r3, pc, #560	; (adr r3, bb5a0 <__ieee754_log+0x370>)
   bb36e:	e9d3 2300 	ldrd	r2, r3, [r3]
   bb372:	f000 f97f 	bl	bb674 <__adddf3>
   bb376:	4622      	mov	r2, r4
   bb378:	462b      	mov	r3, r5
   bb37a:	f000 fb31 	bl	bb9e0 <__aeabi_dmul>
   bb37e:	a38a      	add	r3, pc, #552	; (adr r3, bb5a8 <__ieee754_log+0x378>)
   bb380:	e9d3 2300 	ldrd	r2, r3, [r3]
   bb384:	f000 f976 	bl	bb674 <__adddf3>
   bb388:	4622      	mov	r2, r4
   bb38a:	462b      	mov	r3, r5
   bb38c:	f000 fb28 	bl	bb9e0 <__aeabi_dmul>
   bb390:	a387      	add	r3, pc, #540	; (adr r3, bb5b0 <__ieee754_log+0x380>)
   bb392:	e9d3 2300 	ldrd	r2, r3, [r3]
   bb396:	f000 f96d 	bl	bb674 <__adddf3>
   bb39a:	4642      	mov	r2, r8
   bb39c:	464b      	mov	r3, r9
   bb39e:	f000 fb1f 	bl	bb9e0 <__aeabi_dmul>
   bb3a2:	a385      	add	r3, pc, #532	; (adr r3, bb5b8 <__ieee754_log+0x388>)
   bb3a4:	e9d3 2300 	ldrd	r2, r3, [r3]
   bb3a8:	4680      	mov	r8, r0
   bb3aa:	4689      	mov	r9, r1
   bb3ac:	4620      	mov	r0, r4
   bb3ae:	4629      	mov	r1, r5
   bb3b0:	f000 fb16 	bl	bb9e0 <__aeabi_dmul>
   bb3b4:	a382      	add	r3, pc, #520	; (adr r3, bb5c0 <__ieee754_log+0x390>)
   bb3b6:	e9d3 2300 	ldrd	r2, r3, [r3]
   bb3ba:	f000 f95b 	bl	bb674 <__adddf3>
   bb3be:	4622      	mov	r2, r4
   bb3c0:	462b      	mov	r3, r5
   bb3c2:	f000 fb0d 	bl	bb9e0 <__aeabi_dmul>
   bb3c6:	a380      	add	r3, pc, #512	; (adr r3, bb5c8 <__ieee754_log+0x398>)
   bb3c8:	e9d3 2300 	ldrd	r2, r3, [r3]
   bb3cc:	f000 f952 	bl	bb674 <__adddf3>
   bb3d0:	4622      	mov	r2, r4
   bb3d2:	462b      	mov	r3, r5
   bb3d4:	f000 fb04 	bl	bb9e0 <__aeabi_dmul>
   bb3d8:	460b      	mov	r3, r1
   bb3da:	4602      	mov	r2, r0
   bb3dc:	4649      	mov	r1, r9
   bb3de:	4640      	mov	r0, r8
   bb3e0:	f000 f948 	bl	bb674 <__adddf3>
   bb3e4:	f5c7 27d7 	rsb	r7, r7, #440320	; 0x6b800
   bb3e8:	9b01      	ldr	r3, [sp, #4]
   bb3ea:	3751      	adds	r7, #81	; 0x51
   bb3ec:	431f      	orrs	r7, r3
   bb3ee:	2f00      	cmp	r7, #0
   bb3f0:	4680      	mov	r8, r0
   bb3f2:	4689      	mov	r9, r1
   bb3f4:	dd5f      	ble.n	bb4b6 <__ieee754_log+0x286>
   bb3f6:	4b7d      	ldr	r3, [pc, #500]	; (bb5ec <__ieee754_log+0x3bc>)
   bb3f8:	2200      	movs	r2, #0
   bb3fa:	4650      	mov	r0, sl
   bb3fc:	4659      	mov	r1, fp
   bb3fe:	f000 faef 	bl	bb9e0 <__aeabi_dmul>
   bb402:	4652      	mov	r2, sl
   bb404:	465b      	mov	r3, fp
   bb406:	f000 faeb 	bl	bb9e0 <__aeabi_dmul>
   bb40a:	4604      	mov	r4, r0
   bb40c:	460d      	mov	r5, r1
   bb40e:	2e00      	cmp	r6, #0
   bb410:	d169      	bne.n	bb4e6 <__ieee754_log+0x2b6>
   bb412:	4622      	mov	r2, r4
   bb414:	462b      	mov	r3, r5
   bb416:	4640      	mov	r0, r8
   bb418:	4649      	mov	r1, r9
   bb41a:	f000 f92b 	bl	bb674 <__adddf3>
   bb41e:	ec53 2b18 	vmov	r2, r3, d8
   bb422:	f000 fadd 	bl	bb9e0 <__aeabi_dmul>
   bb426:	4602      	mov	r2, r0
   bb428:	460b      	mov	r3, r1
   bb42a:	4620      	mov	r0, r4
   bb42c:	4629      	mov	r1, r5
   bb42e:	f000 f91f 	bl	bb670 <__aeabi_dsub>
   bb432:	4602      	mov	r2, r0
   bb434:	460b      	mov	r3, r1
   bb436:	4650      	mov	r0, sl
   bb438:	4659      	mov	r1, fp
   bb43a:	f000 f919 	bl	bb670 <__aeabi_dsub>
   bb43e:	ec41 0b10 	vmov	d0, r0, r1
   bb442:	b005      	add	sp, #20
   bb444:	ecbd 8b02 	vpop	{d8}
   bb448:	e8bd 8ff0 	ldmia.w	sp!, {r4, r5, r6, r7, r8, r9, sl, fp, pc}
   bb44c:	2200      	movs	r2, #0
   bb44e:	2300      	movs	r3, #0
   bb450:	4967      	ldr	r1, [pc, #412]	; (bb5f0 <__ieee754_log+0x3c0>)
   bb452:	2000      	movs	r0, #0
   bb454:	f000 fbee 	bl	bbc34 <__aeabi_ddiv>
   bb458:	ec41 0b10 	vmov	d0, r0, r1
   bb45c:	b005      	add	sp, #20
   bb45e:	ecbd 8b02 	vpop	{d8}
   bb462:	e8bd 8ff0 	ldmia.w	sp!, {r4, r5, r6, r7, r8, r9, sl, fp, pc}
   bb466:	a35a      	add	r3, pc, #360	; (adr r3, bb5d0 <__ieee754_log+0x3a0>)
   bb468:	e9d3 2300 	ldrd	r2, r3, [r3]
   bb46c:	4650      	mov	r0, sl
   bb46e:	4659      	mov	r1, fp
   bb470:	f000 fab6 	bl	bb9e0 <__aeabi_dmul>
   bb474:	4602      	mov	r2, r0
   bb476:	460b      	mov	r3, r1
   bb478:	2000      	movs	r0, #0
   bb47a:	495c      	ldr	r1, [pc, #368]	; (bb5ec <__ieee754_log+0x3bc>)
   bb47c:	f000 f8f8 	bl	bb670 <__aeabi_dsub>
   bb480:	4652      	mov	r2, sl
   bb482:	4604      	mov	r4, r0
   bb484:	460d      	mov	r5, r1
   bb486:	465b      	mov	r3, fp
   bb488:	4650      	mov	r0, sl
   bb48a:	4659      	mov	r1, fp
   bb48c:	f000 faa8 	bl	bb9e0 <__aeabi_dmul>
   bb490:	4602      	mov	r2, r0
   bb492:	460b      	mov	r3, r1
   bb494:	4620      	mov	r0, r4
   bb496:	4629      	mov	r1, r5
   bb498:	f000 faa2 	bl	bb9e0 <__aeabi_dmul>
   bb49c:	4604      	mov	r4, r0
   bb49e:	460d      	mov	r5, r1
   bb4a0:	2e00      	cmp	r6, #0
   bb4a2:	d159      	bne.n	bb558 <__ieee754_log+0x328>
   bb4a4:	4602      	mov	r2, r0
   bb4a6:	460b      	mov	r3, r1
   bb4a8:	4650      	mov	r0, sl
   bb4aa:	4659      	mov	r1, fp
   bb4ac:	f000 f8e0 	bl	bb670 <__aeabi_dsub>
   bb4b0:	ec41 0b10 	vmov	d0, r0, r1
   bb4b4:	e72b      	b.n	bb30e <__ieee754_log+0xde>
   bb4b6:	2e00      	cmp	r6, #0
   bb4b8:	f040 809c 	bne.w	bb5f4 <__ieee754_log+0x3c4>
   bb4bc:	4602      	mov	r2, r0
   bb4be:	460b      	mov	r3, r1
   bb4c0:	4650      	mov	r0, sl
   bb4c2:	4659      	mov	r1, fp
   bb4c4:	f000 f8d4 	bl	bb670 <__aeabi_dsub>
   bb4c8:	ec53 2b18 	vmov	r2, r3, d8
   bb4cc:	f000 fa88 	bl	bb9e0 <__aeabi_dmul>
   bb4d0:	e7af      	b.n	bb432 <__ieee754_log+0x202>
   bb4d2:	460b      	mov	r3, r1
   bb4d4:	f000 f8cc 	bl	bb670 <__aeabi_dsub>
   bb4d8:	2200      	movs	r2, #0
   bb4da:	2300      	movs	r3, #0
   bb4dc:	f000 fbaa 	bl	bbc34 <__aeabi_ddiv>
   bb4e0:	ec41 0b10 	vmov	d0, r0, r1
   bb4e4:	e713      	b.n	bb30e <__ieee754_log+0xde>
   bb4e6:	a328      	add	r3, pc, #160	; (adr r3, bb588 <__ieee754_log+0x358>)
   bb4e8:	e9d3 2300 	ldrd	r2, r3, [r3]
   bb4ec:	e9dd 0102 	ldrd	r0, r1, [sp, #8]
   bb4f0:	f000 fa76 	bl	bb9e0 <__aeabi_dmul>
   bb4f4:	4622      	mov	r2, r4
   bb4f6:	462b      	mov	r3, r5
   bb4f8:	4606      	mov	r6, r0
   bb4fa:	460f      	mov	r7, r1
   bb4fc:	4640      	mov	r0, r8
   bb4fe:	4649      	mov	r1, r9
   bb500:	f000 f8b8 	bl	bb674 <__adddf3>
   bb504:	ec53 2b18 	vmov	r2, r3, d8
   bb508:	f000 fa6a 	bl	bb9e0 <__aeabi_dmul>
   bb50c:	a320      	add	r3, pc, #128	; (adr r3, bb590 <__ieee754_log+0x360>)
   bb50e:	e9d3 2300 	ldrd	r2, r3, [r3]
   bb512:	4680      	mov	r8, r0
   bb514:	4689      	mov	r9, r1
   bb516:	e9dd 0102 	ldrd	r0, r1, [sp, #8]
   bb51a:	f000 fa61 	bl	bb9e0 <__aeabi_dmul>
   bb51e:	4602      	mov	r2, r0
   bb520:	460b      	mov	r3, r1
   bb522:	4640      	mov	r0, r8
   bb524:	4649      	mov	r1, r9
   bb526:	f000 f8a5 	bl	bb674 <__adddf3>
   bb52a:	4602      	mov	r2, r0
   bb52c:	460b      	mov	r3, r1
   bb52e:	4620      	mov	r0, r4
   bb530:	4629      	mov	r1, r5
   bb532:	f000 f89d 	bl	bb670 <__aeabi_dsub>
   bb536:	4652      	mov	r2, sl
   bb538:	465b      	mov	r3, fp
   bb53a:	f000 f899 	bl	bb670 <__aeabi_dsub>
   bb53e:	4602      	mov	r2, r0
   bb540:	460b      	mov	r3, r1
   bb542:	4630      	mov	r0, r6
   bb544:	4639      	mov	r1, r7
   bb546:	f000 f893 	bl	bb670 <__aeabi_dsub>
   bb54a:	ec41 0b10 	vmov	d0, r0, r1
   bb54e:	b005      	add	sp, #20
   bb550:	ecbd 8b02 	vpop	{d8}
   bb554:	e8bd 8ff0 	ldmia.w	sp!, {r4, r5, r6, r7, r8, r9, sl, fp, pc}
   bb558:	4630      	mov	r0, r6
   bb55a:	f000 f9d7 	bl	bb90c <__aeabi_i2d>
   bb55e:	a30a      	add	r3, pc, #40	; (adr r3, bb588 <__ieee754_log+0x358>)
   bb560:	e9d3 2300 	ldrd	r2, r3, [r3]
   bb564:	4680      	mov	r8, r0
   bb566:	4689      	mov	r9, r1
   bb568:	f000 fa3a 	bl	bb9e0 <__aeabi_dmul>
   bb56c:	a308      	add	r3, pc, #32	; (adr r3, bb590 <__ieee754_log+0x360>)
   bb56e:	e9d3 2300 	ldrd	r2, r3, [r3]
   bb572:	4606      	mov	r6, r0
   bb574:	460f      	mov	r7, r1
   bb576:	4640      	mov	r0, r8
   bb578:	4649      	mov	r1, r9
   bb57a:	f000 fa31 	bl	bb9e0 <__aeabi_dmul>
   bb57e:	e7d4      	b.n	bb52a <__ieee754_log+0x2fa>
   bb580:	ed9f 0b15 	vldr	d0, [pc, #84]	; bb5d8 <__ieee754_log+0x3a8>
   bb584:	e6c3      	b.n	bb30e <__ieee754_log+0xde>
   bb586:	bf00      	nop
   bb588:	fee00000 	.word	0xfee00000
   bb58c:	3fe62e42 	.word	0x3fe62e42
   bb590:	35793c76 	.word	0x35793c76
   bb594:	3dea39ef 	.word	0x3dea39ef
   bb598:	df3e5244 	.word	0xdf3e5244
   bb59c:	3fc2f112 	.word	0x3fc2f112
   bb5a0:	96cb03de 	.word	0x96cb03de
   bb5a4:	3fc74664 	.word	0x3fc74664
   bb5a8:	94229359 	.word	0x94229359
   bb5ac:	3fd24924 	.word	0x3fd24924
   bb5b0:	55555593 	.word	0x55555593
   bb5b4:	3fe55555 	.word	0x3fe55555
   bb5b8:	d078c69f 	.word	0xd078c69f
   bb5bc:	3fc39a09 	.word	0x3fc39a09
   bb5c0:	1d8e78af 	.word	0x1d8e78af
   bb5c4:	3fcc71c5 	.word	0x3fcc71c5
   bb5c8:	9997fa04 	.word	0x9997fa04
   bb5cc:	3fd99999 	.word	0x3fd99999
   bb5d0:	55555555 	.word	0x55555555
   bb5d4:	3fd55555 	.word	0x3fd55555
	...
   bb5e0:	43500000 	.word	0x43500000
   bb5e4:	7fefffff 	.word	0x7fefffff
   bb5e8:	3ff00000 	.word	0x3ff00000
   bb5ec:	3fe00000 	.word	0x3fe00000
   bb5f0:	c3500000 	.word	0xc3500000
   bb5f4:	a318      	add	r3, pc, #96	; (adr r3, bb658 <__ieee754_log+0x428>)
   bb5f6:	e9d3 2300 	ldrd	r2, r3, [r3]
   bb5fa:	e9dd 0102 	ldrd	r0, r1, [sp, #8]
   bb5fe:	f000 f9ef 	bl	bb9e0 <__aeabi_dmul>
   bb602:	4642      	mov	r2, r8
   bb604:	464b      	mov	r3, r9
   bb606:	4604      	mov	r4, r0
   bb608:	460d      	mov	r5, r1
   bb60a:	4650      	mov	r0, sl
   bb60c:	4659      	mov	r1, fp
   bb60e:	f000 f82f 	bl	bb670 <__aeabi_dsub>
   bb612:	ec53 2b18 	vmov	r2, r3, d8
   bb616:	f000 f9e3 	bl	bb9e0 <__aeabi_dmul>
   bb61a:	a311      	add	r3, pc, #68	; (adr r3, bb660 <__ieee754_log+0x430>)
   bb61c:	e9d3 2300 	ldrd	r2, r3, [r3]
   bb620:	4606      	mov	r6, r0
   bb622:	460f      	mov	r7, r1
   bb624:	e9dd 0102 	ldrd	r0, r1, [sp, #8]
   bb628:	f000 f9da 	bl	bb9e0 <__aeabi_dmul>
   bb62c:	4602      	mov	r2, r0
   bb62e:	460b      	mov	r3, r1
   bb630:	4630      	mov	r0, r6
   bb632:	4639      	mov	r1, r7
   bb634:	f000 f81c 	bl	bb670 <__aeabi_dsub>
   bb638:	4652      	mov	r2, sl
   bb63a:	465b      	mov	r3, fp
   bb63c:	f000 f818 	bl	bb670 <__aeabi_dsub>
   bb640:	4602      	mov	r2, r0
   bb642:	460b      	mov	r3, r1
   bb644:	4620      	mov	r0, r4
   bb646:	4629      	mov	r1, r5
   bb648:	f000 f812 	bl	bb670 <__aeabi_dsub>
   bb64c:	ec41 0b10 	vmov	d0, r0, r1
   bb650:	e65d      	b.n	bb30e <__ieee754_log+0xde>
   bb652:	bf00      	nop
   bb654:	f3af 8000 	nop.w
   bb658:	fee00000 	.word	0xfee00000
   bb65c:	3fe62e42 	.word	0x3fe62e42
   bb660:	35793c76 	.word	0x35793c76
   bb664:	3dea39ef 	.word	0x3dea39ef

000bb668 <__aeabi_drsub>:
   bb668:	f081 4100 	eor.w	r1, r1, #2147483648	; 0x80000000
   bb66c:	e002      	b.n	bb674 <__adddf3>
   bb66e:	bf00      	nop

000bb670 <__aeabi_dsub>:
   bb670:	f083 4300 	eor.w	r3, r3, #2147483648	; 0x80000000

000bb674 <__adddf3>:
   bb674:	b530      	push	{r4, r5, lr}
   bb676:	ea4f 0441 	mov.w	r4, r1, lsl #1
   bb67a:	ea4f 0543 	mov.w	r5, r3, lsl #1
   bb67e:	ea94 0f05 	teq	r4, r5
   bb682:	bf08      	it	eq
   bb684:	ea90 0f02 	teqeq	r0, r2
   bb688:	bf1f      	itttt	ne
   bb68a:	ea54 0c00 	orrsne.w	ip, r4, r0
   bb68e:	ea55 0c02 	orrsne.w	ip, r5, r2
   bb692:	ea7f 5c64 	mvnsne.w	ip, r4, asr #21
   bb696:	ea7f 5c65 	mvnsne.w	ip, r5, asr #21
   bb69a:	f000 80e2 	beq.w	bb862 <__adddf3+0x1ee>
   bb69e:	ea4f 5454 	mov.w	r4, r4, lsr #21
   bb6a2:	ebd4 5555 	rsbs	r5, r4, r5, lsr #21
   bb6a6:	bfb8      	it	lt
   bb6a8:	426d      	neglt	r5, r5
   bb6aa:	dd0c      	ble.n	bb6c6 <__adddf3+0x52>
   bb6ac:	442c      	add	r4, r5
   bb6ae:	ea80 0202 	eor.w	r2, r0, r2
   bb6b2:	ea81 0303 	eor.w	r3, r1, r3
   bb6b6:	ea82 0000 	eor.w	r0, r2, r0
   bb6ba:	ea83 0101 	eor.w	r1, r3, r1
   bb6be:	ea80 0202 	eor.w	r2, r0, r2
   bb6c2:	ea81 0303 	eor.w	r3, r1, r3
   bb6c6:	2d36      	cmp	r5, #54	; 0x36
   bb6c8:	bf88      	it	hi
   bb6ca:	bd30      	pophi	{r4, r5, pc}
   bb6cc:	f011 4f00 	tst.w	r1, #2147483648	; 0x80000000
   bb6d0:	ea4f 3101 	mov.w	r1, r1, lsl #12
   bb6d4:	f44f 1c80 	mov.w	ip, #1048576	; 0x100000
   bb6d8:	ea4c 3111 	orr.w	r1, ip, r1, lsr #12
   bb6dc:	d002      	beq.n	bb6e4 <__adddf3+0x70>
   bb6de:	4240      	negs	r0, r0
   bb6e0:	eb61 0141 	sbc.w	r1, r1, r1, lsl #1
   bb6e4:	f013 4f00 	tst.w	r3, #2147483648	; 0x80000000
   bb6e8:	ea4f 3303 	mov.w	r3, r3, lsl #12
   bb6ec:	ea4c 3313 	orr.w	r3, ip, r3, lsr #12
   bb6f0:	d002      	beq.n	bb6f8 <__adddf3+0x84>
   bb6f2:	4252      	negs	r2, r2
   bb6f4:	eb63 0343 	sbc.w	r3, r3, r3, lsl #1
   bb6f8:	ea94 0f05 	teq	r4, r5
   bb6fc:	f000 80a7 	beq.w	bb84e <__adddf3+0x1da>
   bb700:	f1a4 0401 	sub.w	r4, r4, #1
   bb704:	f1d5 0e20 	rsbs	lr, r5, #32
   bb708:	db0d      	blt.n	bb726 <__adddf3+0xb2>
   bb70a:	fa02 fc0e 	lsl.w	ip, r2, lr
   bb70e:	fa22 f205 	lsr.w	r2, r2, r5
   bb712:	1880      	adds	r0, r0, r2
   bb714:	f141 0100 	adc.w	r1, r1, #0
   bb718:	fa03 f20e 	lsl.w	r2, r3, lr
   bb71c:	1880      	adds	r0, r0, r2
   bb71e:	fa43 f305 	asr.w	r3, r3, r5
   bb722:	4159      	adcs	r1, r3
   bb724:	e00e      	b.n	bb744 <__adddf3+0xd0>
   bb726:	f1a5 0520 	sub.w	r5, r5, #32
   bb72a:	f10e 0e20 	add.w	lr, lr, #32
   bb72e:	2a01      	cmp	r2, #1
   bb730:	fa03 fc0e 	lsl.w	ip, r3, lr
   bb734:	bf28      	it	cs
   bb736:	f04c 0c02 	orrcs.w	ip, ip, #2
   bb73a:	fa43 f305 	asr.w	r3, r3, r5
   bb73e:	18c0      	adds	r0, r0, r3
   bb740:	eb51 71e3 	adcs.w	r1, r1, r3, asr #31
   bb744:	f001 4500 	and.w	r5, r1, #2147483648	; 0x80000000
   bb748:	d507      	bpl.n	bb75a <__adddf3+0xe6>
   bb74a:	f04f 0e00 	mov.w	lr, #0
   bb74e:	f1dc 0c00 	rsbs	ip, ip, #0
   bb752:	eb7e 0000 	sbcs.w	r0, lr, r0
   bb756:	eb6e 0101 	sbc.w	r1, lr, r1
   bb75a:	f5b1 1f80 	cmp.w	r1, #1048576	; 0x100000
   bb75e:	d31b      	bcc.n	bb798 <__adddf3+0x124>
   bb760:	f5b1 1f00 	cmp.w	r1, #2097152	; 0x200000
   bb764:	d30c      	bcc.n	bb780 <__adddf3+0x10c>
   bb766:	0849      	lsrs	r1, r1, #1
   bb768:	ea5f 0030 	movs.w	r0, r0, rrx
   bb76c:	ea4f 0c3c 	mov.w	ip, ip, rrx
   bb770:	f104 0401 	add.w	r4, r4, #1
   bb774:	ea4f 5244 	mov.w	r2, r4, lsl #21
   bb778:	f512 0f80 	cmn.w	r2, #4194304	; 0x400000
   bb77c:	f080 809a 	bcs.w	bb8b4 <__adddf3+0x240>
   bb780:	f1bc 4f00 	cmp.w	ip, #2147483648	; 0x80000000
   bb784:	bf08      	it	eq
   bb786:	ea5f 0c50 	movseq.w	ip, r0, lsr #1
   bb78a:	f150 0000 	adcs.w	r0, r0, #0
   bb78e:	eb41 5104 	adc.w	r1, r1, r4, lsl #20
   bb792:	ea41 0105 	orr.w	r1, r1, r5
   bb796:	bd30      	pop	{r4, r5, pc}
   bb798:	ea5f 0c4c 	movs.w	ip, ip, lsl #1
   bb79c:	4140      	adcs	r0, r0
   bb79e:	eb41 0101 	adc.w	r1, r1, r1
   bb7a2:	3c01      	subs	r4, #1
   bb7a4:	bf28      	it	cs
   bb7a6:	f5b1 1f80 	cmpcs.w	r1, #1048576	; 0x100000
   bb7aa:	d2e9      	bcs.n	bb780 <__adddf3+0x10c>
   bb7ac:	f091 0f00 	teq	r1, #0
   bb7b0:	bf04      	itt	eq
   bb7b2:	4601      	moveq	r1, r0
   bb7b4:	2000      	moveq	r0, #0
   bb7b6:	fab1 f381 	clz	r3, r1
   bb7ba:	bf08      	it	eq
   bb7bc:	3320      	addeq	r3, #32
   bb7be:	f1a3 030b 	sub.w	r3, r3, #11
   bb7c2:	f1b3 0220 	subs.w	r2, r3, #32
   bb7c6:	da0c      	bge.n	bb7e2 <__adddf3+0x16e>
   bb7c8:	320c      	adds	r2, #12
   bb7ca:	dd08      	ble.n	bb7de <__adddf3+0x16a>
   bb7cc:	f102 0c14 	add.w	ip, r2, #20
   bb7d0:	f1c2 020c 	rsb	r2, r2, #12
   bb7d4:	fa01 f00c 	lsl.w	r0, r1, ip
   bb7d8:	fa21 f102 	lsr.w	r1, r1, r2
   bb7dc:	e00c      	b.n	bb7f8 <__adddf3+0x184>
   bb7de:	f102 0214 	add.w	r2, r2, #20
   bb7e2:	bfd8      	it	le
   bb7e4:	f1c2 0c20 	rsble	ip, r2, #32
   bb7e8:	fa01 f102 	lsl.w	r1, r1, r2
   bb7ec:	fa20 fc0c 	lsr.w	ip, r0, ip
   bb7f0:	bfdc      	itt	le
   bb7f2:	ea41 010c 	orrle.w	r1, r1, ip
   bb7f6:	4090      	lslle	r0, r2
   bb7f8:	1ae4      	subs	r4, r4, r3
   bb7fa:	bfa2      	ittt	ge
   bb7fc:	eb01 5104 	addge.w	r1, r1, r4, lsl #20
   bb800:	4329      	orrge	r1, r5
   bb802:	bd30      	popge	{r4, r5, pc}
   bb804:	ea6f 0404 	mvn.w	r4, r4
   bb808:	3c1f      	subs	r4, #31
   bb80a:	da1c      	bge.n	bb846 <__adddf3+0x1d2>
   bb80c:	340c      	adds	r4, #12
   bb80e:	dc0e      	bgt.n	bb82e <__adddf3+0x1ba>
   bb810:	f104 0414 	add.w	r4, r4, #20
   bb814:	f1c4 0220 	rsb	r2, r4, #32
   bb818:	fa20 f004 	lsr.w	r0, r0, r4
   bb81c:	fa01 f302 	lsl.w	r3, r1, r2
   bb820:	ea40 0003 	orr.w	r0, r0, r3
   bb824:	fa21 f304 	lsr.w	r3, r1, r4
   bb828:	ea45 0103 	orr.w	r1, r5, r3
   bb82c:	bd30      	pop	{r4, r5, pc}
   bb82e:	f1c4 040c 	rsb	r4, r4, #12
   bb832:	f1c4 0220 	rsb	r2, r4, #32
   bb836:	fa20 f002 	lsr.w	r0, r0, r2
   bb83a:	fa01 f304 	lsl.w	r3, r1, r4
   bb83e:	ea40 0003 	orr.w	r0, r0, r3
   bb842:	4629      	mov	r1, r5
   bb844:	bd30      	pop	{r4, r5, pc}
   bb846:	fa21 f004 	lsr.w	r0, r1, r4
   bb84a:	4629      	mov	r1, r5
   bb84c:	bd30      	pop	{r4, r5, pc}
   bb84e:	f094 0f00 	teq	r4, #0
   bb852:	f483 1380 	eor.w	r3, r3, #1048576	; 0x100000
   bb856:	bf06      	itte	eq
   bb858:	f481 1180 	eoreq.w	r1, r1, #1048576	; 0x100000
   bb85c:	3401      	addeq	r4, #1
   bb85e:	3d01      	subne	r5, #1
   bb860:	e74e      	b.n	bb700 <__adddf3+0x8c>
   bb862:	ea7f 5c64 	mvns.w	ip, r4, asr #21
   bb866:	bf18      	it	ne
   bb868:	ea7f 5c65 	mvnsne.w	ip, r5, asr #21
   bb86c:	d029      	beq.n	bb8c2 <__adddf3+0x24e>
   bb86e:	ea94 0f05 	teq	r4, r5
   bb872:	bf08      	it	eq
   bb874:	ea90 0f02 	teqeq	r0, r2
   bb878:	d005      	beq.n	bb886 <__adddf3+0x212>
   bb87a:	ea54 0c00 	orrs.w	ip, r4, r0
   bb87e:	bf04      	itt	eq
   bb880:	4619      	moveq	r1, r3
   bb882:	4610      	moveq	r0, r2
   bb884:	bd30      	pop	{r4, r5, pc}
   bb886:	ea91 0f03 	teq	r1, r3
   bb88a:	bf1e      	ittt	ne
   bb88c:	2100      	movne	r1, #0
   bb88e:	2000      	movne	r0, #0
   bb890:	bd30      	popne	{r4, r5, pc}
   bb892:	ea5f 5c54 	movs.w	ip, r4, lsr #21
   bb896:	d105      	bne.n	bb8a4 <__adddf3+0x230>
   bb898:	0040      	lsls	r0, r0, #1
   bb89a:	4149      	adcs	r1, r1
   bb89c:	bf28      	it	cs
   bb89e:	f041 4100 	orrcs.w	r1, r1, #2147483648	; 0x80000000
   bb8a2:	bd30      	pop	{r4, r5, pc}
   bb8a4:	f514 0480 	adds.w	r4, r4, #4194304	; 0x400000
   bb8a8:	bf3c      	itt	cc
   bb8aa:	f501 1180 	addcc.w	r1, r1, #1048576	; 0x100000
   bb8ae:	bd30      	popcc	{r4, r5, pc}
   bb8b0:	f001 4500 	and.w	r5, r1, #2147483648	; 0x80000000
   bb8b4:	f045 41fe 	orr.w	r1, r5, #2130706432	; 0x7f000000
   bb8b8:	f441 0170 	orr.w	r1, r1, #15728640	; 0xf00000
   bb8bc:	f04f 0000 	mov.w	r0, #0
   bb8c0:	bd30      	pop	{r4, r5, pc}
   bb8c2:	ea7f 5c64 	mvns.w	ip, r4, asr #21
   bb8c6:	bf1a      	itte	ne
   bb8c8:	4619      	movne	r1, r3
   bb8ca:	4610      	movne	r0, r2
   bb8cc:	ea7f 5c65 	mvnseq.w	ip, r5, asr #21
   bb8d0:	bf1c      	itt	ne
   bb8d2:	460b      	movne	r3, r1
   bb8d4:	4602      	movne	r2, r0
   bb8d6:	ea50 3401 	orrs.w	r4, r0, r1, lsl #12
   bb8da:	bf06      	itte	eq
   bb8dc:	ea52 3503 	orrseq.w	r5, r2, r3, lsl #12
   bb8e0:	ea91 0f03 	teqeq	r1, r3
   bb8e4:	f441 2100 	orrne.w	r1, r1, #524288	; 0x80000
   bb8e8:	bd30      	pop	{r4, r5, pc}
   bb8ea:	bf00      	nop

000bb8ec <__aeabi_ui2d>:
   bb8ec:	f090 0f00 	teq	r0, #0
   bb8f0:	bf04      	itt	eq
   bb8f2:	2100      	moveq	r1, #0
   bb8f4:	4770      	bxeq	lr
   bb8f6:	b530      	push	{r4, r5, lr}
   bb8f8:	f44f 6480 	mov.w	r4, #1024	; 0x400
   bb8fc:	f104 0432 	add.w	r4, r4, #50	; 0x32
   bb900:	f04f 0500 	mov.w	r5, #0
   bb904:	f04f 0100 	mov.w	r1, #0
   bb908:	e750      	b.n	bb7ac <__adddf3+0x138>
   bb90a:	bf00      	nop

000bb90c <__aeabi_i2d>:
   bb90c:	f090 0f00 	teq	r0, #0
   bb910:	bf04      	itt	eq
   bb912:	2100      	moveq	r1, #0
   bb914:	4770      	bxeq	lr
   bb916:	b530      	push	{r4, r5, lr}
   bb918:	f44f 6480 	mov.w	r4, #1024	; 0x400
   bb91c:	f104 0432 	add.w	r4, r4, #50	; 0x32
   bb920:	f010 4500 	ands.w	r5, r0, #2147483648	; 0x80000000
   bb924:	bf48      	it	mi
   bb926:	4240      	negmi	r0, r0
   bb928:	f04f 0100 	mov.w	r1, #0
   bb92c:	e73e      	b.n	bb7ac <__adddf3+0x138>
   bb92e:	bf00      	nop

000bb930 <__aeabi_f2d>:
   bb930:	0042      	lsls	r2, r0, #1
   bb932:	ea4f 01e2 	mov.w	r1, r2, asr #3
   bb936:	ea4f 0131 	mov.w	r1, r1, rrx
   bb93a:	ea4f 7002 	mov.w	r0, r2, lsl #28
   bb93e:	bf1f      	itttt	ne
   bb940:	f012 437f 	andsne.w	r3, r2, #4278190080	; 0xff000000
   bb944:	f093 4f7f 	teqne	r3, #4278190080	; 0xff000000
   bb948:	f081 5160 	eorne.w	r1, r1, #939524096	; 0x38000000
   bb94c:	4770      	bxne	lr
   bb94e:	f032 427f 	bics.w	r2, r2, #4278190080	; 0xff000000
   bb952:	bf08      	it	eq
   bb954:	4770      	bxeq	lr
   bb956:	f093 4f7f 	teq	r3, #4278190080	; 0xff000000
   bb95a:	bf04      	itt	eq
   bb95c:	f441 2100 	orreq.w	r1, r1, #524288	; 0x80000
   bb960:	4770      	bxeq	lr
   bb962:	b530      	push	{r4, r5, lr}
   bb964:	f44f 7460 	mov.w	r4, #896	; 0x380
   bb968:	f001 4500 	and.w	r5, r1, #2147483648	; 0x80000000
   bb96c:	f021 4100 	bic.w	r1, r1, #2147483648	; 0x80000000
   bb970:	e71c      	b.n	bb7ac <__adddf3+0x138>
   bb972:	bf00      	nop

000bb974 <__aeabi_ul2d>:
   bb974:	ea50 0201 	orrs.w	r2, r0, r1
   bb978:	bf08      	it	eq
   bb97a:	4770      	bxeq	lr
   bb97c:	b530      	push	{r4, r5, lr}
   bb97e:	f04f 0500 	mov.w	r5, #0
   bb982:	e00a      	b.n	bb99a <__aeabi_l2d+0x16>

000bb984 <__aeabi_l2d>:
   bb984:	ea50 0201 	orrs.w	r2, r0, r1
   bb988:	bf08      	it	eq
   bb98a:	4770      	bxeq	lr
   bb98c:	b530      	push	{r4, r5, lr}
   bb98e:	f011 4500 	ands.w	r5, r1, #2147483648	; 0x80000000
   bb992:	d502      	bpl.n	bb99a <__aeabi_l2d+0x16>
   bb994:	4240      	negs	r0, r0
   bb996:	eb61 0141 	sbc.w	r1, r1, r1, lsl #1
   bb99a:	f44f 6480 	mov.w	r4, #1024	; 0x400
   bb99e:	f104 0432 	add.w	r4, r4, #50	; 0x32
   bb9a2:	ea5f 5c91 	movs.w	ip, r1, lsr #22
   bb9a6:	f43f aed8 	beq.w	bb75a <__adddf3+0xe6>
   bb9aa:	f04f 0203 	mov.w	r2, #3
   bb9ae:	ea5f 0cdc 	movs.w	ip, ip, lsr #3
   bb9b2:	bf18      	it	ne
   bb9b4:	3203      	addne	r2, #3
   bb9b6:	ea5f 0cdc 	movs.w	ip, ip, lsr #3
   bb9ba:	bf18      	it	ne
   bb9bc:	3203      	addne	r2, #3
   bb9be:	eb02 02dc 	add.w	r2, r2, ip, lsr #3
   bb9c2:	f1c2 0320 	rsb	r3, r2, #32
   bb9c6:	fa00 fc03 	lsl.w	ip, r0, r3
   bb9ca:	fa20 f002 	lsr.w	r0, r0, r2
   bb9ce:	fa01 fe03 	lsl.w	lr, r1, r3
   bb9d2:	ea40 000e 	orr.w	r0, r0, lr
   bb9d6:	fa21 f102 	lsr.w	r1, r1, r2
   bb9da:	4414      	add	r4, r2
   bb9dc:	e6bd      	b.n	bb75a <__adddf3+0xe6>
   bb9de:	bf00      	nop

000bb9e0 <__aeabi_dmul>:
   bb9e0:	b570      	push	{r4, r5, r6, lr}
   bb9e2:	f04f 0cff 	mov.w	ip, #255	; 0xff
   bb9e6:	f44c 6ce0 	orr.w	ip, ip, #1792	; 0x700
   bb9ea:	ea1c 5411 	ands.w	r4, ip, r1, lsr #20
   bb9ee:	bf1d      	ittte	ne
   bb9f0:	ea1c 5513 	andsne.w	r5, ip, r3, lsr #20
   bb9f4:	ea94 0f0c 	teqne	r4, ip
   bb9f8:	ea95 0f0c 	teqne	r5, ip
   bb9fc:	f000 f8de 	bleq	bbbbc <__aeabi_dmul+0x1dc>
   bba00:	442c      	add	r4, r5
   bba02:	ea81 0603 	eor.w	r6, r1, r3
   bba06:	ea21 514c 	bic.w	r1, r1, ip, lsl #21
   bba0a:	ea23 534c 	bic.w	r3, r3, ip, lsl #21
   bba0e:	ea50 3501 	orrs.w	r5, r0, r1, lsl #12
   bba12:	bf18      	it	ne
   bba14:	ea52 3503 	orrsne.w	r5, r2, r3, lsl #12
   bba18:	f441 1180 	orr.w	r1, r1, #1048576	; 0x100000
   bba1c:	f443 1380 	orr.w	r3, r3, #1048576	; 0x100000
   bba20:	d038      	beq.n	bba94 <__aeabi_dmul+0xb4>
   bba22:	fba0 ce02 	umull	ip, lr, r0, r2
   bba26:	f04f 0500 	mov.w	r5, #0
   bba2a:	fbe1 e502 	umlal	lr, r5, r1, r2
   bba2e:	f006 4200 	and.w	r2, r6, #2147483648	; 0x80000000
   bba32:	fbe0 e503 	umlal	lr, r5, r0, r3
   bba36:	f04f 0600 	mov.w	r6, #0
   bba3a:	fbe1 5603 	umlal	r5, r6, r1, r3
   bba3e:	f09c 0f00 	teq	ip, #0
   bba42:	bf18      	it	ne
   bba44:	f04e 0e01 	orrne.w	lr, lr, #1
   bba48:	f1a4 04ff 	sub.w	r4, r4, #255	; 0xff
   bba4c:	f5b6 7f00 	cmp.w	r6, #512	; 0x200
   bba50:	f564 7440 	sbc.w	r4, r4, #768	; 0x300
   bba54:	d204      	bcs.n	bba60 <__aeabi_dmul+0x80>
   bba56:	ea5f 0e4e 	movs.w	lr, lr, lsl #1
   bba5a:	416d      	adcs	r5, r5
   bba5c:	eb46 0606 	adc.w	r6, r6, r6
   bba60:	ea42 21c6 	orr.w	r1, r2, r6, lsl #11
   bba64:	ea41 5155 	orr.w	r1, r1, r5, lsr #21
   bba68:	ea4f 20c5 	mov.w	r0, r5, lsl #11
   bba6c:	ea40 505e 	orr.w	r0, r0, lr, lsr #21
   bba70:	ea4f 2ece 	mov.w	lr, lr, lsl #11
   bba74:	f1b4 0cfd 	subs.w	ip, r4, #253	; 0xfd
   bba78:	bf88      	it	hi
   bba7a:	f5bc 6fe0 	cmphi.w	ip, #1792	; 0x700
   bba7e:	d81e      	bhi.n	bbabe <__aeabi_dmul+0xde>
   bba80:	f1be 4f00 	cmp.w	lr, #2147483648	; 0x80000000
   bba84:	bf08      	it	eq
   bba86:	ea5f 0e50 	movseq.w	lr, r0, lsr #1
   bba8a:	f150 0000 	adcs.w	r0, r0, #0
   bba8e:	eb41 5104 	adc.w	r1, r1, r4, lsl #20
   bba92:	bd70      	pop	{r4, r5, r6, pc}
   bba94:	f006 4600 	and.w	r6, r6, #2147483648	; 0x80000000
   bba98:	ea46 0101 	orr.w	r1, r6, r1
   bba9c:	ea40 0002 	orr.w	r0, r0, r2
   bbaa0:	ea81 0103 	eor.w	r1, r1, r3
   bbaa4:	ebb4 045c 	subs.w	r4, r4, ip, lsr #1
   bbaa8:	bfc2      	ittt	gt
   bbaaa:	ebd4 050c 	rsbsgt	r5, r4, ip
   bbaae:	ea41 5104 	orrgt.w	r1, r1, r4, lsl #20
   bbab2:	bd70      	popgt	{r4, r5, r6, pc}
   bbab4:	f441 1180 	orr.w	r1, r1, #1048576	; 0x100000
   bbab8:	f04f 0e00 	mov.w	lr, #0
   bbabc:	3c01      	subs	r4, #1
   bbabe:	f300 80ab 	bgt.w	bbc18 <__aeabi_dmul+0x238>
   bbac2:	f114 0f36 	cmn.w	r4, #54	; 0x36
   bbac6:	bfde      	ittt	le
   bbac8:	2000      	movle	r0, #0
   bbaca:	f001 4100 	andle.w	r1, r1, #2147483648	; 0x80000000
   bbace:	bd70      	pople	{r4, r5, r6, pc}
   bbad0:	f1c4 0400 	rsb	r4, r4, #0
   bbad4:	3c20      	subs	r4, #32
   bbad6:	da35      	bge.n	bbb44 <__aeabi_dmul+0x164>
   bbad8:	340c      	adds	r4, #12
   bbada:	dc1b      	bgt.n	bbb14 <__aeabi_dmul+0x134>
   bbadc:	f104 0414 	add.w	r4, r4, #20
   bbae0:	f1c4 0520 	rsb	r5, r4, #32
   bbae4:	fa00 f305 	lsl.w	r3, r0, r5
   bbae8:	fa20 f004 	lsr.w	r0, r0, r4
   bbaec:	fa01 f205 	lsl.w	r2, r1, r5
   bbaf0:	ea40 0002 	orr.w	r0, r0, r2
   bbaf4:	f001 4200 	and.w	r2, r1, #2147483648	; 0x80000000
   bbaf8:	f021 4100 	bic.w	r1, r1, #2147483648	; 0x80000000
   bbafc:	eb10 70d3 	adds.w	r0, r0, r3, lsr #31
   bbb00:	fa21 f604 	lsr.w	r6, r1, r4
   bbb04:	eb42 0106 	adc.w	r1, r2, r6
   bbb08:	ea5e 0e43 	orrs.w	lr, lr, r3, lsl #1
   bbb0c:	bf08      	it	eq
   bbb0e:	ea20 70d3 	biceq.w	r0, r0, r3, lsr #31
   bbb12:	bd70      	pop	{r4, r5, r6, pc}
   bbb14:	f1c4 040c 	rsb	r4, r4, #12
   bbb18:	f1c4 0520 	rsb	r5, r4, #32
   bbb1c:	fa00 f304 	lsl.w	r3, r0, r4
   bbb20:	fa20 f005 	lsr.w	r0, r0, r5
   bbb24:	fa01 f204 	lsl.w	r2, r1, r4
   bbb28:	ea40 0002 	orr.w	r0, r0, r2
   bbb2c:	f001 4100 	and.w	r1, r1, #2147483648	; 0x80000000
   bbb30:	eb10 70d3 	adds.w	r0, r0, r3, lsr #31
   bbb34:	f141 0100 	adc.w	r1, r1, #0
   bbb38:	ea5e 0e43 	orrs.w	lr, lr, r3, lsl #1
   bbb3c:	bf08      	it	eq
   bbb3e:	ea20 70d3 	biceq.w	r0, r0, r3, lsr #31
   bbb42:	bd70      	pop	{r4, r5, r6, pc}
   bbb44:	f1c4 0520 	rsb	r5, r4, #32
   bbb48:	fa00 f205 	lsl.w	r2, r0, r5
   bbb4c:	ea4e 0e02 	orr.w	lr, lr, r2
   bbb50:	fa20 f304 	lsr.w	r3, r0, r4
   bbb54:	fa01 f205 	lsl.w	r2, r1, r5
   bbb58:	ea43 0302 	orr.w	r3, r3, r2
   bbb5c:	fa21 f004 	lsr.w	r0, r1, r4
   bbb60:	f001 4100 	and.w	r1, r1, #2147483648	; 0x80000000
   bbb64:	fa21 f204 	lsr.w	r2, r1, r4
   bbb68:	ea20 0002 	bic.w	r0, r0, r2
   bbb6c:	eb00 70d3 	add.w	r0, r0, r3, lsr #31
   bbb70:	ea5e 0e43 	orrs.w	lr, lr, r3, lsl #1
   bbb74:	bf08      	it	eq
   bbb76:	ea20 70d3 	biceq.w	r0, r0, r3, lsr #31
   bbb7a:	bd70      	pop	{r4, r5, r6, pc}
   bbb7c:	f094 0f00 	teq	r4, #0
   bbb80:	d10f      	bne.n	bbba2 <__aeabi_dmul+0x1c2>
   bbb82:	f001 4600 	and.w	r6, r1, #2147483648	; 0x80000000
   bbb86:	0040      	lsls	r0, r0, #1
   bbb88:	eb41 0101 	adc.w	r1, r1, r1
   bbb8c:	f411 1f80 	tst.w	r1, #1048576	; 0x100000
   bbb90:	bf08      	it	eq
   bbb92:	3c01      	subeq	r4, #1
   bbb94:	d0f7      	beq.n	bbb86 <__aeabi_dmul+0x1a6>
   bbb96:	ea41 0106 	orr.w	r1, r1, r6
   bbb9a:	f095 0f00 	teq	r5, #0
   bbb9e:	bf18      	it	ne
   bbba0:	4770      	bxne	lr
   bbba2:	f003 4600 	and.w	r6, r3, #2147483648	; 0x80000000
   bbba6:	0052      	lsls	r2, r2, #1
   bbba8:	eb43 0303 	adc.w	r3, r3, r3
   bbbac:	f413 1f80 	tst.w	r3, #1048576	; 0x100000
   bbbb0:	bf08      	it	eq
   bbbb2:	3d01      	subeq	r5, #1
   bbbb4:	d0f7      	beq.n	bbba6 <__aeabi_dmul+0x1c6>
   bbbb6:	ea43 0306 	orr.w	r3, r3, r6
   bbbba:	4770      	bx	lr
   bbbbc:	ea94 0f0c 	teq	r4, ip
   bbbc0:	ea0c 5513 	and.w	r5, ip, r3, lsr #20
   bbbc4:	bf18      	it	ne
   bbbc6:	ea95 0f0c 	teqne	r5, ip
   bbbca:	d00c      	beq.n	bbbe6 <__aeabi_dmul+0x206>
   bbbcc:	ea50 0641 	orrs.w	r6, r0, r1, lsl #1
   bbbd0:	bf18      	it	ne
   bbbd2:	ea52 0643 	orrsne.w	r6, r2, r3, lsl #1
   bbbd6:	d1d1      	bne.n	bbb7c <__aeabi_dmul+0x19c>
   bbbd8:	ea81 0103 	eor.w	r1, r1, r3
   bbbdc:	f001 4100 	and.w	r1, r1, #2147483648	; 0x80000000
   bbbe0:	f04f 0000 	mov.w	r0, #0
   bbbe4:	bd70      	pop	{r4, r5, r6, pc}
   bbbe6:	ea50 0641 	orrs.w	r6, r0, r1, lsl #1
   bbbea:	bf06      	itte	eq
   bbbec:	4610      	moveq	r0, r2
   bbbee:	4619      	moveq	r1, r3
   bbbf0:	ea52 0643 	orrsne.w	r6, r2, r3, lsl #1
   bbbf4:	d019      	beq.n	bbc2a <__aeabi_dmul+0x24a>
   bbbf6:	ea94 0f0c 	teq	r4, ip
   bbbfa:	d102      	bne.n	bbc02 <__aeabi_dmul+0x222>
   bbbfc:	ea50 3601 	orrs.w	r6, r0, r1, lsl #12
   bbc00:	d113      	bne.n	bbc2a <__aeabi_dmul+0x24a>
   bbc02:	ea95 0f0c 	teq	r5, ip
   bbc06:	d105      	bne.n	bbc14 <__aeabi_dmul+0x234>
   bbc08:	ea52 3603 	orrs.w	r6, r2, r3, lsl #12
   bbc0c:	bf1c      	itt	ne
   bbc0e:	4610      	movne	r0, r2
   bbc10:	4619      	movne	r1, r3
   bbc12:	d10a      	bne.n	bbc2a <__aeabi_dmul+0x24a>
   bbc14:	ea81 0103 	eor.w	r1, r1, r3
   bbc18:	f001 4100 	and.w	r1, r1, #2147483648	; 0x80000000
   bbc1c:	f041 41fe 	orr.w	r1, r1, #2130706432	; 0x7f000000
   bbc20:	f441 0170 	orr.w	r1, r1, #15728640	; 0xf00000
   bbc24:	f04f 0000 	mov.w	r0, #0
   bbc28:	bd70      	pop	{r4, r5, r6, pc}
   bbc2a:	f041 41fe 	orr.w	r1, r1, #2130706432	; 0x7f000000
   bbc2e:	f441 0178 	orr.w	r1, r1, #16252928	; 0xf80000
   bbc32:	bd70      	pop	{r4, r5, r6, pc}

000bbc34 <__aeabi_ddiv>:
   bbc34:	b570      	push	{r4, r5, r6, lr}
   bbc36:	f04f 0cff 	mov.w	ip, #255	; 0xff
   bbc3a:	f44c 6ce0 	orr.w	ip, ip, #1792	; 0x700
   bbc3e:	ea1c 5411 	ands.w	r4, ip, r1, lsr #20
   bbc42:	bf1d      	ittte	ne
   bbc44:	ea1c 5513 	andsne.w	r5, ip, r3, lsr #20
   bbc48:	ea94 0f0c 	teqne	r4, ip
   bbc4c:	ea95 0f0c 	teqne	r5, ip
   bbc50:	f000 f8a7 	bleq	bbda2 <__aeabi_ddiv+0x16e>
   bbc54:	eba4 0405 	sub.w	r4, r4, r5
   bbc58:	ea81 0e03 	eor.w	lr, r1, r3
   bbc5c:	ea52 3503 	orrs.w	r5, r2, r3, lsl #12
   bbc60:	ea4f 3101 	mov.w	r1, r1, lsl #12
   bbc64:	f000 8088 	beq.w	bbd78 <__aeabi_ddiv+0x144>
   bbc68:	ea4f 3303 	mov.w	r3, r3, lsl #12
   bbc6c:	f04f 5580 	mov.w	r5, #268435456	; 0x10000000
   bbc70:	ea45 1313 	orr.w	r3, r5, r3, lsr #4
   bbc74:	ea43 6312 	orr.w	r3, r3, r2, lsr #24
   bbc78:	ea4f 2202 	mov.w	r2, r2, lsl #8
   bbc7c:	ea45 1511 	orr.w	r5, r5, r1, lsr #4
   bbc80:	ea45 6510 	orr.w	r5, r5, r0, lsr #24
   bbc84:	ea4f 2600 	mov.w	r6, r0, lsl #8
   bbc88:	f00e 4100 	and.w	r1, lr, #2147483648	; 0x80000000
   bbc8c:	429d      	cmp	r5, r3
   bbc8e:	bf08      	it	eq
   bbc90:	4296      	cmpeq	r6, r2
   bbc92:	f144 04fd 	adc.w	r4, r4, #253	; 0xfd
   bbc96:	f504 7440 	add.w	r4, r4, #768	; 0x300
   bbc9a:	d202      	bcs.n	bbca2 <__aeabi_ddiv+0x6e>
   bbc9c:	085b      	lsrs	r3, r3, #1
   bbc9e:	ea4f 0232 	mov.w	r2, r2, rrx
   bbca2:	1ab6      	subs	r6, r6, r2
   bbca4:	eb65 0503 	sbc.w	r5, r5, r3
   bbca8:	085b      	lsrs	r3, r3, #1
   bbcaa:	ea4f 0232 	mov.w	r2, r2, rrx
   bbcae:	f44f 1080 	mov.w	r0, #1048576	; 0x100000
   bbcb2:	f44f 2c00 	mov.w	ip, #524288	; 0x80000
   bbcb6:	ebb6 0e02 	subs.w	lr, r6, r2
   bbcba:	eb75 0e03 	sbcs.w	lr, r5, r3
   bbcbe:	bf22      	ittt	cs
   bbcc0:	1ab6      	subcs	r6, r6, r2
   bbcc2:	4675      	movcs	r5, lr
   bbcc4:	ea40 000c 	orrcs.w	r0, r0, ip
   bbcc8:	085b      	lsrs	r3, r3, #1
   bbcca:	ea4f 0232 	mov.w	r2, r2, rrx
   bbcce:	ebb6 0e02 	subs.w	lr, r6, r2
   bbcd2:	eb75 0e03 	sbcs.w	lr, r5, r3
   bbcd6:	bf22      	ittt	cs
   bbcd8:	1ab6      	subcs	r6, r6, r2
   bbcda:	4675      	movcs	r5, lr
   bbcdc:	ea40 005c 	orrcs.w	r0, r0, ip, lsr #1
   bbce0:	085b      	lsrs	r3, r3, #1
   bbce2:	ea4f 0232 	mov.w	r2, r2, rrx
   bbce6:	ebb6 0e02 	subs.w	lr, r6, r2
   bbcea:	eb75 0e03 	sbcs.w	lr, r5, r3
   bbcee:	bf22      	ittt	cs
   bbcf0:	1ab6      	subcs	r6, r6, r2
   bbcf2:	4675      	movcs	r5, lr
   bbcf4:	ea40 009c 	orrcs.w	r0, r0, ip, lsr #2
   bbcf8:	085b      	lsrs	r3, r3, #1
   bbcfa:	ea4f 0232 	mov.w	r2, r2, rrx
   bbcfe:	ebb6 0e02 	subs.w	lr, r6, r2
   bbd02:	eb75 0e03 	sbcs.w	lr, r5, r3
   bbd06:	bf22      	ittt	cs
   bbd08:	1ab6      	subcs	r6, r6, r2
   bbd0a:	4675      	movcs	r5, lr
   bbd0c:	ea40 00dc 	orrcs.w	r0, r0, ip, lsr #3
   bbd10:	ea55 0e06 	orrs.w	lr, r5, r6
   bbd14:	d018      	beq.n	bbd48 <__aeabi_ddiv+0x114>
   bbd16:	ea4f 1505 	mov.w	r5, r5, lsl #4
   bbd1a:	ea45 7516 	orr.w	r5, r5, r6, lsr #28
   bbd1e:	ea4f 1606 	mov.w	r6, r6, lsl #4
   bbd22:	ea4f 03c3 	mov.w	r3, r3, lsl #3
   bbd26:	ea43 7352 	orr.w	r3, r3, r2, lsr #29
   bbd2a:	ea4f 02c2 	mov.w	r2, r2, lsl #3
   bbd2e:	ea5f 1c1c 	movs.w	ip, ip, lsr #4
   bbd32:	d1c0      	bne.n	bbcb6 <__aeabi_ddiv+0x82>
   bbd34:	f411 1f80 	tst.w	r1, #1048576	; 0x100000
   bbd38:	d10b      	bne.n	bbd52 <__aeabi_ddiv+0x11e>
   bbd3a:	ea41 0100 	orr.w	r1, r1, r0
   bbd3e:	f04f 0000 	mov.w	r0, #0
   bbd42:	f04f 4c00 	mov.w	ip, #2147483648	; 0x80000000
   bbd46:	e7b6      	b.n	bbcb6 <__aeabi_ddiv+0x82>
   bbd48:	f411 1f80 	tst.w	r1, #1048576	; 0x100000
   bbd4c:	bf04      	itt	eq
   bbd4e:	4301      	orreq	r1, r0
   bbd50:	2000      	moveq	r0, #0
   bbd52:	f1b4 0cfd 	subs.w	ip, r4, #253	; 0xfd
   bbd56:	bf88      	it	hi
   bbd58:	f5bc 6fe0 	cmphi.w	ip, #1792	; 0x700
   bbd5c:	f63f aeaf 	bhi.w	bbabe <__aeabi_dmul+0xde>
   bbd60:	ebb5 0c03 	subs.w	ip, r5, r3
   bbd64:	bf04      	itt	eq
   bbd66:	ebb6 0c02 	subseq.w	ip, r6, r2
   bbd6a:	ea5f 0c50 	movseq.w	ip, r0, lsr #1
   bbd6e:	f150 0000 	adcs.w	r0, r0, #0
   bbd72:	eb41 5104 	adc.w	r1, r1, r4, lsl #20
   bbd76:	bd70      	pop	{r4, r5, r6, pc}
   bbd78:	f00e 4e00 	and.w	lr, lr, #2147483648	; 0x80000000
   bbd7c:	ea4e 3111 	orr.w	r1, lr, r1, lsr #12
   bbd80:	eb14 045c 	adds.w	r4, r4, ip, lsr #1
   bbd84:	bfc2      	ittt	gt
   bbd86:	ebd4 050c 	rsbsgt	r5, r4, ip
   bbd8a:	ea41 5104 	orrgt.w	r1, r1, r4, lsl #20
   bbd8e:	bd70      	popgt	{r4, r5, r6, pc}
   bbd90:	f441 1180 	orr.w	r1, r1, #1048576	; 0x100000
   bbd94:	f04f 0e00 	mov.w	lr, #0
   bbd98:	3c01      	subs	r4, #1
   bbd9a:	e690      	b.n	bbabe <__aeabi_dmul+0xde>
   bbd9c:	ea45 0e06 	orr.w	lr, r5, r6
   bbda0:	e68d      	b.n	bbabe <__aeabi_dmul+0xde>
   bbda2:	ea0c 5513 	and.w	r5, ip, r3, lsr #20
   bbda6:	ea94 0f0c 	teq	r4, ip
   bbdaa:	bf08      	it	eq
   bbdac:	ea95 0f0c 	teqeq	r5, ip
   bbdb0:	f43f af3b 	beq.w	bbc2a <__aeabi_dmul+0x24a>
   bbdb4:	ea94 0f0c 	teq	r4, ip
   bbdb8:	d10a      	bne.n	bbdd0 <__aeabi_ddiv+0x19c>
   bbdba:	ea50 3401 	orrs.w	r4, r0, r1, lsl #12
   bbdbe:	f47f af34 	bne.w	bbc2a <__aeabi_dmul+0x24a>
   bbdc2:	ea95 0f0c 	teq	r5, ip
   bbdc6:	f47f af25 	bne.w	bbc14 <__aeabi_dmul+0x234>
   bbdca:	4610      	mov	r0, r2
   bbdcc:	4619      	mov	r1, r3
   bbdce:	e72c      	b.n	bbc2a <__aeabi_dmul+0x24a>
   bbdd0:	ea95 0f0c 	teq	r5, ip
   bbdd4:	d106      	bne.n	bbde4 <__aeabi_ddiv+0x1b0>
   bbdd6:	ea52 3503 	orrs.w	r5, r2, r3, lsl #12
   bbdda:	f43f aefd 	beq.w	bbbd8 <__aeabi_dmul+0x1f8>
   bbdde:	4610      	mov	r0, r2
   bbde0:	4619      	mov	r1, r3
   bbde2:	e722      	b.n	bbc2a <__aeabi_dmul+0x24a>
   bbde4:	ea50 0641 	orrs.w	r6, r0, r1, lsl #1
   bbde8:	bf18      	it	ne
   bbdea:	ea52 0643 	orrsne.w	r6, r2, r3, lsl #1
   bbdee:	f47f aec5 	bne.w	bbb7c <__aeabi_dmul+0x19c>
   bbdf2:	ea50 0441 	orrs.w	r4, r0, r1, lsl #1
   bbdf6:	f47f af0d 	bne.w	bbc14 <__aeabi_dmul+0x234>
   bbdfa:	ea52 0543 	orrs.w	r5, r2, r3, lsl #1
   bbdfe:	f47f aeeb 	bne.w	bbbd8 <__aeabi_dmul+0x1f8>
   bbe02:	e712      	b.n	bbc2a <__aeabi_dmul+0x24a>

000bbe04 <__gedf2>:
   bbe04:	f04f 3cff 	mov.w	ip, #4294967295	; 0xffffffff
   bbe08:	e006      	b.n	bbe18 <__cmpdf2+0x4>
   bbe0a:	bf00      	nop

000bbe0c <__ledf2>:
   bbe0c:	f04f 0c01 	mov.w	ip, #1
   bbe10:	e002      	b.n	bbe18 <__cmpdf2+0x4>
   bbe12:	bf00      	nop

000bbe14 <__cmpdf2>:
   bbe14:	f04f 0c01 	mov.w	ip, #1
   bbe18:	f84d cd04 	str.w	ip, [sp, #-4]!
   bbe1c:	ea4f 0c41 	mov.w	ip, r1, lsl #1
   bbe20:	ea7f 5c6c 	mvns.w	ip, ip, asr #21
   bbe24:	ea4f 0c43 	mov.w	ip, r3, lsl #1
   bbe28:	bf18      	it	ne
   bbe2a:	ea7f 5c6c 	mvnsne.w	ip, ip, asr #21
   bbe2e:	d01b      	beq.n	bbe68 <__cmpdf2+0x54>
   bbe30:	b001      	add	sp, #4
   bbe32:	ea50 0c41 	orrs.w	ip, r0, r1, lsl #1
   bbe36:	bf0c      	ite	eq
   bbe38:	ea52 0c43 	orrseq.w	ip, r2, r3, lsl #1
   bbe3c:	ea91 0f03 	teqne	r1, r3
   bbe40:	bf02      	ittt	eq
   bbe42:	ea90 0f02 	teqeq	r0, r2
   bbe46:	2000      	moveq	r0, #0
   bbe48:	4770      	bxeq	lr
   bbe4a:	f110 0f00 	cmn.w	r0, #0
   bbe4e:	ea91 0f03 	teq	r1, r3
   bbe52:	bf58      	it	pl
   bbe54:	4299      	cmppl	r1, r3
   bbe56:	bf08      	it	eq
   bbe58:	4290      	cmpeq	r0, r2
   bbe5a:	bf2c      	ite	cs
   bbe5c:	17d8      	asrcs	r0, r3, #31
   bbe5e:	ea6f 70e3 	mvncc.w	r0, r3, asr #31
   bbe62:	f040 0001 	orr.w	r0, r0, #1
   bbe66:	4770      	bx	lr
   bbe68:	ea4f 0c41 	mov.w	ip, r1, lsl #1
   bbe6c:	ea7f 5c6c 	mvns.w	ip, ip, asr #21
   bbe70:	d102      	bne.n	bbe78 <__cmpdf2+0x64>
   bbe72:	ea50 3c01 	orrs.w	ip, r0, r1, lsl #12
   bbe76:	d107      	bne.n	bbe88 <__cmpdf2+0x74>
   bbe78:	ea4f 0c43 	mov.w	ip, r3, lsl #1
   bbe7c:	ea7f 5c6c 	mvns.w	ip, ip, asr #21
   bbe80:	d1d6      	bne.n	bbe30 <__cmpdf2+0x1c>
   bbe82:	ea52 3c03 	orrs.w	ip, r2, r3, lsl #12
   bbe86:	d0d3      	beq.n	bbe30 <__cmpdf2+0x1c>
   bbe88:	f85d 0b04 	ldr.w	r0, [sp], #4
   bbe8c:	4770      	bx	lr
   bbe8e:	bf00      	nop

000bbe90 <__aeabi_cdrcmple>:
   bbe90:	4684      	mov	ip, r0
   bbe92:	4610      	mov	r0, r2
   bbe94:	4662      	mov	r2, ip
   bbe96:	468c      	mov	ip, r1
   bbe98:	4619      	mov	r1, r3
   bbe9a:	4663      	mov	r3, ip
   bbe9c:	e000      	b.n	bbea0 <__aeabi_cdcmpeq>
   bbe9e:	bf00      	nop

000bbea0 <__aeabi_cdcmpeq>:
   bbea0:	b501      	push	{r0, lr}
   bbea2:	f7ff ffb7 	bl	bbe14 <__cmpdf2>
   bbea6:	2800      	cmp	r0, #0
   bbea8:	bf48      	it	mi
   bbeaa:	f110 0f00 	cmnmi.w	r0, #0
   bbeae:	bd01      	pop	{r0, pc}

000bbeb0 <__aeabi_dcmpeq>:
   bbeb0:	f84d ed08 	str.w	lr, [sp, #-8]!
   bbeb4:	f7ff fff4 	bl	bbea0 <__aeabi_cdcmpeq>
   bbeb8:	bf0c      	ite	eq
   bbeba:	2001      	moveq	r0, #1
   bbebc:	2000      	movne	r0, #0
   bbebe:	f85d fb08 	ldr.w	pc, [sp], #8
   bbec2:	bf00      	nop

000bbec4 <__aeabi_dcmplt>:
   bbec4:	f84d ed08 	str.w	lr, [sp, #-8]!
   bbec8:	f7ff ffea 	bl	bbea0 <__aeabi_cdcmpeq>
   bbecc:	bf34      	ite	cc
   bbece:	2001      	movcc	r0, #1
   bbed0:	2000      	movcs	r0, #0
   bbed2:	f85d fb08 	ldr.w	pc, [sp], #8
   bbed6:	bf00      	nop

000bbed8 <__aeabi_dcmple>:
   bbed8:	f84d ed08 	str.w	lr, [sp, #-8]!
   bbedc:	f7ff ffe0 	bl	bbea0 <__aeabi_cdcmpeq>
   bbee0:	bf94      	ite	ls
   bbee2:	2001      	movls	r0, #1
   bbee4:	2000      	movhi	r0, #0
   bbee6:	f85d fb08 	ldr.w	pc, [sp], #8
   bbeea:	bf00      	nop

000bbeec <__aeabi_dcmpge>:
   bbeec:	f84d ed08 	str.w	lr, [sp, #-8]!
   bbef0:	f7ff ffce 	bl	bbe90 <__aeabi_cdrcmple>
   bbef4:	bf94      	ite	ls
   bbef6:	2001      	movls	r0, #1
   bbef8:	2000      	movhi	r0, #0
   bbefa:	f85d fb08 	ldr.w	pc, [sp], #8
   bbefe:	bf00      	nop

000bbf00 <__aeabi_dcmpgt>:
   bbf00:	f84d ed08 	str.w	lr, [sp, #-8]!
   bbf04:	f7ff ffc4 	bl	bbe90 <__aeabi_cdrcmple>
   bbf08:	bf34      	ite	cc
   bbf0a:	2001      	movcc	r0, #1
   bbf0c:	2000      	movcs	r0, #0
   bbf0e:	f85d fb08 	ldr.w	pc, [sp], #8
   bbf12:	bf00      	nop

000bbf14 <__aeabi_dcmpun>:
   bbf14:	ea4f 0c41 	mov.w	ip, r1, lsl #1
   bbf18:	ea7f 5c6c 	mvns.w	ip, ip, asr #21
   bbf1c:	d102      	bne.n	bbf24 <__aeabi_dcmpun+0x10>
   bbf1e:	ea50 3c01 	orrs.w	ip, r0, r1, lsl #12
   bbf22:	d10a      	bne.n	bbf3a <__aeabi_dcmpun+0x26>
   bbf24:	ea4f 0c43 	mov.w	ip, r3, lsl #1
   bbf28:	ea7f 5c6c 	mvns.w	ip, ip, asr #21
   bbf2c:	d102      	bne.n	bbf34 <__aeabi_dcmpun+0x20>
   bbf2e:	ea52 3c03 	orrs.w	ip, r2, r3, lsl #12
   bbf32:	d102      	bne.n	bbf3a <__aeabi_dcmpun+0x26>
   bbf34:	f04f 0000 	mov.w	r0, #0
   bbf38:	4770      	bx	lr
   bbf3a:	f04f 0001 	mov.w	r0, #1
   bbf3e:	4770      	bx	lr

000bbf40 <__aeabi_d2iz>:
   bbf40:	ea4f 0241 	mov.w	r2, r1, lsl #1
   bbf44:	f512 1200 	adds.w	r2, r2, #2097152	; 0x200000
   bbf48:	d215      	bcs.n	bbf76 <__aeabi_d2iz+0x36>
   bbf4a:	d511      	bpl.n	bbf70 <__aeabi_d2iz+0x30>
   bbf4c:	f46f 7378 	mvn.w	r3, #992	; 0x3e0
   bbf50:	ebb3 5262 	subs.w	r2, r3, r2, asr #21
   bbf54:	d912      	bls.n	bbf7c <__aeabi_d2iz+0x3c>
   bbf56:	ea4f 23c1 	mov.w	r3, r1, lsl #11
   bbf5a:	f043 4300 	orr.w	r3, r3, #2147483648	; 0x80000000
   bbf5e:	ea43 5350 	orr.w	r3, r3, r0, lsr #21
   bbf62:	f011 4f00 	tst.w	r1, #2147483648	; 0x80000000
   bbf66:	fa23 f002 	lsr.w	r0, r3, r2
   bbf6a:	bf18      	it	ne
   bbf6c:	4240      	negne	r0, r0
   bbf6e:	4770      	bx	lr
   bbf70:	f04f 0000 	mov.w	r0, #0
   bbf74:	4770      	bx	lr
   bbf76:	ea50 3001 	orrs.w	r0, r0, r1, lsl #12
   bbf7a:	d105      	bne.n	bbf88 <__aeabi_d2iz+0x48>
   bbf7c:	f011 4000 	ands.w	r0, r1, #2147483648	; 0x80000000
   bbf80:	bf08      	it	eq
   bbf82:	f06f 4000 	mvneq.w	r0, #2147483648	; 0x80000000
   bbf86:	4770      	bx	lr
   bbf88:	f04f 0000 	mov.w	r0, #0
   bbf8c:	4770      	bx	lr
   bbf8e:	bf00      	nop

000bbf90 <__aeabi_d2uiz>:
   bbf90:	004a      	lsls	r2, r1, #1
   bbf92:	d211      	bcs.n	bbfb8 <__aeabi_d2uiz+0x28>
   bbf94:	f512 1200 	adds.w	r2, r2, #2097152	; 0x200000
   bbf98:	d211      	bcs.n	bbfbe <__aeabi_d2uiz+0x2e>
   bbf9a:	d50d      	bpl.n	bbfb8 <__aeabi_d2uiz+0x28>
   bbf9c:	f46f 7378 	mvn.w	r3, #992	; 0x3e0
   bbfa0:	ebb3 5262 	subs.w	r2, r3, r2, asr #21
   bbfa4:	d40e      	bmi.n	bbfc4 <__aeabi_d2uiz+0x34>
   bbfa6:	ea4f 23c1 	mov.w	r3, r1, lsl #11
   bbfaa:	f043 4300 	orr.w	r3, r3, #2147483648	; 0x80000000
   bbfae:	ea43 5350 	orr.w	r3, r3, r0, lsr #21
   bbfb2:	fa23 f002 	lsr.w	r0, r3, r2
   bbfb6:	4770      	bx	lr
   bbfb8:	f04f 0000 	mov.w	r0, #0
   bbfbc:	4770      	bx	lr
   bbfbe:	ea50 3001 	orrs.w	r0, r0, r1, lsl #12
   bbfc2:	d102      	bne.n	bbfca <__aeabi_d2uiz+0x3a>
   bbfc4:	f04f 30ff 	mov.w	r0, #4294967295	; 0xffffffff
   bbfc8:	4770      	bx	lr
   bbfca:	f04f 0000 	mov.w	r0, #0
   bbfce:	4770      	bx	lr

000bbfd0 <__aeabi_d2f>:
   bbfd0:	ea4f 0241 	mov.w	r2, r1, lsl #1
   bbfd4:	f1b2 43e0 	subs.w	r3, r2, #1879048192	; 0x70000000
   bbfd8:	bf24      	itt	cs
   bbfda:	f5b3 1c00 	subscs.w	ip, r3, #2097152	; 0x200000
   bbfde:	f1dc 5cfe 	rsbscs	ip, ip, #532676608	; 0x1fc00000
   bbfe2:	d90d      	bls.n	bc000 <__aeabi_d2f+0x30>
   bbfe4:	f001 4c00 	and.w	ip, r1, #2147483648	; 0x80000000
   bbfe8:	ea4f 02c0 	mov.w	r2, r0, lsl #3
   bbfec:	ea4c 7050 	orr.w	r0, ip, r0, lsr #29
   bbff0:	f1b2 4f00 	cmp.w	r2, #2147483648	; 0x80000000
   bbff4:	eb40 0083 	adc.w	r0, r0, r3, lsl #2
   bbff8:	bf08      	it	eq
   bbffa:	f020 0001 	biceq.w	r0, r0, #1
   bbffe:	4770      	bx	lr
   bc000:	f011 4f80 	tst.w	r1, #1073741824	; 0x40000000
   bc004:	d121      	bne.n	bc04a <__aeabi_d2f+0x7a>
   bc006:	f113 7238 	adds.w	r2, r3, #48234496	; 0x2e00000
   bc00a:	bfbc      	itt	lt
   bc00c:	f001 4000 	andlt.w	r0, r1, #2147483648	; 0x80000000
   bc010:	4770      	bxlt	lr
   bc012:	f441 1180 	orr.w	r1, r1, #1048576	; 0x100000
   bc016:	ea4f 5252 	mov.w	r2, r2, lsr #21
   bc01a:	f1c2 0218 	rsb	r2, r2, #24
   bc01e:	f1c2 0c20 	rsb	ip, r2, #32
   bc022:	fa10 f30c 	lsls.w	r3, r0, ip
   bc026:	fa20 f002 	lsr.w	r0, r0, r2
   bc02a:	bf18      	it	ne
   bc02c:	f040 0001 	orrne.w	r0, r0, #1
   bc030:	ea4f 23c1 	mov.w	r3, r1, lsl #11
   bc034:	ea4f 23d3 	mov.w	r3, r3, lsr #11
   bc038:	fa03 fc0c 	lsl.w	ip, r3, ip
   bc03c:	ea40 000c 	orr.w	r0, r0, ip
   bc040:	fa23 f302 	lsr.w	r3, r3, r2
   bc044:	ea4f 0343 	mov.w	r3, r3, lsl #1
   bc048:	e7cc      	b.n	bbfe4 <__aeabi_d2f+0x14>
   bc04a:	ea7f 5362 	mvns.w	r3, r2, asr #21
   bc04e:	d107      	bne.n	bc060 <__aeabi_d2f+0x90>
   bc050:	ea50 3301 	orrs.w	r3, r0, r1, lsl #12
   bc054:	bf1e      	ittt	ne
   bc056:	f04f 40fe 	movne.w	r0, #2130706432	; 0x7f000000
   bc05a:	f440 0040 	orrne.w	r0, r0, #12582912	; 0xc00000
   bc05e:	4770      	bxne	lr
   bc060:	f001 4000 	and.w	r0, r1, #2147483648	; 0x80000000
   bc064:	f040 40fe 	orr.w	r0, r0, #2130706432	; 0x7f000000
   bc068:	f440 0000 	orr.w	r0, r0, #8388608	; 0x800000
   bc06c:	4770      	bx	lr
   bc06e:	bf00      	nop

000bc070 <__aeabi_uldivmod>:
   bc070:	b953      	cbnz	r3, bc088 <__aeabi_uldivmod+0x18>
   bc072:	b94a      	cbnz	r2, bc088 <__aeabi_uldivmod+0x18>
   bc074:	2900      	cmp	r1, #0
   bc076:	bf08      	it	eq
   bc078:	2800      	cmpeq	r0, #0
   bc07a:	bf1c      	itt	ne
   bc07c:	f04f 31ff 	movne.w	r1, #4294967295	; 0xffffffff
   bc080:	f04f 30ff 	movne.w	r0, #4294967295	; 0xffffffff
   bc084:	f000 b992 	b.w	bc3ac <__aeabi_idiv0>
   bc088:	f1ad 0c08 	sub.w	ip, sp, #8
   bc08c:	e96d ce04 	strd	ip, lr, [sp, #-16]!
   bc090:	f000 f824 	bl	bc0dc <__udivmoddi4>
   bc094:	f8dd e004 	ldr.w	lr, [sp, #4]
   bc098:	e9dd 2302 	ldrd	r2, r3, [sp, #8]
   bc09c:	b004      	add	sp, #16
   bc09e:	4770      	bx	lr

000bc0a0 <__aeabi_d2ulz>:
   bc0a0:	b5d0      	push	{r4, r6, r7, lr}
   bc0a2:	4b0c      	ldr	r3, [pc, #48]	; (bc0d4 <__aeabi_d2ulz+0x34>)
   bc0a4:	2200      	movs	r2, #0
   bc0a6:	4606      	mov	r6, r0
   bc0a8:	460f      	mov	r7, r1
   bc0aa:	f7ff fc99 	bl	bb9e0 <__aeabi_dmul>
   bc0ae:	f7ff ff6f 	bl	bbf90 <__aeabi_d2uiz>
   bc0b2:	4604      	mov	r4, r0
   bc0b4:	f7ff fc1a 	bl	bb8ec <__aeabi_ui2d>
   bc0b8:	4b07      	ldr	r3, [pc, #28]	; (bc0d8 <__aeabi_d2ulz+0x38>)
   bc0ba:	2200      	movs	r2, #0
   bc0bc:	f7ff fc90 	bl	bb9e0 <__aeabi_dmul>
   bc0c0:	4602      	mov	r2, r0
   bc0c2:	460b      	mov	r3, r1
   bc0c4:	4630      	mov	r0, r6
   bc0c6:	4639      	mov	r1, r7
   bc0c8:	f7ff fad2 	bl	bb670 <__aeabi_dsub>
   bc0cc:	f7ff ff60 	bl	bbf90 <__aeabi_d2uiz>
   bc0d0:	4621      	mov	r1, r4
   bc0d2:	bdd0      	pop	{r4, r6, r7, pc}
   bc0d4:	3df00000 	.word	0x3df00000
   bc0d8:	41f00000 	.word	0x41f00000

000bc0dc <__udivmoddi4>:
   bc0dc:	e92d 47f0 	stmdb	sp!, {r4, r5, r6, r7, r8, r9, sl, lr}
   bc0e0:	9d08      	ldr	r5, [sp, #32]
   bc0e2:	4604      	mov	r4, r0
   bc0e4:	468e      	mov	lr, r1
   bc0e6:	2b00      	cmp	r3, #0
   bc0e8:	d14d      	bne.n	bc186 <__udivmoddi4+0xaa>
   bc0ea:	428a      	cmp	r2, r1
   bc0ec:	4694      	mov	ip, r2
   bc0ee:	d969      	bls.n	bc1c4 <__udivmoddi4+0xe8>
   bc0f0:	fab2 f282 	clz	r2, r2
   bc0f4:	b152      	cbz	r2, bc10c <__udivmoddi4+0x30>
   bc0f6:	fa01 f302 	lsl.w	r3, r1, r2
   bc0fa:	f1c2 0120 	rsb	r1, r2, #32
   bc0fe:	fa20 f101 	lsr.w	r1, r0, r1
   bc102:	fa0c fc02 	lsl.w	ip, ip, r2
   bc106:	ea41 0e03 	orr.w	lr, r1, r3
   bc10a:	4094      	lsls	r4, r2
   bc10c:	ea4f 481c 	mov.w	r8, ip, lsr #16
   bc110:	0c21      	lsrs	r1, r4, #16
   bc112:	fbbe f6f8 	udiv	r6, lr, r8
   bc116:	fa1f f78c 	uxth.w	r7, ip
   bc11a:	fb08 e316 	mls	r3, r8, r6, lr
   bc11e:	ea41 4303 	orr.w	r3, r1, r3, lsl #16
   bc122:	fb06 f107 	mul.w	r1, r6, r7
   bc126:	4299      	cmp	r1, r3
   bc128:	d90a      	bls.n	bc140 <__udivmoddi4+0x64>
   bc12a:	eb1c 0303 	adds.w	r3, ip, r3
   bc12e:	f106 30ff 	add.w	r0, r6, #4294967295	; 0xffffffff
   bc132:	f080 811f 	bcs.w	bc374 <__udivmoddi4+0x298>
   bc136:	4299      	cmp	r1, r3
   bc138:	f240 811c 	bls.w	bc374 <__udivmoddi4+0x298>
   bc13c:	3e02      	subs	r6, #2
   bc13e:	4463      	add	r3, ip
   bc140:	1a5b      	subs	r3, r3, r1
   bc142:	b2a4      	uxth	r4, r4
   bc144:	fbb3 f0f8 	udiv	r0, r3, r8
   bc148:	fb08 3310 	mls	r3, r8, r0, r3
   bc14c:	ea44 4403 	orr.w	r4, r4, r3, lsl #16
   bc150:	fb00 f707 	mul.w	r7, r0, r7
   bc154:	42a7      	cmp	r7, r4
   bc156:	d90a      	bls.n	bc16e <__udivmoddi4+0x92>
   bc158:	eb1c 0404 	adds.w	r4, ip, r4
   bc15c:	f100 33ff 	add.w	r3, r0, #4294967295	; 0xffffffff
   bc160:	f080 810a 	bcs.w	bc378 <__udivmoddi4+0x29c>
   bc164:	42a7      	cmp	r7, r4
   bc166:	f240 8107 	bls.w	bc378 <__udivmoddi4+0x29c>
   bc16a:	4464      	add	r4, ip
   bc16c:	3802      	subs	r0, #2
   bc16e:	ea40 4006 	orr.w	r0, r0, r6, lsl #16
   bc172:	1be4      	subs	r4, r4, r7
   bc174:	2600      	movs	r6, #0
   bc176:	b11d      	cbz	r5, bc180 <__udivmoddi4+0xa4>
   bc178:	40d4      	lsrs	r4, r2
   bc17a:	2300      	movs	r3, #0
   bc17c:	e9c5 4300 	strd	r4, r3, [r5]
   bc180:	4631      	mov	r1, r6
   bc182:	e8bd 87f0 	ldmia.w	sp!, {r4, r5, r6, r7, r8, r9, sl, pc}
   bc186:	428b      	cmp	r3, r1
   bc188:	d909      	bls.n	bc19e <__udivmoddi4+0xc2>
   bc18a:	2d00      	cmp	r5, #0
   bc18c:	f000 80ef 	beq.w	bc36e <__udivmoddi4+0x292>
   bc190:	2600      	movs	r6, #0
   bc192:	e9c5 0100 	strd	r0, r1, [r5]
   bc196:	4630      	mov	r0, r6
   bc198:	4631      	mov	r1, r6
   bc19a:	e8bd 87f0 	ldmia.w	sp!, {r4, r5, r6, r7, r8, r9, sl, pc}
   bc19e:	fab3 f683 	clz	r6, r3
   bc1a2:	2e00      	cmp	r6, #0
   bc1a4:	d14a      	bne.n	bc23c <__udivmoddi4+0x160>
   bc1a6:	428b      	cmp	r3, r1
   bc1a8:	d302      	bcc.n	bc1b0 <__udivmoddi4+0xd4>
   bc1aa:	4282      	cmp	r2, r0
   bc1ac:	f200 80f9 	bhi.w	bc3a2 <__udivmoddi4+0x2c6>
   bc1b0:	1a84      	subs	r4, r0, r2
   bc1b2:	eb61 0303 	sbc.w	r3, r1, r3
   bc1b6:	2001      	movs	r0, #1
   bc1b8:	469e      	mov	lr, r3
   bc1ba:	2d00      	cmp	r5, #0
   bc1bc:	d0e0      	beq.n	bc180 <__udivmoddi4+0xa4>
   bc1be:	e9c5 4e00 	strd	r4, lr, [r5]
   bc1c2:	e7dd      	b.n	bc180 <__udivmoddi4+0xa4>
   bc1c4:	b902      	cbnz	r2, bc1c8 <__udivmoddi4+0xec>
   bc1c6:	deff      	udf	#255	; 0xff
   bc1c8:	fab2 f282 	clz	r2, r2
   bc1cc:	2a00      	cmp	r2, #0
   bc1ce:	f040 8092 	bne.w	bc2f6 <__udivmoddi4+0x21a>
   bc1d2:	eba1 010c 	sub.w	r1, r1, ip
   bc1d6:	ea4f 471c 	mov.w	r7, ip, lsr #16
   bc1da:	fa1f fe8c 	uxth.w	lr, ip
   bc1de:	2601      	movs	r6, #1
   bc1e0:	0c20      	lsrs	r0, r4, #16
   bc1e2:	fbb1 f3f7 	udiv	r3, r1, r7
   bc1e6:	fb07 1113 	mls	r1, r7, r3, r1
   bc1ea:	ea40 4101 	orr.w	r1, r0, r1, lsl #16
   bc1ee:	fb0e f003 	mul.w	r0, lr, r3
   bc1f2:	4288      	cmp	r0, r1
   bc1f4:	d908      	bls.n	bc208 <__udivmoddi4+0x12c>
   bc1f6:	eb1c 0101 	adds.w	r1, ip, r1
   bc1fa:	f103 38ff 	add.w	r8, r3, #4294967295	; 0xffffffff
   bc1fe:	d202      	bcs.n	bc206 <__udivmoddi4+0x12a>
   bc200:	4288      	cmp	r0, r1
   bc202:	f200 80cb 	bhi.w	bc39c <__udivmoddi4+0x2c0>
   bc206:	4643      	mov	r3, r8
   bc208:	1a09      	subs	r1, r1, r0
   bc20a:	b2a4      	uxth	r4, r4
   bc20c:	fbb1 f0f7 	udiv	r0, r1, r7
   bc210:	fb07 1110 	mls	r1, r7, r0, r1
   bc214:	ea44 4401 	orr.w	r4, r4, r1, lsl #16
   bc218:	fb0e fe00 	mul.w	lr, lr, r0
   bc21c:	45a6      	cmp	lr, r4
   bc21e:	d908      	bls.n	bc232 <__udivmoddi4+0x156>
   bc220:	eb1c 0404 	adds.w	r4, ip, r4
   bc224:	f100 31ff 	add.w	r1, r0, #4294967295	; 0xffffffff
   bc228:	d202      	bcs.n	bc230 <__udivmoddi4+0x154>
   bc22a:	45a6      	cmp	lr, r4
   bc22c:	f200 80bb 	bhi.w	bc3a6 <__udivmoddi4+0x2ca>
   bc230:	4608      	mov	r0, r1
   bc232:	eba4 040e 	sub.w	r4, r4, lr
   bc236:	ea40 4003 	orr.w	r0, r0, r3, lsl #16
   bc23a:	e79c      	b.n	bc176 <__udivmoddi4+0x9a>
   bc23c:	f1c6 0720 	rsb	r7, r6, #32
   bc240:	40b3      	lsls	r3, r6
   bc242:	fa22 fc07 	lsr.w	ip, r2, r7
   bc246:	ea4c 0c03 	orr.w	ip, ip, r3
   bc24a:	fa20 f407 	lsr.w	r4, r0, r7
   bc24e:	fa01 f306 	lsl.w	r3, r1, r6
   bc252:	431c      	orrs	r4, r3
   bc254:	40f9      	lsrs	r1, r7
   bc256:	ea4f 491c 	mov.w	r9, ip, lsr #16
   bc25a:	fa00 f306 	lsl.w	r3, r0, r6
   bc25e:	fbb1 f8f9 	udiv	r8, r1, r9
   bc262:	0c20      	lsrs	r0, r4, #16
   bc264:	fa1f fe8c 	uxth.w	lr, ip
   bc268:	fb09 1118 	mls	r1, r9, r8, r1
   bc26c:	ea40 4101 	orr.w	r1, r0, r1, lsl #16
   bc270:	fb08 f00e 	mul.w	r0, r8, lr
   bc274:	4288      	cmp	r0, r1
   bc276:	fa02 f206 	lsl.w	r2, r2, r6
   bc27a:	d90b      	bls.n	bc294 <__udivmoddi4+0x1b8>
   bc27c:	eb1c 0101 	adds.w	r1, ip, r1
   bc280:	f108 3aff 	add.w	sl, r8, #4294967295	; 0xffffffff
   bc284:	f080 8088 	bcs.w	bc398 <__udivmoddi4+0x2bc>
   bc288:	4288      	cmp	r0, r1
   bc28a:	f240 8085 	bls.w	bc398 <__udivmoddi4+0x2bc>
   bc28e:	f1a8 0802 	sub.w	r8, r8, #2
   bc292:	4461      	add	r1, ip
   bc294:	1a09      	subs	r1, r1, r0
   bc296:	b2a4      	uxth	r4, r4
   bc298:	fbb1 f0f9 	udiv	r0, r1, r9
   bc29c:	fb09 1110 	mls	r1, r9, r0, r1
   bc2a0:	ea44 4101 	orr.w	r1, r4, r1, lsl #16
   bc2a4:	fb00 fe0e 	mul.w	lr, r0, lr
   bc2a8:	458e      	cmp	lr, r1
   bc2aa:	d908      	bls.n	bc2be <__udivmoddi4+0x1e2>
   bc2ac:	eb1c 0101 	adds.w	r1, ip, r1
   bc2b0:	f100 34ff 	add.w	r4, r0, #4294967295	; 0xffffffff
   bc2b4:	d26c      	bcs.n	bc390 <__udivmoddi4+0x2b4>
   bc2b6:	458e      	cmp	lr, r1
   bc2b8:	d96a      	bls.n	bc390 <__udivmoddi4+0x2b4>
   bc2ba:	3802      	subs	r0, #2
   bc2bc:	4461      	add	r1, ip
   bc2be:	ea40 4008 	orr.w	r0, r0, r8, lsl #16
   bc2c2:	fba0 9402 	umull	r9, r4, r0, r2
   bc2c6:	eba1 010e 	sub.w	r1, r1, lr
   bc2ca:	42a1      	cmp	r1, r4
   bc2cc:	46c8      	mov	r8, r9
   bc2ce:	46a6      	mov	lr, r4
   bc2d0:	d356      	bcc.n	bc380 <__udivmoddi4+0x2a4>
   bc2d2:	d053      	beq.n	bc37c <__udivmoddi4+0x2a0>
   bc2d4:	b15d      	cbz	r5, bc2ee <__udivmoddi4+0x212>
   bc2d6:	ebb3 0208 	subs.w	r2, r3, r8
   bc2da:	eb61 010e 	sbc.w	r1, r1, lr
   bc2de:	fa01 f707 	lsl.w	r7, r1, r7
   bc2e2:	fa22 f306 	lsr.w	r3, r2, r6
   bc2e6:	40f1      	lsrs	r1, r6
   bc2e8:	431f      	orrs	r7, r3
   bc2ea:	e9c5 7100 	strd	r7, r1, [r5]
   bc2ee:	2600      	movs	r6, #0
   bc2f0:	4631      	mov	r1, r6
   bc2f2:	e8bd 87f0 	ldmia.w	sp!, {r4, r5, r6, r7, r8, r9, sl, pc}
   bc2f6:	f1c2 0320 	rsb	r3, r2, #32
   bc2fa:	40d8      	lsrs	r0, r3
   bc2fc:	fa0c fc02 	lsl.w	ip, ip, r2
   bc300:	fa21 f303 	lsr.w	r3, r1, r3
   bc304:	4091      	lsls	r1, r2
   bc306:	4301      	orrs	r1, r0
   bc308:	ea4f 471c 	mov.w	r7, ip, lsr #16
   bc30c:	fa1f fe8c 	uxth.w	lr, ip
   bc310:	fbb3 f0f7 	udiv	r0, r3, r7
   bc314:	fb07 3610 	mls	r6, r7, r0, r3
   bc318:	0c0b      	lsrs	r3, r1, #16
   bc31a:	ea43 4306 	orr.w	r3, r3, r6, lsl #16
   bc31e:	fb00 f60e 	mul.w	r6, r0, lr
   bc322:	429e      	cmp	r6, r3
   bc324:	fa04 f402 	lsl.w	r4, r4, r2
   bc328:	d908      	bls.n	bc33c <__udivmoddi4+0x260>
   bc32a:	eb1c 0303 	adds.w	r3, ip, r3
   bc32e:	f100 38ff 	add.w	r8, r0, #4294967295	; 0xffffffff
   bc332:	d22f      	bcs.n	bc394 <__udivmoddi4+0x2b8>
   bc334:	429e      	cmp	r6, r3
   bc336:	d92d      	bls.n	bc394 <__udivmoddi4+0x2b8>
   bc338:	3802      	subs	r0, #2
   bc33a:	4463      	add	r3, ip
   bc33c:	1b9b      	subs	r3, r3, r6
   bc33e:	b289      	uxth	r1, r1
   bc340:	fbb3 f6f7 	udiv	r6, r3, r7
   bc344:	fb07 3316 	mls	r3, r7, r6, r3
   bc348:	ea41 4103 	orr.w	r1, r1, r3, lsl #16
   bc34c:	fb06 f30e 	mul.w	r3, r6, lr
   bc350:	428b      	cmp	r3, r1
   bc352:	d908      	bls.n	bc366 <__udivmoddi4+0x28a>
   bc354:	eb1c 0101 	adds.w	r1, ip, r1
   bc358:	f106 38ff 	add.w	r8, r6, #4294967295	; 0xffffffff
   bc35c:	d216      	bcs.n	bc38c <__udivmoddi4+0x2b0>
   bc35e:	428b      	cmp	r3, r1
   bc360:	d914      	bls.n	bc38c <__udivmoddi4+0x2b0>
   bc362:	3e02      	subs	r6, #2
   bc364:	4461      	add	r1, ip
   bc366:	1ac9      	subs	r1, r1, r3
   bc368:	ea46 4600 	orr.w	r6, r6, r0, lsl #16
   bc36c:	e738      	b.n	bc1e0 <__udivmoddi4+0x104>
   bc36e:	462e      	mov	r6, r5
   bc370:	4628      	mov	r0, r5
   bc372:	e705      	b.n	bc180 <__udivmoddi4+0xa4>
   bc374:	4606      	mov	r6, r0
   bc376:	e6e3      	b.n	bc140 <__udivmoddi4+0x64>
   bc378:	4618      	mov	r0, r3
   bc37a:	e6f8      	b.n	bc16e <__udivmoddi4+0x92>
   bc37c:	454b      	cmp	r3, r9
   bc37e:	d2a9      	bcs.n	bc2d4 <__udivmoddi4+0x1f8>
   bc380:	ebb9 0802 	subs.w	r8, r9, r2
   bc384:	eb64 0e0c 	sbc.w	lr, r4, ip
   bc388:	3801      	subs	r0, #1
   bc38a:	e7a3      	b.n	bc2d4 <__udivmoddi4+0x1f8>
   bc38c:	4646      	mov	r6, r8
   bc38e:	e7ea      	b.n	bc366 <__udivmoddi4+0x28a>
   bc390:	4620      	mov	r0, r4
   bc392:	e794      	b.n	bc2be <__udivmoddi4+0x1e2>
   bc394:	4640      	mov	r0, r8
   bc396:	e7d1      	b.n	bc33c <__udivmoddi4+0x260>
   bc398:	46d0      	mov	r8, sl
   bc39a:	e77b      	b.n	bc294 <__udivmoddi4+0x1b8>
   bc39c:	3b02      	subs	r3, #2
   bc39e:	4461      	add	r1, ip
   bc3a0:	e732      	b.n	bc208 <__udivmoddi4+0x12c>
   bc3a2:	4630      	mov	r0, r6
   bc3a4:	e709      	b.n	bc1ba <__udivmoddi4+0xde>
   bc3a6:	4464      	add	r4, ip
   bc3a8:	3802      	subs	r0, #2
   bc3aa:	e742      	b.n	bc232 <__udivmoddi4+0x156>

000bc3ac <__aeabi_idiv0>:
   bc3ac:	4770      	bx	lr
   bc3ae:	bf00      	nop

000bc3b0 <atexit>:
   bc3b0:	2300      	movs	r3, #0
   bc3b2:	4601      	mov	r1, r0
   bc3b4:	461a      	mov	r2, r3
   bc3b6:	4618      	mov	r0, r3
   bc3b8:	f000 b9ac 	b.w	bc714 <__register_exitproc>

000bc3bc <isprint>:
   bc3bc:	4b02      	ldr	r3, [pc, #8]	; (bc3c8 <isprint+0xc>)
   bc3be:	4418      	add	r0, r3
   bc3c0:	7840      	ldrb	r0, [r0, #1]
   bc3c2:	f000 0097 	and.w	r0, r0, #151	; 0x97
   bc3c6:	4770      	bx	lr
   bc3c8:	000bd0f5 	.word	0x000bd0f5

000bc3cc <memcmp>:
   bc3cc:	b510      	push	{r4, lr}
   bc3ce:	3901      	subs	r1, #1
   bc3d0:	4402      	add	r2, r0
   bc3d2:	4290      	cmp	r0, r2
   bc3d4:	d101      	bne.n	bc3da <memcmp+0xe>
   bc3d6:	2000      	movs	r0, #0
   bc3d8:	e005      	b.n	bc3e6 <memcmp+0x1a>
   bc3da:	7803      	ldrb	r3, [r0, #0]
   bc3dc:	f811 4f01 	ldrb.w	r4, [r1, #1]!
   bc3e0:	42a3      	cmp	r3, r4
   bc3e2:	d001      	beq.n	bc3e8 <memcmp+0x1c>
   bc3e4:	1b18      	subs	r0, r3, r4
   bc3e6:	bd10      	pop	{r4, pc}
   bc3e8:	3001      	adds	r0, #1
   bc3ea:	e7f2      	b.n	bc3d2 <memcmp+0x6>

000bc3ec <memcpy>:
   bc3ec:	440a      	add	r2, r1
   bc3ee:	4291      	cmp	r1, r2
   bc3f0:	f100 33ff 	add.w	r3, r0, #4294967295	; 0xffffffff
   bc3f4:	d100      	bne.n	bc3f8 <memcpy+0xc>
   bc3f6:	4770      	bx	lr
   bc3f8:	b510      	push	{r4, lr}
   bc3fa:	f811 4b01 	ldrb.w	r4, [r1], #1
   bc3fe:	f803 4f01 	strb.w	r4, [r3, #1]!
   bc402:	4291      	cmp	r1, r2
   bc404:	d1f9      	bne.n	bc3fa <memcpy+0xe>
   bc406:	bd10      	pop	{r4, pc}

000bc408 <memmove>:
   bc408:	4288      	cmp	r0, r1
   bc40a:	b510      	push	{r4, lr}
   bc40c:	eb01 0402 	add.w	r4, r1, r2
   bc410:	d902      	bls.n	bc418 <memmove+0x10>
   bc412:	4284      	cmp	r4, r0
   bc414:	4623      	mov	r3, r4
   bc416:	d807      	bhi.n	bc428 <memmove+0x20>
   bc418:	1e43      	subs	r3, r0, #1
   bc41a:	42a1      	cmp	r1, r4
   bc41c:	d008      	beq.n	bc430 <memmove+0x28>
   bc41e:	f811 2b01 	ldrb.w	r2, [r1], #1
   bc422:	f803 2f01 	strb.w	r2, [r3, #1]!
   bc426:	e7f8      	b.n	bc41a <memmove+0x12>
   bc428:	4402      	add	r2, r0
   bc42a:	4601      	mov	r1, r0
   bc42c:	428a      	cmp	r2, r1
   bc42e:	d100      	bne.n	bc432 <memmove+0x2a>
   bc430:	bd10      	pop	{r4, pc}
   bc432:	f813 4d01 	ldrb.w	r4, [r3, #-1]!
   bc436:	f802 4d01 	strb.w	r4, [r2, #-1]!
   bc43a:	e7f7      	b.n	bc42c <memmove+0x24>

000bc43c <memset>:
   bc43c:	4402      	add	r2, r0
   bc43e:	4603      	mov	r3, r0
   bc440:	4293      	cmp	r3, r2
   bc442:	d100      	bne.n	bc446 <memset+0xa>
   bc444:	4770      	bx	lr
   bc446:	f803 1b01 	strb.w	r1, [r3], #1
   bc44a:	e7f9      	b.n	bc440 <memset+0x4>

000bc44c <srand>:
   bc44c:	b538      	push	{r3, r4, r5, lr}
   bc44e:	4b10      	ldr	r3, [pc, #64]	; (bc490 <srand+0x44>)
   bc450:	681d      	ldr	r5, [r3, #0]
   bc452:	6bab      	ldr	r3, [r5, #56]	; 0x38
   bc454:	4604      	mov	r4, r0
   bc456:	b9b3      	cbnz	r3, bc486 <srand+0x3a>
   bc458:	2018      	movs	r0, #24
   bc45a:	f7fb fd67 	bl	b7f2c <malloc>
   bc45e:	4602      	mov	r2, r0
   bc460:	63a8      	str	r0, [r5, #56]	; 0x38
   bc462:	b920      	cbnz	r0, bc46e <srand+0x22>
   bc464:	4b0b      	ldr	r3, [pc, #44]	; (bc494 <srand+0x48>)
   bc466:	480c      	ldr	r0, [pc, #48]	; (bc498 <srand+0x4c>)
   bc468:	2142      	movs	r1, #66	; 0x42
   bc46a:	f7fb fd97 	bl	b7f9c <__assert_func>
   bc46e:	490b      	ldr	r1, [pc, #44]	; (bc49c <srand+0x50>)
   bc470:	4b0b      	ldr	r3, [pc, #44]	; (bc4a0 <srand+0x54>)
   bc472:	e9c0 1300 	strd	r1, r3, [r0]
   bc476:	4b0b      	ldr	r3, [pc, #44]	; (bc4a4 <srand+0x58>)
   bc478:	6083      	str	r3, [r0, #8]
   bc47a:	230b      	movs	r3, #11
   bc47c:	8183      	strh	r3, [r0, #12]
   bc47e:	2100      	movs	r1, #0
   bc480:	2001      	movs	r0, #1
   bc482:	e9c2 0104 	strd	r0, r1, [r2, #16]
   bc486:	6bab      	ldr	r3, [r5, #56]	; 0x38
   bc488:	2200      	movs	r2, #0
   bc48a:	611c      	str	r4, [r3, #16]
   bc48c:	615a      	str	r2, [r3, #20]
   bc48e:	bd38      	pop	{r3, r4, r5, pc}
   bc490:	2003dbd4 	.word	0x2003dbd4
   bc494:	000bd085 	.word	0x000bd085
   bc498:	000bd09c 	.word	0x000bd09c
   bc49c:	abcd330e 	.word	0xabcd330e
   bc4a0:	e66d1234 	.word	0xe66d1234
   bc4a4:	0005deec 	.word	0x0005deec

000bc4a8 <rand>:
   bc4a8:	4b16      	ldr	r3, [pc, #88]	; (bc504 <rand+0x5c>)
   bc4aa:	b510      	push	{r4, lr}
   bc4ac:	681c      	ldr	r4, [r3, #0]
   bc4ae:	6ba3      	ldr	r3, [r4, #56]	; 0x38
   bc4b0:	b9b3      	cbnz	r3, bc4e0 <rand+0x38>
   bc4b2:	2018      	movs	r0, #24
   bc4b4:	f7fb fd3a 	bl	b7f2c <malloc>
   bc4b8:	63a0      	str	r0, [r4, #56]	; 0x38
   bc4ba:	b928      	cbnz	r0, bc4c8 <rand+0x20>
   bc4bc:	4602      	mov	r2, r0
   bc4be:	4b12      	ldr	r3, [pc, #72]	; (bc508 <rand+0x60>)
   bc4c0:	4812      	ldr	r0, [pc, #72]	; (bc50c <rand+0x64>)
   bc4c2:	214e      	movs	r1, #78	; 0x4e
   bc4c4:	f7fb fd6a 	bl	b7f9c <__assert_func>
   bc4c8:	4a11      	ldr	r2, [pc, #68]	; (bc510 <rand+0x68>)
   bc4ca:	4b12      	ldr	r3, [pc, #72]	; (bc514 <rand+0x6c>)
   bc4cc:	e9c0 2300 	strd	r2, r3, [r0]
   bc4d0:	4b11      	ldr	r3, [pc, #68]	; (bc518 <rand+0x70>)
   bc4d2:	6083      	str	r3, [r0, #8]
   bc4d4:	230b      	movs	r3, #11
   bc4d6:	8183      	strh	r3, [r0, #12]
   bc4d8:	2201      	movs	r2, #1
   bc4da:	2300      	movs	r3, #0
   bc4dc:	e9c0 2304 	strd	r2, r3, [r0, #16]
   bc4e0:	6ba4      	ldr	r4, [r4, #56]	; 0x38
   bc4e2:	4a0e      	ldr	r2, [pc, #56]	; (bc51c <rand+0x74>)
   bc4e4:	6920      	ldr	r0, [r4, #16]
   bc4e6:	6963      	ldr	r3, [r4, #20]
   bc4e8:	490d      	ldr	r1, [pc, #52]	; (bc520 <rand+0x78>)
   bc4ea:	4342      	muls	r2, r0
   bc4ec:	fb01 2203 	mla	r2, r1, r3, r2
   bc4f0:	fba0 0101 	umull	r0, r1, r0, r1
   bc4f4:	1c43      	adds	r3, r0, #1
   bc4f6:	eb42 0001 	adc.w	r0, r2, r1
   bc4fa:	e9c4 3004 	strd	r3, r0, [r4, #16]
   bc4fe:	f020 4000 	bic.w	r0, r0, #2147483648	; 0x80000000
   bc502:	bd10      	pop	{r4, pc}
   bc504:	2003dbd4 	.word	0x2003dbd4
   bc508:	000bd085 	.word	0x000bd085
   bc50c:	000bd09c 	.word	0x000bd09c
   bc510:	abcd330e 	.word	0xabcd330e
   bc514:	e66d1234 	.word	0xe66d1234
   bc518:	0005deec 	.word	0x0005deec
   bc51c:	5851f42d 	.word	0x5851f42d
   bc520:	4c957f2d 	.word	0x4c957f2d

000bc524 <strchr>:
   bc524:	b2c9      	uxtb	r1, r1
   bc526:	4603      	mov	r3, r0
   bc528:	f810 2b01 	ldrb.w	r2, [r0], #1
   bc52c:	b11a      	cbz	r2, bc536 <strchr+0x12>
   bc52e:	428a      	cmp	r2, r1
   bc530:	d1f9      	bne.n	bc526 <strchr+0x2>
   bc532:	4618      	mov	r0, r3
   bc534:	4770      	bx	lr
   bc536:	2900      	cmp	r1, #0
   bc538:	bf18      	it	ne
   bc53a:	2300      	movne	r3, #0
   bc53c:	e7f9      	b.n	bc532 <strchr+0xe>

000bc53e <strchrnul>:
   bc53e:	b510      	push	{r4, lr}
   bc540:	4604      	mov	r4, r0
   bc542:	f7ff ffef 	bl	bc524 <strchr>
   bc546:	b918      	cbnz	r0, bc550 <strchrnul+0x12>
   bc548:	4620      	mov	r0, r4
   bc54a:	f000 f814 	bl	bc576 <strlen>
   bc54e:	4420      	add	r0, r4
   bc550:	bd10      	pop	{r4, pc}

000bc552 <strcmp>:
   bc552:	f810 2b01 	ldrb.w	r2, [r0], #1
   bc556:	f811 3b01 	ldrb.w	r3, [r1], #1
   bc55a:	2a01      	cmp	r2, #1
   bc55c:	bf28      	it	cs
   bc55e:	429a      	cmpcs	r2, r3
   bc560:	d0f7      	beq.n	bc552 <strcmp>
   bc562:	1ad0      	subs	r0, r2, r3
   bc564:	4770      	bx	lr

000bc566 <strcpy>:
   bc566:	4603      	mov	r3, r0
   bc568:	f811 2b01 	ldrb.w	r2, [r1], #1
   bc56c:	f803 2b01 	strb.w	r2, [r3], #1
   bc570:	2a00      	cmp	r2, #0
   bc572:	d1f9      	bne.n	bc568 <strcpy+0x2>
   bc574:	4770      	bx	lr

000bc576 <strlen>:
   bc576:	4603      	mov	r3, r0
   bc578:	f813 2b01 	ldrb.w	r2, [r3], #1
   bc57c:	2a00      	cmp	r2, #0
   bc57e:	d1fb      	bne.n	bc578 <strlen+0x2>
   bc580:	1a18      	subs	r0, r3, r0
   bc582:	3801      	subs	r0, #1
   bc584:	4770      	bx	lr

000bc586 <strncmp>:
   bc586:	b510      	push	{r4, lr}
   bc588:	b17a      	cbz	r2, bc5aa <strncmp+0x24>
   bc58a:	4603      	mov	r3, r0
   bc58c:	3901      	subs	r1, #1
   bc58e:	1884      	adds	r4, r0, r2
   bc590:	f813 0b01 	ldrb.w	r0, [r3], #1
   bc594:	f811 2f01 	ldrb.w	r2, [r1, #1]!
   bc598:	4290      	cmp	r0, r2
   bc59a:	d101      	bne.n	bc5a0 <strncmp+0x1a>
   bc59c:	42a3      	cmp	r3, r4
   bc59e:	d101      	bne.n	bc5a4 <strncmp+0x1e>
   bc5a0:	1a80      	subs	r0, r0, r2
   bc5a2:	bd10      	pop	{r4, pc}
   bc5a4:	2800      	cmp	r0, #0
   bc5a6:	d1f3      	bne.n	bc590 <strncmp+0xa>
   bc5a8:	e7fa      	b.n	bc5a0 <strncmp+0x1a>
   bc5aa:	4610      	mov	r0, r2
   bc5ac:	e7f9      	b.n	bc5a2 <strncmp+0x1c>

000bc5ae <strncpy>:
   bc5ae:	b510      	push	{r4, lr}
   bc5b0:	3901      	subs	r1, #1
   bc5b2:	4603      	mov	r3, r0
   bc5b4:	b132      	cbz	r2, bc5c4 <strncpy+0x16>
   bc5b6:	f811 4f01 	ldrb.w	r4, [r1, #1]!
   bc5ba:	f803 4b01 	strb.w	r4, [r3], #1
   bc5be:	3a01      	subs	r2, #1
   bc5c0:	2c00      	cmp	r4, #0
   bc5c2:	d1f7      	bne.n	bc5b4 <strncpy+0x6>
   bc5c4:	441a      	add	r2, r3
   bc5c6:	2100      	movs	r1, #0
   bc5c8:	4293      	cmp	r3, r2
   bc5ca:	d100      	bne.n	bc5ce <strncpy+0x20>
   bc5cc:	bd10      	pop	{r4, pc}
   bc5ce:	f803 1b01 	strb.w	r1, [r3], #1
   bc5d2:	e7f9      	b.n	bc5c8 <strncpy+0x1a>

000bc5d4 <strrchr>:
   bc5d4:	b538      	push	{r3, r4, r5, lr}
   bc5d6:	4603      	mov	r3, r0
   bc5d8:	460c      	mov	r4, r1
   bc5da:	b969      	cbnz	r1, bc5f8 <strrchr+0x24>
   bc5dc:	e8bd 4038 	ldmia.w	sp!, {r3, r4, r5, lr}
   bc5e0:	f7ff bfa0 	b.w	bc524 <strchr>
   bc5e4:	1c43      	adds	r3, r0, #1
   bc5e6:	4605      	mov	r5, r0
   bc5e8:	4621      	mov	r1, r4
   bc5ea:	4618      	mov	r0, r3
   bc5ec:	f7ff ff9a 	bl	bc524 <strchr>
   bc5f0:	2800      	cmp	r0, #0
   bc5f2:	d1f7      	bne.n	bc5e4 <strrchr+0x10>
   bc5f4:	4628      	mov	r0, r5
   bc5f6:	bd38      	pop	{r3, r4, r5, pc}
   bc5f8:	2500      	movs	r5, #0
   bc5fa:	e7f5      	b.n	bc5e8 <strrchr+0x14>

000bc5fc <_strtol_l.constprop.0>:
   bc5fc:	2b01      	cmp	r3, #1
   bc5fe:	e92d 47f0 	stmdb	sp!, {r4, r5, r6, r7, r8, r9, sl, lr}
   bc602:	d001      	beq.n	bc608 <_strtol_l.constprop.0+0xc>
   bc604:	2b24      	cmp	r3, #36	; 0x24
   bc606:	d906      	bls.n	bc616 <_strtol_l.constprop.0+0x1a>
   bc608:	f7fb fcc0 	bl	b7f8c <__errno>
   bc60c:	2316      	movs	r3, #22
   bc60e:	6003      	str	r3, [r0, #0]
   bc610:	2000      	movs	r0, #0
   bc612:	e8bd 87f0 	ldmia.w	sp!, {r4, r5, r6, r7, r8, r9, sl, pc}
   bc616:	f8df c0e4 	ldr.w	ip, [pc, #228]	; bc6fc <_strtol_l.constprop.0+0x100>
   bc61a:	460d      	mov	r5, r1
   bc61c:	462e      	mov	r6, r5
   bc61e:	f815 4b01 	ldrb.w	r4, [r5], #1
   bc622:	f814 700c 	ldrb.w	r7, [r4, ip]
   bc626:	f017 0708 	ands.w	r7, r7, #8
   bc62a:	d1f7      	bne.n	bc61c <_strtol_l.constprop.0+0x20>
   bc62c:	2c2d      	cmp	r4, #45	; 0x2d
   bc62e:	d132      	bne.n	bc696 <_strtol_l.constprop.0+0x9a>
   bc630:	782c      	ldrb	r4, [r5, #0]
   bc632:	2701      	movs	r7, #1
   bc634:	1cb5      	adds	r5, r6, #2
   bc636:	2b00      	cmp	r3, #0
   bc638:	d05b      	beq.n	bc6f2 <_strtol_l.constprop.0+0xf6>
   bc63a:	2b10      	cmp	r3, #16
   bc63c:	d109      	bne.n	bc652 <_strtol_l.constprop.0+0x56>
   bc63e:	2c30      	cmp	r4, #48	; 0x30
   bc640:	d107      	bne.n	bc652 <_strtol_l.constprop.0+0x56>
   bc642:	782c      	ldrb	r4, [r5, #0]
   bc644:	f004 04df 	and.w	r4, r4, #223	; 0xdf
   bc648:	2c58      	cmp	r4, #88	; 0x58
   bc64a:	d14d      	bne.n	bc6e8 <_strtol_l.constprop.0+0xec>
   bc64c:	786c      	ldrb	r4, [r5, #1]
   bc64e:	2310      	movs	r3, #16
   bc650:	3502      	adds	r5, #2
   bc652:	f107 4800 	add.w	r8, r7, #2147483648	; 0x80000000
   bc656:	f108 38ff 	add.w	r8, r8, #4294967295	; 0xffffffff
   bc65a:	f04f 0c00 	mov.w	ip, #0
   bc65e:	fbb8 f9f3 	udiv	r9, r8, r3
   bc662:	4666      	mov	r6, ip
   bc664:	fb03 8a19 	mls	sl, r3, r9, r8
   bc668:	f1a4 0e30 	sub.w	lr, r4, #48	; 0x30
   bc66c:	f1be 0f09 	cmp.w	lr, #9
   bc670:	d816      	bhi.n	bc6a0 <_strtol_l.constprop.0+0xa4>
   bc672:	4674      	mov	r4, lr
   bc674:	42a3      	cmp	r3, r4
   bc676:	dd24      	ble.n	bc6c2 <_strtol_l.constprop.0+0xc6>
   bc678:	f1bc 0f00 	cmp.w	ip, #0
   bc67c:	db1e      	blt.n	bc6bc <_strtol_l.constprop.0+0xc0>
   bc67e:	45b1      	cmp	r9, r6
   bc680:	d31c      	bcc.n	bc6bc <_strtol_l.constprop.0+0xc0>
   bc682:	d101      	bne.n	bc688 <_strtol_l.constprop.0+0x8c>
   bc684:	45a2      	cmp	sl, r4
   bc686:	db19      	blt.n	bc6bc <_strtol_l.constprop.0+0xc0>
   bc688:	fb06 4603 	mla	r6, r6, r3, r4
   bc68c:	f04f 0c01 	mov.w	ip, #1
   bc690:	f815 4b01 	ldrb.w	r4, [r5], #1
   bc694:	e7e8      	b.n	bc668 <_strtol_l.constprop.0+0x6c>
   bc696:	2c2b      	cmp	r4, #43	; 0x2b
   bc698:	bf04      	itt	eq
   bc69a:	782c      	ldrbeq	r4, [r5, #0]
   bc69c:	1cb5      	addeq	r5, r6, #2
   bc69e:	e7ca      	b.n	bc636 <_strtol_l.constprop.0+0x3a>
   bc6a0:	f1a4 0e41 	sub.w	lr, r4, #65	; 0x41
   bc6a4:	f1be 0f19 	cmp.w	lr, #25
   bc6a8:	d801      	bhi.n	bc6ae <_strtol_l.constprop.0+0xb2>
   bc6aa:	3c37      	subs	r4, #55	; 0x37
   bc6ac:	e7e2      	b.n	bc674 <_strtol_l.constprop.0+0x78>
   bc6ae:	f1a4 0e61 	sub.w	lr, r4, #97	; 0x61
   bc6b2:	f1be 0f19 	cmp.w	lr, #25
   bc6b6:	d804      	bhi.n	bc6c2 <_strtol_l.constprop.0+0xc6>
   bc6b8:	3c57      	subs	r4, #87	; 0x57
   bc6ba:	e7db      	b.n	bc674 <_strtol_l.constprop.0+0x78>
   bc6bc:	f04f 3cff 	mov.w	ip, #4294967295	; 0xffffffff
   bc6c0:	e7e6      	b.n	bc690 <_strtol_l.constprop.0+0x94>
   bc6c2:	f1bc 0f00 	cmp.w	ip, #0
   bc6c6:	da05      	bge.n	bc6d4 <_strtol_l.constprop.0+0xd8>
   bc6c8:	2322      	movs	r3, #34	; 0x22
   bc6ca:	6003      	str	r3, [r0, #0]
   bc6cc:	4646      	mov	r6, r8
   bc6ce:	b942      	cbnz	r2, bc6e2 <_strtol_l.constprop.0+0xe6>
   bc6d0:	4630      	mov	r0, r6
   bc6d2:	e79e      	b.n	bc612 <_strtol_l.constprop.0+0x16>
   bc6d4:	b107      	cbz	r7, bc6d8 <_strtol_l.constprop.0+0xdc>
   bc6d6:	4276      	negs	r6, r6
   bc6d8:	2a00      	cmp	r2, #0
   bc6da:	d0f9      	beq.n	bc6d0 <_strtol_l.constprop.0+0xd4>
   bc6dc:	f1bc 0f00 	cmp.w	ip, #0
   bc6e0:	d000      	beq.n	bc6e4 <_strtol_l.constprop.0+0xe8>
   bc6e2:	1e69      	subs	r1, r5, #1
   bc6e4:	6011      	str	r1, [r2, #0]
   bc6e6:	e7f3      	b.n	bc6d0 <_strtol_l.constprop.0+0xd4>
   bc6e8:	2430      	movs	r4, #48	; 0x30
   bc6ea:	2b00      	cmp	r3, #0
   bc6ec:	d1b1      	bne.n	bc652 <_strtol_l.constprop.0+0x56>
   bc6ee:	2308      	movs	r3, #8
   bc6f0:	e7af      	b.n	bc652 <_strtol_l.constprop.0+0x56>
   bc6f2:	2c30      	cmp	r4, #48	; 0x30
   bc6f4:	d0a5      	beq.n	bc642 <_strtol_l.constprop.0+0x46>
   bc6f6:	230a      	movs	r3, #10
   bc6f8:	e7ab      	b.n	bc652 <_strtol_l.constprop.0+0x56>
   bc6fa:	bf00      	nop
   bc6fc:	000bd0f6 	.word	0x000bd0f6

000bc700 <strtol>:
   bc700:	4613      	mov	r3, r2
   bc702:	460a      	mov	r2, r1
   bc704:	4601      	mov	r1, r0
   bc706:	4802      	ldr	r0, [pc, #8]	; (bc710 <strtol+0x10>)
   bc708:	6800      	ldr	r0, [r0, #0]
   bc70a:	f7ff bf77 	b.w	bc5fc <_strtol_l.constprop.0>
   bc70e:	bf00      	nop
   bc710:	2003dbd4 	.word	0x2003dbd4

000bc714 <__register_exitproc>:
   bc714:	e92d 43f8 	stmdb	sp!, {r3, r4, r5, r6, r7, r8, r9, lr}
   bc718:	f8df 80b8 	ldr.w	r8, [pc, #184]	; bc7d4 <__register_exitproc+0xc0>
   bc71c:	4606      	mov	r6, r0
   bc71e:	f8d8 0000 	ldr.w	r0, [r8]
   bc722:	461f      	mov	r7, r3
   bc724:	460d      	mov	r5, r1
   bc726:	4691      	mov	r9, r2
   bc728:	f000 f856 	bl	bc7d8 <__retarget_lock_acquire_recursive>
   bc72c:	4b25      	ldr	r3, [pc, #148]	; (bc7c4 <__register_exitproc+0xb0>)
   bc72e:	681c      	ldr	r4, [r3, #0]
   bc730:	b934      	cbnz	r4, bc740 <__register_exitproc+0x2c>
   bc732:	4c25      	ldr	r4, [pc, #148]	; (bc7c8 <__register_exitproc+0xb4>)
   bc734:	601c      	str	r4, [r3, #0]
   bc736:	4b25      	ldr	r3, [pc, #148]	; (bc7cc <__register_exitproc+0xb8>)
   bc738:	b113      	cbz	r3, bc740 <__register_exitproc+0x2c>
   bc73a:	681b      	ldr	r3, [r3, #0]
   bc73c:	f8c4 3088 	str.w	r3, [r4, #136]	; 0x88
   bc740:	6863      	ldr	r3, [r4, #4]
   bc742:	2b1f      	cmp	r3, #31
   bc744:	dd07      	ble.n	bc756 <__register_exitproc+0x42>
   bc746:	f8d8 0000 	ldr.w	r0, [r8]
   bc74a:	f000 f847 	bl	bc7dc <__retarget_lock_release_recursive>
   bc74e:	f04f 30ff 	mov.w	r0, #4294967295	; 0xffffffff
   bc752:	e8bd 83f8 	ldmia.w	sp!, {r3, r4, r5, r6, r7, r8, r9, pc}
   bc756:	b34e      	cbz	r6, bc7ac <__register_exitproc+0x98>
   bc758:	f8d4 0088 	ldr.w	r0, [r4, #136]	; 0x88
   bc75c:	b988      	cbnz	r0, bc782 <__register_exitproc+0x6e>
   bc75e:	4b1c      	ldr	r3, [pc, #112]	; (bc7d0 <__register_exitproc+0xbc>)
   bc760:	b923      	cbnz	r3, bc76c <__register_exitproc+0x58>
   bc762:	f8d8 0000 	ldr.w	r0, [r8]
   bc766:	f000 f838 	bl	bc7da <__retarget_lock_release>
   bc76a:	e7f0      	b.n	bc74e <__register_exitproc+0x3a>
   bc76c:	f44f 7084 	mov.w	r0, #264	; 0x108
   bc770:	f7fb fbdc 	bl	b7f2c <malloc>
   bc774:	2800      	cmp	r0, #0
   bc776:	d0f4      	beq.n	bc762 <__register_exitproc+0x4e>
   bc778:	2300      	movs	r3, #0
   bc77a:	e9c0 3340 	strd	r3, r3, [r0, #256]	; 0x100
   bc77e:	f8c4 0088 	str.w	r0, [r4, #136]	; 0x88
   bc782:	6863      	ldr	r3, [r4, #4]
   bc784:	f840 9023 	str.w	r9, [r0, r3, lsl #2]
   bc788:	2201      	movs	r2, #1
   bc78a:	409a      	lsls	r2, r3
   bc78c:	eb00 0183 	add.w	r1, r0, r3, lsl #2
   bc790:	f8d0 3100 	ldr.w	r3, [r0, #256]	; 0x100
   bc794:	4313      	orrs	r3, r2
   bc796:	f8c0 3100 	str.w	r3, [r0, #256]	; 0x100
   bc79a:	2e02      	cmp	r6, #2
   bc79c:	f8c1 7080 	str.w	r7, [r1, #128]	; 0x80
   bc7a0:	bf02      	ittt	eq
   bc7a2:	f8d0 3104 	ldreq.w	r3, [r0, #260]	; 0x104
   bc7a6:	4313      	orreq	r3, r2
   bc7a8:	f8c0 3104 	streq.w	r3, [r0, #260]	; 0x104
   bc7ac:	6863      	ldr	r3, [r4, #4]
   bc7ae:	f8d8 0000 	ldr.w	r0, [r8]
   bc7b2:	1c5a      	adds	r2, r3, #1
   bc7b4:	3302      	adds	r3, #2
   bc7b6:	6062      	str	r2, [r4, #4]
   bc7b8:	f844 5023 	str.w	r5, [r4, r3, lsl #2]
   bc7bc:	f000 f80e 	bl	bc7dc <__retarget_lock_release_recursive>
   bc7c0:	2000      	movs	r0, #0
   bc7c2:	e7c6      	b.n	bc752 <__register_exitproc+0x3e>
   bc7c4:	2003e7ec 	.word	0x2003e7ec
   bc7c8:	2003e760 	.word	0x2003e760
   bc7cc:	00000000 	.word	0x00000000
   bc7d0:	000b7f2d 	.word	0x000b7f2d
   bc7d4:	2003dc38 	.word	0x2003dc38

000bc7d8 <__retarget_lock_acquire_recursive>:
   bc7d8:	4770      	bx	lr

000bc7da <__retarget_lock_release>:
   bc7da:	4770      	bx	lr

000bc7dc <__retarget_lock_release_recursive>:
   bc7dc:	4770      	bx	lr

000bc7de <link_code_end>:
	...

000bc7e0 <dynalib_user>:
   bc7e0:	4021 000b 405d 000b 4085 000b 4089 000b     !@..]@...@...@..
   bc7f0:	0000 0000 6143 6c6c 6f20 206e 7570 6572     ....Call on pure
   bc800:	7620 7269 7574 6c61 6400 6665 7561 746c      virtual.default
   bc810:	0020 534d 0042 534c 0042 533c 4950 6553      .MSB.LSB.<SPISe
   bc820:	7474 6e69 7367 6420 6665 7561 746c 003e     ttings default>.
   bc830:	533c 4950 6553 7474 6e69 7367 2520 2573     <SPISettings %s%
   bc840:	2075 7325 4d20 444f 2545 3e75 3200 3630     u %s MODE%u>.206
   bc850:	2f33 3430 302f 2035 3032 303a 3a30 3030     3/04/05 20:00:00
   bc860:	4900 206e 4354 5320 7465 7075 5400 6568     .In TC Setup.The
   bc870:	6d72 636f 756f 6c70 2065 6d61 6c70 6669     rmocouple amplif
   bc880:	6569 2072 6f6e 2074 6f66 6e75 2e64 4320     ier not found. C
   bc890:	6568 6b63 7720 7269 6e69 2167 4600 756f     heck wiring!.Fou
   bc8a0:	646e 4d20 5043 3639 3030 0021 4441 2043     nd MCP9600!.ADC 
   bc8b0:	6572 6f73 756c 6974 6e6f 7320 7465 7420     resolution set t
   bc8c0:	206f 3100 0038 3631 3100 0034 3231 2000     o .18.16.14.12. 
   bc8d0:	6962 7374 5400 6568 6d72 636f 756f 6c70     bits.Thermocoupl
   bc8e0:	2065 7974 6570 7320 7465 7420 206f 4b00     e type set to .K
   bc8f0:	4a00 5400 4e00 5200 2000 7974 6570 4600     .J.T.N.R. type.F
   bc900:	6c69 6574 2072 6f63 6665 6966 6963 6e65     ilter coefficien
   bc910:	2074 6176 756c 2065 6573 2074 6f74 203a     t value set to: 
   bc920:	4100 656c 7472 2320 2031 6574 706d 7265     .Alert #1 temper
   bc930:	7461 7275 2065 6573 2074 6f74 0020 2d2d     ature set to .--
   bc940:	2d2d 2d2d 2d2d 2d2d 2d2d 2d2d 2d2d 2d2d     ----------------
   bc950:	2d2d 2d2d 2d2d 2d2d 2d2d 2d2d 2500 3430     ------------.%04
   bc960:	2f64 3025 6432 252f 3230 2064 3025 6432     d/%02d/%02d %02d
   bc970:	253a 3230 3a64 3025 6432 4300 6f6c 6b63     :%02d:%02d.Clock
   bc980:	203a 2000 4150 5353 202c 4142 2044 4954     : . PASS, BAD TI
   bc990:	454d 2000 4146 4c49 2000 4150 5353 5300     ME. FAIL. PASS.S
   bc9a0:	3a44 0020 6425 5300 7444 7365 2e74 7874     D: .%d.SDtest.tx
   bc9b0:	0074 4e20 204f 4143 4452 0a00 6548 7720     t. NO CARD..He w
   bc9c0:	7361 6120 6d20 6e61 202e 6154 656b 6820     as a man. Take h
   bc9d0:	6d69 6620 726f 6120 6c6c 6920 206e 6c61     im for all in al
   bc9e0:	2e6c 4900 7320 6168 6c6c 6e20 746f 6c20     l..I shall not l
   bc9f0:	6f6f 206b 7075 6e6f 6820 7369 6c20 6b69     ook upon his lik
   bca00:	2065 6761 6961 2e6e 2d00 6148 6c6d 7465     e again..-Hamlet
   bca10:	202c 6341 2074 2c31 5320 6563 656e 3220     , Act 1, Scene 2
   bca20:	4200 7461 3d20 0020 0956 2c00 4100 4344     .Bat = .V..,.ADC
   bca30:	203a 2000 5675 4200 6765 6e69 696e 676e     : . uV.Beginning
   bca40:	6c20 676f 6567 2072 6e69 7469 6169 696c      logger initiali
   bca50:	617a 6974 6e6f 0a00 0a0a 6e49 7469 6169     zation....Initia
   bca60:	696c 697a 676e 2e2e 0a2e 0a00 6954 656d     lizing......Time
   bca70:	7473 6d61 2070 203d 5400 0043 6553 2074     stamp = .TC.Set 
   bca80:	7075 6620 726f 7320 696f 206c 6f6d 7369     up for soil mois
   bca90:	7574 6572 6120 646e 7220 6961 206e 6167     ture and rain ga
   bcaa0:	6775 0065 6150 7472 6369 656c 5000 6972     uge.Particle.Pri
   bcab0:	746e 4520 7272 726f 5300 7075 6f70 6573     nt Error.Suppose
   bcac0:	2064 6f74 6220 2065 6e69 4c20 676f 0073     d to be in Logs.
   bcad0:	6f4c 0067 3025 6435 4600 6c69 4e65 6d61     Log.%05d.FileNam
   bcae0:	4365 203a 2000 4e53 3d20 0020 6954 656d     eC: . SN = .Time
   bcaf0:	5b20 5455 5d43 202c 6142 2074 565b 2c5d      [UTC], Bat [V],
   bcb00:	0020 0000                                    ...

000bcb04 <_ZTVN8particle11SPISettingsE>:
	...
   bcb0c:	41fd 000b 40cd 000b 4137 000b               .A...@..7A..

000bcb18 <_ZTV4File>:
	...
   bcb20:	4135 000b 4145 000b 41c7 000b 4153 000b     5A..EA...A..SA..
   bcb30:	40cf 000b 4159 000b 417f 000b 4179 000b     .@..YA...A..yA..
   bcb40:	3130 3332 3534 3736 3938 4241 4443 4645     0123456789ABCDEF
   bcb50:	6f53 6c69 5420 706f 5b20 566d 2c5d 5320     Soil Top [mV], S
   bcb60:	696f 206c 694d 2064 6d5b 5d56 202c 6f53     oil Mid [mV], So
   bcb70:	6c69 4220 746f 6f74 206d 6d5b 5d56 202c     il Bottom [mV], 
   bcb80:	6152 6e69 5b20 6e69 2c5d 0020 6946 696e     Rain [in], .Fini
   bcb90:	6873 6920 696e 6974 6c61 7a69 7461 6f69     sh initializatio
   bcba0:	216e 5200 6961 006e                         n!.Rain.

000bcba8 <_ZTVN5spark10LogHandlerE>:
	...
   bcbb8:	40a5 000b 50c5 000b                         .@...P..

000bcbc0 <_ZTVN5spark16SerialLogHandlerE>:
	...
   bcbc8:	5101 000b 5135 000b 9941 000b 50c7 000b     .Q..5Q..A....P..

000bcbd8 <_ZL11daysInMonth>:
   bcbd8:	1c1f 1e1f 1e1f 1f1f 1f1e 1f1e 7341 6573     ............Asse
   bcbe8:	7472 6f69 466e 6961 756c 6572 6620 6c61     rtionFailure fal
   bcbf8:	6573 7700 7269 6e69 2e67 6c62 0065 7453     se.wiring.ble.St
   bcc08:	7261 2074 6964 6373 766f 7265 6e69 2067     art discovering 
   bcc18:	6573 7672 6369 7365 002e 7341 6573 7472     services..Assert
   bcc28:	6f69 466e 6961 756c 6572 6820 6c61 625f     ionFailure hal_b
   bcc38:	656c 735f 6174 6b63 695f 696e 2874 756e     le_stack_init(nu
   bcc48:	6c6c 7470 2972 3d20 203d 5953 5453 4d45     llptr) == SYSTEM
   bcc58:	455f 5252 524f 4e5f 4e4f 0045 6146 6c69     _ERROR_NONE.Fail
   bcc68:	6465 7420 206f 7061 6570 646e 7020 6565     ed to append pee
   bcc78:	2072 6543 746e 6172 206c 6564 6976 6563     r Central device
   bcc88:	002e 6f43 6e6e 6365 6574 2064 7962 4320     ..Connected by C
   bcc98:	6e65 7274 6c61 6420 7665 6369 2e65 4400     entral device..D
   bcca8:	7369 6f63 6e6e 6365 6574 2064 7962 7220     isconnected by r
   bccb8:	6d65 746f 2065 6564 6976 6563 002e 0000     emote device....

000bccc8 <_ZTVSt23_Sp_counted_ptr_inplaceIN8particle17BlePeerDeviceImplESaIS1_ELN9__gnu_cxx12_Lock_policyE0EE>:
	...
   bccd0:	7fc3 000b 7fe5 000b 82d7 000b 7ff3 000b     ................
   bcce0:	7fc5 000b                                   ....

000bcce4 <_ZZNSt19_Sp_make_shared_tag5_S_tiEvE5__tag>:
	...

000bccec <_ZTVN5spark13EthernetClassE>:
	...
   bccf4:	875f 000b 8755 000b 874b 000b 8741 000b     _...U...K...A...
   bcd04:	8735 000b 8729 000b 9c99 000b 9ca1 000b     5...)...........
   bcd14:	871d 000b 8715 000b 870b 000b 8701 000b     ................
   bcd24:	9cd1 000b                                   ....

000bcd28 <_ZTV7TwoWire>:
	...
   bcd30:	877d 000b 87c7 000b 879f 000b 877f 000b     }...............
   bcd40:	87a7 000b 87af 000b 87b7 000b 87bf 000b     ................

000bcd50 <_ZTV9IPAddress>:
	...
   bcd58:	88e1 000b 88d1 000b 88d3 000b 7525 7500     ............%u.u
   bcd68:	3025 7834 6200 7561 0064 6553 6972 6c61     %04x.baud.Serial
   bcd78:	5300 7265 6169 316c 4a00 4f53 534e 7274     .Serial1.JSONStr
   bcd88:	6165 4c6d 676f 6148 646e 656c 0072 7061     eamLogHandler.ap
   bcd98:	0070 3025 3031 2075 5d00 0020 2928 203a     p.%010u .] .(): 
   bcda8:	2000 005b 6f63 6564 3d20 0020 6925 6400     . [.code = .%i.d
   bcdb8:	7465 6961 736c 3d20 0020 0a0d 6d00 6c00     etails = ....m.l
   bcdc8:	006e 6e66 6300 646f 0065 6564 6174 6c69     n.fn.code.detail
   bcdd8:	0000 0000                                   ....

000bcddc <_ZTVN5spark16JSONStreamWriterE>:
	...
   bcde4:	8d8d 000b 8db3 000b 8d71 000b 89ef 000b     ........q.......

000bcdf4 <_ZTVN5spark16StreamLogHandlerE>:
	...
   bcdfc:	91e9 000b 9201 000b 9941 000b 50c7 000b     ........A....P..

000bce0c <_ZTVN5spark20JSONStreamLogHandlerE>:
	...
   bce14:	9215 000b 9229 000b 9ae5 000b 8d79 000b     ....).......y...

000bce24 <_ZTVN5spark24DefaultLogHandlerFactoryE>:
	...
   bce2c:	8d8b 000b 8dc1 000b 98a5 000b 8d7b 000b     ............{...

000bce3c <_ZTVN5spark26DefaultOutputStreamFactoryE>:
	...
   bce44:	8d89 000b 8dcf 000b 9151 000b 8df1 000b     ........Q.......

000bce54 <_ZTVN5spark12NetworkClassE>:
	...
   bce5c:	9c59 000b 9c63 000b 9c6d 000b 9c77 000b     Y...c...m...w...
   bce6c:	9c81 000b 9c8d 000b 9c99 000b 9ca1 000b     ................
   bce7c:	9ca9 000b 9cb5 000b 9cbd 000b 9cc7 000b     ................
   bce8c:	9cd1 000b 616e 006e 6e69 0066 766f 0066     ....nan.inf.ovf.

000bce9c <_ZN12_GLOBAL__N_1L14clock_divisorsE>:
   bce9c:	0800 1810 2820 3830 6977 6972 676e 5300     .... (08wiring.S
   bceac:	7379 6574 206d 6c73 6565 2070 6f63 666e     ystem sleep conf
   bcebc:	6769 7275 7461 6f69 206e 7369 6920 766e     iguration is inv
   bcecc:	6c61 6469 002e 5925 252d 2d6d 6425 2554     alid..%Y-%m-%dT%
   bcedc:	3a48 4d25 253a 2553 007a 7361 7463 6d69     H:%M:%S%z.asctim
   bceec:	0065 0000                                   e...

000bcef0 <_ZTV11USARTSerial>:
	...
   bcef8:	a74d 000b a7b9 000b a791 000b 9dbd 000b     M...............
   bcf08:	a761 000b a77d 000b a76f 000b a78b 000b     a...}...o.......
   bcf18:	a74f 000b a753 000b                         O...S...

000bcf20 <_ZTV9USBSerial>:
	...
   bcf28:	a80b 000b a873 000b a849 000b 9dbd 000b     ....s...I.......
   bcf38:	a83b 000b a80d 000b a81d 000b a86d 000b     ;...........m...
   bcf48:	a82d 000b a805 000b                         -.......

000bcf50 <_ZTVN5spark9WiFiClassE>:
	...
   bcf58:	a973 000b a969 000b a95f 000b a915 000b     s...i..._.......
   bcf68:	a953 000b a947 000b 9c99 000b 9ca1 000b     S...G...........
   bcf78:	a93b 000b a933 000b a929 000b a91f 000b     ;...3...).......
   bcf88:	9cd1 000b                                   ....

000bcf8c <_ZSt7nothrow>:
	...

000bcf8d <_ZTSSt19_Sp_make_shared_tag>:
   bcf8d:	7453 3931 535f 5f70 616d 656b 735f 6168     St19_Sp_make_sha
   bcf9d:	6572 5f64 6174 0067 0000                     red_tag....

000bcfa8 <_ZTISt19_Sp_make_shared_tag>:
   bcfa8:	cfe8 000b cf8d 000b                         ........

000bcfb0 <_ZTIN10__cxxabiv117__class_type_infoE>:
   bcfb0:	d048 000b cfbc 000b d06c 000b               H.......l...

000bcfbc <_ZTSN10__cxxabiv117__class_type_infoE>:
   bcfbc:	314e 5f30 635f 7878 6261 7669 3131 5f37     N10__cxxabiv117_
   bcfcc:	635f 616c 7373 745f 7079 5f65 6e69 6f66     _class_type_info
   bcfdc:	0045 0000                                   E...

000bcfe0 <_ZTVN10__cxxabiv117__class_type_infoE>:
   bcfe0:	0000 0000 cfb0 000b ad85 000b ad99 000b     ................
   bcff0:	af2d 000b af2d 000b ae03 000b ad45 000b     -...-.......E...
   bd000:	adeb 000b adad 000b ad77 000b               ........w...

000bd00c <_ZTIN10__cxxabiv120__si_class_type_infoE>:
   bd00c:	d048 000b d018 000b cfb0 000b               H...........

000bd018 <_ZTSN10__cxxabiv120__si_class_type_infoE>:
   bd018:	314e 5f30 635f 7878 6261 7669 3231 5f30     N10__cxxabiv120_
   bd028:	735f 5f69 6c63 7361 5f73 7974 6570 695f     _si_class_type_i
   bd038:	666e 456f 0000 0000                         nfoE....

000bd040 <_ZTVN10__cxxabiv120__si_class_type_infoE>:
   bd040:	0000 0000 d00c 000b ae2d 000b ae41 000b     ........-...A...
   bd050:	af2d 000b af2d 000b ae03 000b ad45 000b     -...-.......E...
   bd060:	af01 000b ae8d 000b ae55 000b               ........U...

000bd06c <_ZTISt9type_info>:
   bd06c:	cfe8 000b d074 000b                         ....t...

000bd074 <_ZTSSt9type_info>:
   bd074:	7453 7439 7079 5f65 6e69 6f66 0000 0000     St9type_info....
   bd084:	5200 4545 544e 6d20 6c61 6f6c 2063 7573     .REENT malloc su
   bd094:	6363 6565 6564 0064 742f 706d 6a2f 6e65     cceeded./tmp/jen
   bd0a4:	696b 736e 472d 4343 312d 2d30 6970 6570     kins-GCC-10-pipe
   bd0b4:	696c 656e 342d 5f38 3032 3032 3131 3432     line-48_20201124
   bd0c4:	315f 3036 3136 3038 3336 2f39 7273 2f63     _1606180639/src/
   bd0d4:	656e 6c77 6269 6e2f 7765 696c 2f62 696c     newlib/newlib/li
   bd0e4:	6362 732f 6474 696c 2f62 6172 646e 632e     bc/stdlib/rand.c
	...

000bd0f5 <_ctype_>:
   bd0f5:	2000 2020 2020 2020 2020 2828 2828 2028     .         ((((( 
   bd105:	2020 2020 2020 2020 2020 2020 2020 2020                     
   bd115:	8820 1010 1010 1010 1010 1010 1010 1010      ...............
   bd125:	0410 0404 0404 0404 0404 1004 1010 1010     ................
   bd135:	1010 4141 4141 4141 0101 0101 0101 0101     ..AAAAAA........
   bd145:	0101 0101 0101 0101 0101 0101 1010 1010     ................
   bd155:	1010 4242 4242 4242 0202 0202 0202 0202     ..BBBBBB........
   bd165:	0202 0202 0202 0202 0202 0202 1010 1010     ................
   bd175:	0020 0000 0000 0000 0000 0000 0000 0000      ...............
	...

000bd1f6 <link_const_variable_data_end>:
	...

000bd1f8 <link_constructors_location>:
   bd1f8:	000b55ed 	.word	0x000b55ed
   bd1fc:	000b86bd 	.word	0x000b86bd
   bd200:	000b8769 	.word	0x000b8769
   bd204:	000b9931 	.word	0x000b9931
   bd208:	000b9da9 	.word	0x000b9da9
   bd20c:	000ba0c5 	.word	0x000ba0c5
   bd210:	000ba715 	.word	0x000ba715
   bd214:	000ba739 	.word	0x000ba739
   bd218:	000ba97d 	.word	0x000ba97d

000bd21c <link_constructors_end>:
   bd21c:	00000000 	.word	0x00000000
